declare i32 @llvm.eh.typeid.for(ptr)
declare i32 @__gxx_personality_v0(...)
declare ptr @__cxa_begin_catch(ptr)
declare void @__cxa_end_catch()
@_ZTIN11scalanative16ExceptionWrapperE = external constant { ptr, ptr, ptr }

@"_SM7__constG1-0" = private unnamed_addr constant { ptr, i32, i32, [21 x i16] } { ptr @"_SM35scala.scalanative.runtime.CharArrayG4type", i32 21, i32 2, [21 x i16] [ i16 115, i16 99, i16 97, i16 108, i16 97, i16 46, i16 65, i16 110, i16 121, i16 86, i16 97, i16 108, i16 67, i16 111, i16 109, i16 112, i16 97, i16 110, i16 105, i16 111, i16 110 ] }
@"_SM7__constG1-1" = private unnamed_addr constant { ptr, ptr, i32, i32, i32 } { ptr @"_SM16java.lang.StringG4type", ptr @"_SM7__constG1-0", i32 0, i32 21, i32 -59289553 }
@"_SM7__constG1-2" = private unnamed_addr constant { ptr, i32, i32, [12 x i16] } { ptr @"_SM35scala.scalanative.runtime.CharArrayG4type", i32 12, i32 2, [12 x i16] [ i16 115, i16 99, i16 97, i16 108, i16 97, i16 46, i16 65, i16 114, i16 114, i16 97, i16 121, i16 36 ] }
@"_SM7__constG1-3" = private unnamed_addr constant { ptr, ptr, i32, i32, i32 } { ptr @"_SM16java.lang.StringG4type", ptr @"_SM7__constG1-2", i32 0, i32 12, i32 2030601907 }
@"_SM7__constG1-4" = private unnamed_addr constant [1 x i32] [ i32 -1 ]
@"_SM7__constG1-5" = private unnamed_addr constant { ptr, i32, i32, [11 x i16] } { ptr @"_SM35scala.scalanative.runtime.CharArrayG4type", i32 11, i32 2, [11 x i16] [ i16 115, i16 99, i16 97, i16 108, i16 97, i16 46, i16 66, i16 121, i16 116, i16 101, i16 36 ] }
@"_SM7__constG1-6" = private unnamed_addr constant { ptr, ptr, i32, i32, i32 } { ptr @"_SM16java.lang.StringG4type", ptr @"_SM7__constG1-5", i32 0, i32 11, i32 -1180288684 }
@"_SM7__constG1-7" = private unnamed_addr constant { ptr, i32, i32, [11 x i16] } { ptr @"_SM35scala.scalanative.runtime.CharArrayG4type", i32 11, i32 2, [11 x i16] [ i16 115, i16 99, i16 97, i16 108, i16 97, i16 46, i16 67, i16 104, i16 97, i16 114, i16 36 ] }
@"_SM7__constG1-8" = private unnamed_addr constant { ptr, ptr, i32, i32, i32 } { ptr @"_SM16java.lang.StringG4type", ptr @"_SM7__constG1-7", i32 0, i32 11, i32 -1179889466 }
@"_SM7__constG1-9" = private unnamed_addr constant { ptr, i32, i32, [14 x i16] } { ptr @"_SM35scala.scalanative.runtime.CharArrayG4type", i32 14, i32 2, [14 x i16] [ i16 115, i16 99, i16 97, i16 108, i16 97, i16 46, i16 67, i16 111, i16 110, i16 115, i16 111, i16 108, i16 101, i16 36 ] }
@"_SM7__constG2-10" = private unnamed_addr constant { ptr, ptr, i32, i32, i32 } { ptr @"_SM16java.lang.StringG4type", ptr @"_SM7__constG1-9", i32 0, i32 14, i32 -2076696203 }
@"_SM7__constG2-11" = private unnamed_addr constant [4 x i32] [ i32 8, i32 16, i32 24, i32 -1 ]
@"_SM7__constG2-12" = private unnamed_addr constant { ptr, i32, i32, [12 x i16] } { ptr @"_SM35scala.scalanative.runtime.CharArrayG4type", i32 12, i32 2, [12 x i16] [ i16 115, i16 99, i16 97, i16 108, i16 97, i16 46, i16 69, i16 113, i16 117, i16 97, i16 108, i16 115 ] }
@"_SM7__constG2-13" = private unnamed_addr constant { ptr, ptr, i32, i32, i32 } { ptr @"_SM16java.lang.StringG4type", ptr @"_SM7__constG2-12", i32 0, i32 12, i32 2144284039 }
@"_SM7__constG2-14" = private unnamed_addr constant { ptr, i32, i32, [15 x i16] } { ptr @"_SM35scala.scalanative.runtime.CharArrayG4type", i32 15, i32 2, [15 x i16] [ i16 115, i16 99, i16 97, i16 108, i16 97, i16 46, i16 70, i16 117, i16 110, i16 99, i16 116, i16 105, i16 111, i16 110, i16 48 ] }
@"_SM7__constG2-15" = private unnamed_addr constant { ptr, ptr, i32, i32, i32 } { ptr @"_SM16java.lang.StringG4type", ptr @"_SM7__constG2-14", i32 0, i32 15, i32 332932240 }
@"_SM7__constG2-16" = private unnamed_addr constant { ptr, i32, i32, [15 x i16] } { ptr @"_SM35scala.scalanative.runtime.CharArrayG4type", i32 15, i32 2, [15 x i16] [ i16 115, i16 99, i16 97, i16 108, i16 97, i16 46, i16 70, i16 117, i16 110, i16 99, i16 116, i16 105, i16 111, i16 110, i16 49 ] }
@"_SM7__constG2-17" = private unnamed_addr constant { ptr, ptr, i32, i32, i32 } { ptr @"_SM16java.lang.StringG4type", ptr @"_SM7__constG2-16", i32 0, i32 15, i32 332932241 }
@"_SM7__constG2-18" = private unnamed_addr constant { ptr, i32, i32, [15 x i16] } { ptr @"_SM35scala.scalanative.runtime.CharArrayG4type", i32 15, i32 2, [15 x i16] [ i16 115, i16 99, i16 97, i16 108, i16 97, i16 46, i16 70, i16 117, i16 110, i16 99, i16 116, i16 105, i16 111, i16 110, i16 50 ] }
@"_SM7__constG2-19" = private unnamed_addr constant { ptr, ptr, i32, i32, i32 } { ptr @"_SM16java.lang.StringG4type", ptr @"_SM7__constG2-18", i32 0, i32 15, i32 332932242 }
@"_SM7__constG2-20" = private unnamed_addr constant { ptr, i32, i32, [10 x i16] } { ptr @"_SM35scala.scalanative.runtime.CharArrayG4type", i32 10, i32 2, [10 x i16] [ i16 115, i16 99, i16 97, i16 108, i16 97, i16 46, i16 73, i16 110, i16 116, i16 36 ] }
@"_SM7__constG2-21" = private unnamed_addr constant { ptr, ptr, i32, i32, i32 } { ptr @"_SM16java.lang.StringG4type", ptr @"_SM7__constG2-20", i32 0, i32 10, i32 1763239389 }
@"_SM7__constG2-22" = private unnamed_addr constant { ptr, i32, i32, [26 x i16] } { ptr @"_SM35scala.scalanative.runtime.CharArrayG4type", i32 26, i32 2, [26 x i16] [ i16 115, i16 99, i16 97, i16 108, i16 97, i16 46, i16 76, i16 111, i16 119, i16 80, i16 114, i16 105, i16 111, i16 114, i16 105, i16 116, i16 121, i16 73, i16 109, i16 112, i16 108, i16 105, i16 99, i16 105, i16 116, i16 115 ] }
@"_SM7__constG2-23" = private unnamed_addr constant { ptr, ptr, i32, i32, i32 } { ptr @"_SM16java.lang.StringG4type", ptr @"_SM7__constG2-22", i32 0, i32 26, i32 1842711742 }
@"_SM7__constG2-24" = private unnamed_addr constant { ptr, i32, i32, [27 x i16] } { ptr @"_SM35scala.scalanative.runtime.CharArrayG4type", i32 27, i32 2, [27 x i16] [ i16 115, i16 99, i16 97, i16 108, i16 97, i16 46, i16 76, i16 111, i16 119, i16 80, i16 114, i16 105, i16 111, i16 114, i16 105, i16 116, i16 121, i16 73, i16 109, i16 112, i16 108, i16 105, i16 99, i16 105, i16 116, i16 115, i16 50 ] }
@"_SM7__constG2-25" = private unnamed_addr constant { ptr, ptr, i32, i32, i32 } { ptr @"_SM16java.lang.StringG4type", ptr @"_SM7__constG2-24", i32 0, i32 27, i32 1289489204 }
@"_SM7__constG2-26" = private unnamed_addr constant { ptr, i32, i32, [16 x i16] } { ptr @"_SM35scala.scalanative.runtime.CharArrayG4type", i32 16, i32 2, [16 x i16] [ i16 115, i16 99, i16 97, i16 108, i16 97, i16 46, i16 77, i16 97, i16 116, i16 99, i16 104, i16 69, i16 114, i16 114, i16 111, i16 114 ] }
@"_SM7__constG2-27" = private unnamed_addr constant { ptr, ptr, i32, i32, i32 } { ptr @"_SM16java.lang.StringG4type", ptr @"_SM7__constG2-26", i32 0, i32 16, i32 -660019957 }
@"_SM7__constG2-28" = private unnamed_addr constant [6 x i32] [ i32 8, i32 16, i32 24, i32 40, i32 48, i32 -1 ]
@"_SM7__constG2-29" = private unnamed_addr constant { ptr, i32, i32, [11 x i16] } { ptr @"_SM35scala.scalanative.runtime.CharArrayG4type", i32 11, i32 2, [11 x i16] [ i16 115, i16 99, i16 97, i16 108, i16 97, i16 46, i16 78, i16 111, i16 110, i16 101, i16 36 ] }
@"_SM7__constG2-30" = private unnamed_addr constant { ptr, ptr, i32, i32, i32 } { ptr @"_SM16java.lang.StringG4type", ptr @"_SM7__constG2-29", i32 0, i32 11, i32 -1169510108 }
@"_SM7__constG2-31" = private unnamed_addr constant { ptr, i32, i32, [25 x i16] } { ptr @"_SM35scala.scalanative.runtime.CharArrayG4type", i32 25, i32 2, [25 x i16] [ i16 115, i16 99, i16 97, i16 108, i16 97, i16 46, i16 78, i16 111, i16 116, i16 73, i16 109, i16 112, i16 108, i16 101, i16 109, i16 101, i16 110, i16 116, i16 101, i16 100, i16 69, i16 114, i16 114, i16 111, i16 114 ] }
@"_SM7__constG2-32" = private unnamed_addr constant { ptr, ptr, i32, i32, i32 } { ptr @"_SM16java.lang.StringG4type", ptr @"_SM7__constG2-31", i32 0, i32 25, i32 -1268844975 }
@"_SM7__constG2-33" = private unnamed_addr constant { ptr, i32, i32, [12 x i16] } { ptr @"_SM35scala.scalanative.runtime.CharArrayG4type", i32 12, i32 2, [12 x i16] [ i16 115, i16 99, i16 97, i16 108, i16 97, i16 46, i16 79, i16 112, i16 116, i16 105, i16 111, i16 110 ] }
@"_SM7__constG2-34" = private unnamed_addr constant { ptr, ptr, i32, i32, i32 } { ptr @"_SM16java.lang.StringG4type", ptr @"_SM7__constG2-33", i32 0, i32 12, i32 -1865337283 }
@"_SM7__constG2-35" = private unnamed_addr constant { ptr, i32, i32, [13 x i16] } { ptr @"_SM35scala.scalanative.runtime.CharArrayG4type", i32 13, i32 2, [13 x i16] [ i16 115, i16 99, i16 97, i16 108, i16 97, i16 46, i16 79, i16 112, i16 116, i16 105, i16 111, i16 110, i16 36 ] }
@"_SM7__constG2-36" = private unnamed_addr constant { ptr, ptr, i32, i32, i32 } { ptr @"_SM16java.lang.StringG4type", ptr @"_SM7__constG2-35", i32 0, i32 13, i32 -1990880889 }
@"_SM7__constG2-37" = private unnamed_addr constant { ptr, i32, i32, [21 x i16] } { ptr @"_SM35scala.scalanative.runtime.CharArrayG4type", i32 21, i32 2, [21 x i16] [ i16 115, i16 99, i16 97, i16 108, i16 97, i16 46, i16 80, i16 97, i16 114, i16 116, i16 105, i16 97, i16 108, i16 70, i16 117, i16 110, i16 99, i16 116, i16 105, i16 111, i16 110 ] }
@"_SM7__constG2-38" = private unnamed_addr constant { ptr, ptr, i32, i32, i32 } { ptr @"_SM16java.lang.StringG4type", ptr @"_SM7__constG2-37", i32 0, i32 21, i32 286647217 }
@"_SM7__constG2-39" = private unnamed_addr constant { ptr, i32, i32, [13 x i16] } { ptr @"_SM35scala.scalanative.runtime.CharArrayG4type", i32 13, i32 2, [13 x i16] [ i16 115, i16 99, i16 97, i16 108, i16 97, i16 46, i16 80, i16 114, i16 101, i16 100, i16 101, i16 102, i16 36 ] }
@"_SM7__constG2-40" = private unnamed_addr constant { ptr, ptr, i32, i32, i32 } { ptr @"_SM16java.lang.StringG4type", ptr @"_SM7__constG2-39", i32 0, i32 13, i32 -1060130534 }
@"_SM7__constG2-41" = private unnamed_addr constant { ptr, i32, i32, [13 x i16] } { ptr @"_SM35scala.scalanative.runtime.CharArrayG4type", i32 13, i32 2, [13 x i16] [ i16 115, i16 99, i16 97, i16 108, i16 97, i16 46, i16 80, i16 114, i16 111, i16 100, i16 117, i16 99, i16 116 ] }
@"_SM7__constG2-42" = private unnamed_addr constant { ptr, ptr, i32, i32, i32 } { ptr @"_SM16java.lang.StringG4type", ptr @"_SM7__constG2-41", i32 0, i32 13, i32 -1050879961 }
@"_SM7__constG2-43" = private unnamed_addr constant { ptr, i32, i32, [21 x i16] } { ptr @"_SM35scala.scalanative.runtime.CharArrayG4type", i32 21, i32 2, [21 x i16] [ i16 115, i16 99, i16 97, i16 108, i16 97, i16 46, i16 80, i16 114, i16 111, i16 100, i16 117, i16 99, i16 116, i16 36, i16 36, i16 97, i16 110, i16 111, i16 110, i16 36, i16 49 ] }
@"_SM7__constG2-44" = private unnamed_addr constant { ptr, ptr, i32, i32, i32 } { ptr @"_SM16java.lang.StringG4type", ptr @"_SM7__constG2-43", i32 0, i32 21, i32 -1320900096 }
@"_SM7__constG2-45" = private unnamed_addr constant [2 x i32] [ i32 16, i32 -1 ]
@"_SM7__constG2-46" = private unnamed_addr constant { ptr, i32, i32, [14 x i16] } { ptr @"_SM35scala.scalanative.runtime.CharArrayG4type", i32 14, i32 2, [14 x i16] [ i16 115, i16 99, i16 97, i16 108, i16 97, i16 46, i16 80, i16 114, i16 111, i16 100, i16 117, i16 99, i16 116, i16 50 ] }
@"_SM7__constG2-47" = private unnamed_addr constant { ptr, ptr, i32, i32, i32 } { ptr @"_SM16java.lang.StringG4type", ptr @"_SM7__constG2-46", i32 0, i32 14, i32 1782459627 }
@"_SM7__constG2-48" = private unnamed_addr constant { ptr, i32, i32, [14 x i16] } { ptr @"_SM35scala.scalanative.runtime.CharArrayG4type", i32 14, i32 2, [14 x i16] [ i16 115, i16 99, i16 97, i16 108, i16 97, i16 46, i16 80, i16 114, i16 111, i16 100, i16 117, i16 99, i16 116, i16 51 ] }
@"_SM7__constG2-49" = private unnamed_addr constant { ptr, ptr, i32, i32, i32 } { ptr @"_SM16java.lang.StringG4type", ptr @"_SM7__constG2-48", i32 0, i32 14, i32 1782459628 }
@"_SM7__constG2-50" = private unnamed_addr constant { ptr, i32, i32, [14 x i16] } { ptr @"_SM35scala.scalanative.runtime.CharArrayG4type", i32 14, i32 2, [14 x i16] [ i16 115, i16 99, i16 97, i16 108, i16 97, i16 46, i16 80, i16 114, i16 111, i16 100, i16 117, i16 99, i16 116, i16 52 ] }
@"_SM7__constG2-51" = private unnamed_addr constant { ptr, ptr, i32, i32, i32 } { ptr @"_SM16java.lang.StringG4type", ptr @"_SM7__constG2-50", i32 0, i32 14, i32 1782459629 }
@"_SM7__constG2-52" = private unnamed_addr constant { ptr, i32, i32, [12 x i16] } { ptr @"_SM35scala.scalanative.runtime.CharArrayG4type", i32 12, i32 2, [12 x i16] [ i16 115, i16 99, i16 97, i16 108, i16 97, i16 46, i16 83, i16 104, i16 111, i16 114, i16 116, i16 36 ] }
@"_SM7__constG2-53" = private unnamed_addr constant { ptr, ptr, i32, i32, i32 } { ptr @"_SM16java.lang.StringG4type", ptr @"_SM7__constG2-52", i32 0, i32 12, i32 -1758349072 }
@"_SM7__constG2-54" = private unnamed_addr constant { ptr, i32, i32, [10 x i16] } { ptr @"_SM35scala.scalanative.runtime.CharArrayG4type", i32 10, i32 2, [10 x i16] [ i16 115, i16 99, i16 97, i16 108, i16 97, i16 46, i16 83, i16 111, i16 109, i16 101 ] }
@"_SM7__constG2-55" = private unnamed_addr constant { ptr, ptr, i32, i32, i32 } { ptr @"_SM16java.lang.StringG4type", ptr @"_SM7__constG2-54", i32 0, i32 10, i32 1763538108 }
@"_SM7__constG2-56" = private unnamed_addr constant [2 x i32] [ i32 8, i32 -1 ]
@"_SM7__constG2-57" = private unnamed_addr constant { ptr, i32, i32, [11 x i16] } { ptr @"_SM35scala.scalanative.runtime.CharArrayG4type", i32 11, i32 2, [11 x i16] [ i16 115, i16 99, i16 97, i16 108, i16 97, i16 46, i16 83, i16 111, i16 109, i16 101, i16 36 ] }
@"_SM7__constG2-58" = private unnamed_addr constant { ptr, ptr, i32, i32, i32 } { ptr @"_SM16java.lang.StringG4type", ptr @"_SM7__constG2-57", i32 0, i32 11, i32 -1164893464 }
@"_SM7__constG2-59" = private unnamed_addr constant { ptr, i32, i32, [19 x i16] } { ptr @"_SM35scala.scalanative.runtime.CharArrayG4type", i32 19, i32 2, [19 x i16] [ i16 115, i16 99, i16 97, i16 108, i16 97, i16 46, i16 83, i16 112, i16 101, i16 99, i16 105, i16 97, i16 108, i16 105, i16 122, i16 97, i16 98, i16 108, i16 101 ] }
@"_SM7__constG2-60" = private unnamed_addr constant { ptr, ptr, i32, i32, i32 } { ptr @"_SM16java.lang.StringG4type", ptr @"_SM7__constG2-59", i32 0, i32 19, i32 -465341124 }
@"_SM7__constG2-61" = private unnamed_addr constant { ptr, i32, i32, [12 x i16] } { ptr @"_SM35scala.scalanative.runtime.CharArrayG4type", i32 12, i32 2, [12 x i16] [ i16 115, i16 99, i16 97, i16 108, i16 97, i16 46, i16 84, i16 117, i16 112, i16 108, i16 101, i16 50 ] }
@"_SM7__constG2-62" = private unnamed_addr constant { ptr, ptr, i32, i32, i32 } { ptr @"_SM16java.lang.StringG4type", ptr @"_SM7__constG2-61", i32 0, i32 12, i32 -1717690574 }
@"_SM7__constG2-63" = private unnamed_addr constant [3 x i32] [ i32 8, i32 16, i32 -1 ]
@"_SM7__constG2-64" = private unnamed_addr constant { ptr, i32, i32, [13 x i16] } { ptr @"_SM35scala.scalanative.runtime.CharArrayG4type", i32 13, i32 2, [13 x i16] [ i16 115, i16 99, i16 97, i16 108, i16 97, i16 46, i16 84, i16 117, i16 112, i16 108, i16 101, i16 50, i16 36 ] }
@"_SM7__constG2-65" = private unnamed_addr constant { ptr, ptr, i32, i32, i32 } { ptr @"_SM16java.lang.StringG4type", ptr @"_SM7__constG2-64", i32 0, i32 13, i32 -1708800206 }
@"_SM7__constG2-66" = private unnamed_addr constant { ptr, i32, i32, [12 x i16] } { ptr @"_SM35scala.scalanative.runtime.CharArrayG4type", i32 12, i32 2, [12 x i16] [ i16 115, i16 99, i16 97, i16 108, i16 97, i16 46, i16 84, i16 117, i16 112, i16 108, i16 101, i16 51 ] }
@"_SM7__constG2-67" = private unnamed_addr constant { ptr, ptr, i32, i32, i32 } { ptr @"_SM16java.lang.StringG4type", ptr @"_SM7__constG2-66", i32 0, i32 12, i32 -1717690573 }
@"_SM7__constG2-68" = private unnamed_addr constant { ptr, i32, i32, [13 x i16] } { ptr @"_SM35scala.scalanative.runtime.CharArrayG4type", i32 13, i32 2, [13 x i16] [ i16 115, i16 99, i16 97, i16 108, i16 97, i16 46, i16 84, i16 117, i16 112, i16 108, i16 101, i16 51, i16 36 ] }
@"_SM7__constG2-69" = private unnamed_addr constant { ptr, ptr, i32, i32, i32 } { ptr @"_SM16java.lang.StringG4type", ptr @"_SM7__constG2-68", i32 0, i32 13, i32 -1708800175 }
@"_SM7__constG2-70" = private unnamed_addr constant { ptr, i32, i32, [12 x i16] } { ptr @"_SM35scala.scalanative.runtime.CharArrayG4type", i32 12, i32 2, [12 x i16] [ i16 115, i16 99, i16 97, i16 108, i16 97, i16 46, i16 84, i16 117, i16 112, i16 108, i16 101, i16 52 ] }
@"_SM7__constG2-71" = private unnamed_addr constant { ptr, ptr, i32, i32, i32 } { ptr @"_SM16java.lang.StringG4type", ptr @"_SM7__constG2-70", i32 0, i32 12, i32 -1717690572 }
@"_SM7__constG2-72" = private unnamed_addr constant [5 x i32] [ i32 8, i32 16, i32 24, i32 32, i32 -1 ]
@"_SM7__constG2-73" = private unnamed_addr constant { ptr, i32, i32, [13 x i16] } { ptr @"_SM35scala.scalanative.runtime.CharArrayG4type", i32 13, i32 2, [13 x i16] [ i16 115, i16 99, i16 97, i16 108, i16 97, i16 46, i16 84, i16 117, i16 112, i16 108, i16 101, i16 52, i16 36 ] }
@"_SM7__constG2-74" = private unnamed_addr constant { ptr, ptr, i32, i32, i32 } { ptr @"_SM16java.lang.StringG4type", ptr @"_SM7__constG2-73", i32 0, i32 13, i32 -1708800144 }
@"_SM7__constG2-75" = private unnamed_addr constant { ptr, i32, i32, [14 x i16] } { ptr @"_SM35scala.scalanative.runtime.CharArrayG4type", i32 14, i32 2, [14 x i16] [ i16 115, i16 99, i16 97, i16 108, i16 97, i16 46, i16 112, i16 97, i16 99, i16 107, i16 97, i16 103, i16 101, i16 36 ] }
@"_SM7__constG2-76" = private unnamed_addr constant { ptr, ptr, i32, i32, i32 } { ptr @"_SM16java.lang.StringG4type", ptr @"_SM7__constG2-75", i32 0, i32 14, i32 -822522810 }
@"_SM7__constG2-77" = private unnamed_addr constant { ptr, i32, i32, [17 x i16] } { ptr @"_SM35scala.scalanative.runtime.CharArrayG4type", i32 17, i32 2, [17 x i16] [ i16 111, i16 98, i16 106, i16 101, i16 99, i16 116, i16 32, i16 115, i16 99, i16 97, i16 108, i16 97, i16 46, i16 66, i16 121, i16 116, i16 101 ] }
@"_SM7__constG2-78" = private unnamed_addr constant { ptr, ptr, i32, i32, i32 } { ptr @"_SM16java.lang.StringG4type", ptr @"_SM7__constG2-77", i32 0, i32 17, i32 1672439889 }
@"_SM7__constG2-79" = private unnamed_addr constant { ptr, i32, i32, [17 x i16] } { ptr @"_SM35scala.scalanative.runtime.CharArrayG4type", i32 17, i32 2, [17 x i16] [ i16 111, i16 98, i16 106, i16 101, i16 99, i16 116, i16 32, i16 115, i16 99, i16 97, i16 108, i16 97, i16 46, i16 67, i16 104, i16 97, i16 114 ] }
@"_SM7__constG2-80" = private unnamed_addr constant { ptr, ptr, i32, i32, i32 } { ptr @"_SM16java.lang.StringG4type", ptr @"_SM7__constG2-79", i32 0, i32 17, i32 1672452767 }
@"_SM7__constG2-81" = private unnamed_addr constant { ptr, i32, i32, [4 x i16] } { ptr @"_SM35scala.scalanative.runtime.CharArrayG4type", i32 4, i32 2, [4 x i16] [ i16 110, i16 117, i16 108, i16 108 ] }
@"_SM7__constG2-82" = private unnamed_addr constant { ptr, ptr, i32, i32, i32 } { ptr @"_SM16java.lang.StringG4type", ptr @"_SM7__constG2-81", i32 0, i32 4, i32 3392903 }
@"_SM7__constG2-83" = private unnamed_addr constant { ptr, i32, i32, [11 x i16] } { ptr @"_SM35scala.scalanative.runtime.CharArrayG4type", i32 11, i32 2, [11 x i16] [ i16 60, i16 102, i16 117, i16 110, i16 99, i16 116, i16 105, i16 111, i16 110, i16 49, i16 62 ] }
@"_SM7__constG2-84" = private unnamed_addr constant { ptr, ptr, i32, i32, i32 } { ptr @"_SM16java.lang.StringG4type", ptr @"_SM7__constG2-83", i32 0, i32 11, i32 -505689791 }
@"_SM7__constG2-85" = private unnamed_addr constant { ptr, i32, i32, [11 x i16] } { ptr @"_SM35scala.scalanative.runtime.CharArrayG4type", i32 11, i32 2, [11 x i16] [ i16 60, i16 102, i16 117, i16 110, i16 99, i16 116, i16 105, i16 111, i16 110, i16 50, i16 62 ] }
@"_SM7__constG2-86" = private unnamed_addr constant { ptr, ptr, i32, i32, i32 } { ptr @"_SM16java.lang.StringG4type", ptr @"_SM7__constG2-85", i32 0, i32 11, i32 -505689760 }
@"_SM7__constG2-87" = private unnamed_addr constant { ptr, i32, i32, [16 x i16] } { ptr @"_SM35scala.scalanative.runtime.CharArrayG4type", i32 16, i32 2, [16 x i16] [ i16 111, i16 98, i16 106, i16 101, i16 99, i16 116, i16 32, i16 115, i16 99, i16 97, i16 108, i16 97, i16 46, i16 73, i16 110, i16 116 ] }
@"_SM7__constG2-88" = private unnamed_addr constant { ptr, ptr, i32, i32, i32 } { ptr @"_SM16java.lang.StringG4type", ptr @"_SM7__constG2-87", i32 0, i32 16, i32 1577976710 }
@"_SM7__constG2-89" = private unnamed_addr constant { ptr, i32, i32, [2 x i16] } { ptr @"_SM35scala.scalanative.runtime.CharArrayG4type", i32 2, i32 2, [2 x i16] [ i16 32, i16 40 ] }
@"_SM7__constG2-90" = private unnamed_addr constant { ptr, ptr, i32, i32, i32 } { ptr @"_SM16java.lang.StringG4type", ptr @"_SM7__constG2-89", i32 0, i32 2, i32 1032 }
@"_SM7__constG2-91" = private unnamed_addr constant { ptr, i32, i32, [1 x i16] } { ptr @"_SM35scala.scalanative.runtime.CharArrayG4type", i32 1, i32 2, [1 x i16] [ i16 41 ] }
@"_SM7__constG2-92" = private unnamed_addr constant { ptr, ptr, i32, i32, i32 } { ptr @"_SM16java.lang.StringG4type", ptr @"_SM7__constG2-91", i32 0, i32 1, i32 41 }
@"_SM7__constG2-93" = private unnamed_addr constant { ptr, i32, i32, [12 x i16] } { ptr @"_SM35scala.scalanative.runtime.CharArrayG4type", i32 12, i32 2, [12 x i16] [ i16 97, i16 110, i16 32, i16 105, i16 110, i16 115, i16 116, i16 97, i16 110, i16 99, i16 101, i16 32 ] }
@"_SM7__constG2-94" = private unnamed_addr constant { ptr, ptr, i32, i32, i32 } { ptr @"_SM16java.lang.StringG4type", ptr @"_SM7__constG2-93", i32 0, i32 12, i32 1870567928 }
@"_SM7__constG2-95" = private unnamed_addr constant { ptr, i32, i32, [9 x i16] } { ptr @"_SM35scala.scalanative.runtime.CharArrayG4type", i32 9, i32 2, [9 x i16] [ i16 111, i16 102, i16 32, i16 99, i16 108, i16 97, i16 115, i16 115, i16 32 ] }
@"_SM7__constG2-96" = private unnamed_addr constant { ptr, ptr, i32, i32, i32 } { ptr @"_SM16java.lang.StringG4type", ptr @"_SM7__constG2-95", i32 0, i32 9, i32 -113577967 }
@"_SM7__constG2-97" = private unnamed_addr constant { ptr, i32, i32, [4 x i16] } { ptr @"_SM35scala.scalanative.runtime.CharArrayG4type", i32 4, i32 2, [4 x i16] [ i16 78, i16 111, i16 110, i16 101 ] }
@"_SM7__constG2-98" = private unnamed_addr constant { ptr, ptr, i32, i32, i32 } { ptr @"_SM16java.lang.StringG4type", ptr @"_SM7__constG2-97", i32 0, i32 4, i32 2433880 }
@"_SM7__constG2-99" = private unnamed_addr constant { ptr, i32, i32, [8 x i16] } { ptr @"_SM35scala.scalanative.runtime.CharArrayG4type", i32 8, i32 2, [8 x i16] [ i16 78, i16 111, i16 110, i16 101, i16 46, i16 103, i16 101, i16 116 ] }
@"_SM7__constG3-100" = private unnamed_addr constant { ptr, ptr, i32, i32, i32 } { ptr @"_SM16java.lang.StringG4type", ptr @"_SM7__constG2-99", i32 0, i32 8, i32 1472868288 }
@"_SM7__constG3-101" = private unnamed_addr constant { ptr, i32, i32, [28 x i16] } { ptr @"_SM35scala.scalanative.runtime.CharArrayG4type", i32 28, i32 2, [28 x i16] [ i16 97, i16 110, i16 32, i16 105, i16 109, i16 112, i16 108, i16 101, i16 109, i16 101, i16 110, i16 116, i16 97, i16 116, i16 105, i16 111, i16 110, i16 32, i16 105, i16 115, i16 32, i16 109, i16 105, i16 115, i16 115, i16 105, i16 110, i16 103 ] }
@"_SM7__constG3-102" = private unnamed_addr constant { ptr, ptr, i32, i32, i32 } { ptr @"_SM16java.lang.StringG4type", ptr @"_SM7__constG3-101", i32 0, i32 28, i32 -938374293 }
@"_SM7__constG3-103" = private unnamed_addr constant { ptr, i32, i32, [32 x i16] } { ptr @"_SM35scala.scalanative.runtime.CharArrayG4type", i32 32, i32 2, [32 x i16] [ i16 32, i16 105, i16 115, i16 32, i16 111, i16 117, i16 116, i16 32, i16 111, i16 102, i16 32, i16 98, i16 111, i16 117, i16 110, i16 100, i16 115, i16 32, i16 40, i16 109, i16 105, i16 110, i16 32, i16 48, i16 44, i16 32, i16 109, i16 97, i16 120, i16 32, i16 49, i16 41 ] }
@"_SM7__constG3-104" = private unnamed_addr constant { ptr, ptr, i32, i32, i32 } { ptr @"_SM16java.lang.StringG4type", ptr @"_SM7__constG3-103", i32 0, i32 32, i32 10411116 }
@"_SM7__constG3-105" = private unnamed_addr constant { ptr, i32, i32, [32 x i16] } { ptr @"_SM35scala.scalanative.runtime.CharArrayG4type", i32 32, i32 2, [32 x i16] [ i16 32, i16 105, i16 115, i16 32, i16 111, i16 117, i16 116, i16 32, i16 111, i16 102, i16 32, i16 98, i16 111, i16 117, i16 110, i16 100, i16 115, i16 32, i16 40, i16 109, i16 105, i16 110, i16 32, i16 48, i16 44, i16 32, i16 109, i16 97, i16 120, i16 32, i16 50, i16 41 ] }
@"_SM7__constG3-106" = private unnamed_addr constant { ptr, ptr, i32, i32, i32 } { ptr @"_SM16java.lang.StringG4type", ptr @"_SM7__constG3-105", i32 0, i32 32, i32 10411147 }
@"_SM7__constG3-107" = private unnamed_addr constant { ptr, i32, i32, [32 x i16] } { ptr @"_SM35scala.scalanative.runtime.CharArrayG4type", i32 32, i32 2, [32 x i16] [ i16 32, i16 105, i16 115, i16 32, i16 111, i16 117, i16 116, i16 32, i16 111, i16 102, i16 32, i16 98, i16 111, i16 117, i16 110, i16 100, i16 115, i16 32, i16 40, i16 109, i16 105, i16 110, i16 32, i16 48, i16 44, i16 32, i16 109, i16 97, i16 120, i16 32, i16 51, i16 41 ] }
@"_SM7__constG3-108" = private unnamed_addr constant { ptr, ptr, i32, i32, i32 } { ptr @"_SM16java.lang.StringG4type", ptr @"_SM7__constG3-107", i32 0, i32 32, i32 10411178 }
@"_SM7__constG3-109" = private unnamed_addr constant { ptr, i32, i32, [18 x i16] } { ptr @"_SM35scala.scalanative.runtime.CharArrayG4type", i32 18, i32 2, [18 x i16] [ i16 111, i16 98, i16 106, i16 101, i16 99, i16 116, i16 32, i16 115, i16 99, i16 97, i16 108, i16 97, i16 46, i16 83, i16 104, i16 111, i16 114, i16 116 ] }
@"_SM7__constG3-110" = private unnamed_addr constant { ptr, ptr, i32, i32, i32 } { ptr @"_SM16java.lang.StringG4type", ptr @"_SM7__constG3-109", i32 0, i32 18, i32 321218131 }
@"_SM7__constG3-111" = private unnamed_addr constant { ptr, i32, i32, [4 x i16] } { ptr @"_SM35scala.scalanative.runtime.CharArrayG4type", i32 4, i32 2, [4 x i16] [ i16 83, i16 111, i16 109, i16 101 ] }
@"_SM7__constG3-112" = private unnamed_addr constant { ptr, ptr, i32, i32, i32 } { ptr @"_SM16java.lang.StringG4type", ptr @"_SM7__constG3-111", i32 0, i32 4, i32 2582804 }
@"_SM7__constG3-113" = private unnamed_addr constant { ptr, i32, i32, [6 x i16] } { ptr @"_SM35scala.scalanative.runtime.CharArrayG4type", i32 6, i32 2, [6 x i16] [ i16 84, i16 117, i16 112, i16 108, i16 101, i16 50 ] }
@"_SM7__constG3-114" = private unnamed_addr constant { ptr, ptr, i32, i32, i32 } { ptr @"_SM16java.lang.StringG4type", ptr @"_SM7__constG3-113", i32 0, i32 6, i32 -1778623094 }
@"_SM7__constG3-115" = private unnamed_addr constant { ptr, i32, i32, [1 x i16] } { ptr @"_SM35scala.scalanative.runtime.CharArrayG4type", i32 1, i32 2, [1 x i16] [ i16 40 ] }
@"_SM7__constG3-116" = private unnamed_addr constant { ptr, ptr, i32, i32, i32 } { ptr @"_SM16java.lang.StringG4type", ptr @"_SM7__constG3-115", i32 0, i32 1, i32 40 }
@"_SM7__constG3-117" = private unnamed_addr constant { ptr, i32, i32, [1 x i16] } { ptr @"_SM35scala.scalanative.runtime.CharArrayG4type", i32 1, i32 2, [1 x i16] [ i16 44 ] }
@"_SM7__constG3-118" = private unnamed_addr constant { ptr, ptr, i32, i32, i32 } { ptr @"_SM16java.lang.StringG4type", ptr @"_SM7__constG3-117", i32 0, i32 1, i32 44 }
@"_SM7__constG3-119" = private unnamed_addr constant { ptr, i32, i32, [6 x i16] } { ptr @"_SM35scala.scalanative.runtime.CharArrayG4type", i32 6, i32 2, [6 x i16] [ i16 84, i16 117, i16 112, i16 108, i16 101, i16 51 ] }
@"_SM7__constG3-120" = private unnamed_addr constant { ptr, ptr, i32, i32, i32 } { ptr @"_SM16java.lang.StringG4type", ptr @"_SM7__constG3-119", i32 0, i32 6, i32 -1778623093 }
@"_SM7__constG3-121" = private unnamed_addr constant { ptr, i32, i32, [6 x i16] } { ptr @"_SM35scala.scalanative.runtime.CharArrayG4type", i32 6, i32 2, [6 x i16] [ i16 84, i16 117, i16 112, i16 108, i16 101, i16 52 ] }
@"_SM7__constG3-122" = private unnamed_addr constant { ptr, ptr, i32, i32, i32 } { ptr @"_SM16java.lang.StringG4type", ptr @"_SM7__constG3-121", i32 0, i32 6, i32 -1778623092 }
@"_SM36scala.scalanative.runtime.CharArray$G8instance" = external global { ptr }
@"_SM18java.util.Objects$G8instance" = external global { ptr }

declare dereferenceable_or_null(32) ptr @"_SM23java.lang.StringBuilderD8toStringL16java.lang.StringEO"(ptr)

declare nonnull dereferenceable(24) ptr @"_SM27scala.runtime.ScalaRunTime$D20typedProductIteratorL13scala.ProductL25scala.collection.IteratorEO"(ptr, ptr)

declare dereferenceable_or_null(8) ptr @"_SM16java.lang.SystemD2inL19java.io.InputStreamEo"() inlinehint
@"_SM22java.io.BufferedReaderG4type" = external global { { ptr, i32, i32, ptr }, i32, i32, ptr, [3 x ptr] }

declare dereferenceable_or_null(16) ptr @"_SM27scala.runtime.BoxesRunTime$D14boxToCharactercL19java.lang.CharacterEO"(ptr, i16) inlinehint

declare void @"_SM19java.io.PrintStreamD7printlnL16java.lang.ObjectuEO"(ptr, ptr)

declare dereferenceable_or_null(48) ptr @"_SM16java.lang.SystemD3outL19java.io.PrintStreamEo"() inlinehint

declare dereferenceable_or_null(8) ptr @"_SM21scala.runtime.StaticsD5ioobeiL16java.lang.ObjectEo"(i32) inlinehint

declare void @"_SM29scala.collection.IterableOnceD6$init$uEO"(ptr)
@"_SM25scala.collection.IterableG4type" = external global { ptr, i32, i32, ptr }

declare dereferenceable_or_null(8) ptr @"_SM18java.util.Objects$D14requireNonNullL16java.lang.ObjectL16java.lang.ObjectEO"(ptr, ptr) inlinehint

declare dereferenceable_or_null(56) ptr @"_SM31java.nio.charset.CharsetDecoderD16onMalformedInputL34java.nio.charset.CodingErrorActionL31java.nio.charset.CharsetDecoderEO"(ptr, ptr)

declare void @"_SM28scala.collection.mutable.SeqD6$init$uEO"(ptr)
@"_SM26scala.util.DynamicVariableG4type" = external global { { ptr, i32, i32, ptr }, i32, i32, ptr, [3 x ptr] }

declare dereferenceable_or_null(32) ptr @"_SM16java.lang.ObjectD8getClassL15java.lang.ClassEO"(ptr) inlinehint

declare void @"_SM27scala.collection.IndexedSeqD6$init$uEO"(ptr)

declare dereferenceable_or_null(32) ptr @"_SM15java.lang.ClassD7getNameL16java.lang.StringEO"(ptr)

declare ptr @"_SM34scala.scalanative.runtime.package$D16throwNullPointernEO"(ptr) noinline

declare dereferenceable_or_null(32) ptr @"_SM33scala.collection.AbstractIteratorD8toStringL16java.lang.StringEO"(ptr)
@"_SM24java.nio.charset.CharsetG4type" = external global { { ptr, i32, i32, ptr }, i32, i32, ptr, [3 x ptr] }

declare dereferenceable_or_null(16) ptr @"_SM26scala.collection.Iterator$G4load"() noinline

declare void @"_SM27scala.runtime.ScalaRunTime$D12array_updateL16java.lang.ObjectiL16java.lang.ObjectuEO"(ptr, ptr, i32, ptr) inlinehint

declare dereferenceable_or_null(24) ptr @"_SM23java.lang.StringBuilderD6appendL16java.lang.ObjectL23java.lang.StringBuilderEO"(ptr, ptr)

declare dereferenceable_or_null(16) ptr @"_SM27scala.runtime.BoxesRunTime$D11boxToDoubledL16java.lang.DoubleEO"(ptr, double) inlinehint

declare nonnull dereferenceable(56) ptr @"_SM17niocharset.UTF_8$D10newDecoderL31java.nio.charset.CharsetDecoderEO"(ptr)

declare void @"_SM38scala.collection.mutable.IndexedSeqOpsD6$init$uEO"(ptr)

declare dereferenceable_or_null(16) ptr @"_SM36scala.scalanative.runtime.CharArray$D5allociL35scala.scalanative.runtime.CharArrayEO"(ptr, i32) inlinehint

declare void @"_SM23scala.collection.SeqOpsD6$init$uEO"(ptr)

declare dereferenceable_or_null(16) ptr @"_SM27scala.runtime.BoxesRunTime$D12boxToBooleanzL17java.lang.BooleanEO"(ptr, i1) inlinehint

declare ptr @"_SM34scala.scalanative.runtime.package$D16throwOutOfBoundsiinEO"(ptr, i32, i32)
@"_SM35scala.scalanative.runtime.CharArrayG4type" = external global { { ptr, i32, i32, ptr }, i32, i32, ptr, [8 x ptr] }

declare void @"_SM19java.io.PrintStreamD5printL16java.lang.StringuEO"(ptr, ptr)

declare void @"_SM31scala.collection.mutable.SeqOpsD6$init$uEO"(ptr)

declare dereferenceable_or_null(8) ptr @"_SM33scala.collection.AbstractIteratorD7toArrayL22scala.reflect.ClassTagL16java.lang.ObjectEO"(ptr, ptr)

declare dereferenceable_or_null(24) ptr @"_SM23java.lang.StringBuilderD6appendiL23java.lang.StringBuilderEO"(ptr, i32)

declare void @"_SM33scala.scalanative.runtime.packageD12enterMonitorL16java.lang.ObjectuEo"(ptr) inlinehint

declare i1 @"_SM15java.lang.ClassD7isArrayzEO"(ptr)
@"_SM23java.lang.StringBuilderG4type" = external global { { ptr, i32, i32, ptr }, i32, i32, ptr, [3 x ptr] }

declare dereferenceable_or_null(40) ptr @"_SM19java.lang.ThrowableD16fillInStackTraceL19java.lang.ThrowableEO"(ptr)

declare dereferenceable_or_null(32) ptr @"_SM35java.nio.charset.CodingErrorAction$G4load"() noinline

declare nonnull dereferenceable(16) ptr @"_SM38scala.collection.mutable.ArrayBuilder$D4makeL22scala.reflect.ClassTagL37scala.collection.mutable.ArrayBuilderEO"(ptr, ptr) inlinehint

declare void @"_SM43scala.collection.StrictOptimizedIterableOpsD6$init$uEO"(ptr)

declare dereferenceable_or_null(8) ptr @"_SM26scala.collection.Iterator$D5emptyL25scala.collection.IteratorEO"(ptr) inlinehint

declare dereferenceable_or_null(32) ptr @"_SM27scala.runtime.ScalaRunTime$D9_toStringL13scala.ProductL16java.lang.StringEO"(ptr, ptr)

declare dereferenceable_or_null(16) ptr @"_SM27scala.runtime.BoxesRunTime$D9boxToBytebL14java.lang.ByteEO"(ptr, i8) inlinehint

declare void @"_SM38scala.collection.StrictOptimizedSeqOpsD6$init$uEO"(ptr)
@"_SM39scala.collection.mutable.ArraySeq$ofIntG4type" = external global { { ptr, i32, i32, ptr }, i32, i32, ptr, [5 x ptr] }

declare void @"_SM21java.lang.ThreadLocalRE"(ptr)
@"_SM32java.util.NoSuchElementExceptionG4type" = external global { { ptr, i32, i32, ptr }, i32, i32, ptr, [4 x ptr] }

declare dereferenceable_or_null(8) ptr @"_SM27scala.runtime.ScalaRunTime$D11array_applyL16java.lang.ObjectiL16java.lang.ObjectEO"(ptr, ptr, i32) inlinehint

declare i1 @"_SM16java.lang.ObjectD6equalsL16java.lang.ObjectzEO"(ptr, ptr) inlinehint

declare void @"_SM32scala.collection.IterableOnceOpsD6$init$uEO"(ptr)
@"_SM25java.nio.charset.Charset$G8instance" = external global { ptr }
@"_SM16java.lang.StringG4type" = external global { { ptr, i32, i32, ptr }, i32, i32, ptr, [3 x ptr] }

declare dereferenceable_or_null(24) ptr @"_SM23java.lang.StringBuilderD6appendL16java.lang.StringL23java.lang.StringBuilderEO"(ptr, ptr)
@"_SM35java.lang.IndexOutOfBoundsExceptionG4type" = external global { { ptr, i32, i32, ptr }, i32, i32, ptr, [4 x ptr] }

declare void @"_SM34scala.collection.mutable.CloneableD6$init$uEO"(ptr)

declare void @"_SM40scala.collection.IterableFactoryDefaultsD6$init$uEO"(ptr)
@"_SM19java.io.PrintStreamG4type" = external global { { ptr, i32, i32, ptr }, i32, i32, ptr, [5 x ptr] }

declare void @"_SM25scala.collection.IterableD6$init$uEO"(ptr)

declare i32 @"_SM16java.lang.ObjectD8hashCodeiEO"(ptr) inlinehint

declare nonnull dereferenceable(24) ptr @"_SM26scala.collection.Iterator$D6singleL16java.lang.ObjectL25scala.collection.IteratorEO"(ptr, ptr)

declare dereferenceable_or_null(8) ptr @"_SM26scala.util.DynamicVariableD5valueL16java.lang.ObjectEO"(ptr)

declare dereferenceable_or_null(32) ptr @"_SM19java.lang.ThrowableD8toStringL16java.lang.StringEO"(ptr)

declare void @"_SM25scala.collection.IteratorD6$init$uEO"(ptr)

declare ptr @"_SM34scala.scalanative.runtime.package$D14throwClassCastR_R_nEO"(ptr, ptr, ptr) noinline

declare dereferenceable_or_null(56) ptr @"_SM20java.nio.ByteBuffer$D8allocateiL19java.nio.ByteBufferEO"(ptr, i32)

declare void @"_SM18scala.io.AnsiColorD6$init$uEO"(ptr)

declare dereferenceable_or_null(40) ptr @"_SM25java.nio.charset.Charset$D14defaultCharsetL24java.nio.charset.CharsetEO"(ptr)

declare ptr @"scalanative_throw"(ptr)

declare void @"_SM20scala.collection.SeqD6$init$uEO"(ptr)
@"_SM38scala.collection.mutable.ArrayBuilder$G8instance" = external global { ptr }
@"__modules" = external global [229 x ptr]

declare i1 @"_SM27scala.runtime.BoxesRunTime$D14unboxToBooleanL16java.lang.ObjectzEO"(ptr, ptr) inlinehint

declare i32 @"_SM27scala.runtime.BoxesRunTime$D10unboxToIntL16java.lang.ObjectiEO"(ptr, ptr) inlinehint

declare dereferenceable_or_null(48) ptr @"_SM16java.lang.SystemD3errL19java.io.PrintStreamEo"() inlinehint

declare void @"_SM33scala.collection.mutable.IterableD6$init$uEO"(ptr)

declare dereferenceable_or_null(56) ptr @"_SM19java.nio.ByteBufferD5limitiL19java.nio.ByteBufferEO"(ptr, i32) inlinehint

declare void @"_SM16java.lang.SystemD9arraycopyL16java.lang.ObjectiL16java.lang.ObjectiiuEo"(ptr, i32, ptr, i32, i32) inlinehint

declare dereferenceable_or_null(16) ptr @"_SM31scala.collection.immutable.Nil$G4load"() noinline

declare i1 @"_SM26scala.runtime.BoxesRunTimeD6equalsL16java.lang.ObjectL16java.lang.ObjectzEo"(ptr, ptr) inlinehint

declare dereferenceable_or_null(16) ptr @"_SM27scala.runtime.BoxesRunTime$D10boxToFloatfL15java.lang.FloatEO"(ptr, float) inlinehint
@"_SM15java.lang.ClassG4type" = external global { { ptr, i32, i32, ptr }, i32, i32, ptr, [3 x ptr] }
@"_SM27scala.runtime.ScalaRunTime$G8instance" = external global { ptr }
@"_SM20java.nio.ByteBuffer$G8instance" = external global { ptr }

declare dereferenceable_or_null(16) ptr @"_SM27scala.runtime.BoxesRunTime$D12boxToIntegeriL17java.lang.IntegerEO"(ptr, i32) inlinehint

declare void @"_SM28scala.collection.IterableOpsD6$init$uEO"(ptr)

declare i1 @"_SM15java.lang.ClassD16isAssignableFromL15java.lang.ClasszEO"(ptr, ptr)

declare void @"_SM30scala.collection.IndexedSeqOpsD6$init$uEO"(ptr)

declare i32 @"_SM27scala.runtime.ScalaRunTime$D9_hashCodeL13scala.ProductiEO"(ptr, ptr)

declare void @"_SM33scala.scalanative.runtime.packageD11exitMonitorL16java.lang.ObjectuEo"(ptr) inlinehint

declare dereferenceable_or_null(32) ptr @"_SM19java.lang.ThrowableD10getMessageL16java.lang.StringEO"(ptr)

declare dereferenceable_or_null(32) ptr @"_SM16java.lang.ObjectD8toStringL16java.lang.StringEO"(ptr) inlinehint

declare i1 @"__check_class_has_trait"(i32, i32) alwaysinline

declare void @"_SM23java.lang.StringBuilderRiE"(ptr, i32)

declare dereferenceable_or_null(56) ptr @"_SM31java.nio.charset.CharsetDecoderD21onUnmappableCharacterL34java.nio.charset.CodingErrorActionL31java.nio.charset.CharsetDecoderEO"(ptr, ptr)
@"_SM34scala.util.DynamicVariable$$anon$1G4type" = external global { { ptr, i32, i32, ptr }, i32, i32, ptr, [6 x ptr] }

declare dereferenceable_or_null(16) ptr @"_SM26java.io.InputStreamReader$G4load"() noinline
@"_SM25java.io.InputStreamReaderG4type" = external global { { ptr, i32, i32, ptr }, i32, i32, ptr, [3 x ptr] }

declare ptr @"_SM34scala.scalanative.runtime.package$D14throwUndefinednEO"(ptr) noinline
@"_SM22__scalanative_metadataG14dispatch_table" = external constant [5560 x ptr]

declare ptr @"scalanative_GC_alloc_small"(ptr, i64)

declare void @"_SM35scala.collection.mutable.IndexedSeqD6$init$uEO"(ptr)
@"_SM21scala.AnyValCompanionG4type" = hidden global { ptr, i32, i32, ptr } { ptr @"_SM15java.lang.ClassG4type", i32 -29, i32 -1, ptr @"_SM7__constG1-1" }
@"_SM12scala.Array$G4type" = hidden global { { ptr, i32, i32, ptr }, i32, i32, ptr, [3 x ptr] } { { ptr, i32, i32, ptr } { ptr @"_SM15java.lang.ClassG4type", i32 264, i32 -1, ptr @"_SM7__constG1-3" }, i32 8, i32 264, ptr @"_SM7__constG1-4", [3 x ptr] [ ptr @"_SM16java.lang.ObjectD8hashCodeiEO", ptr @"_SM16java.lang.ObjectD8toStringL16java.lang.StringEO", ptr @"_SM16java.lang.ObjectD6equalsL16java.lang.ObjectzEO" ] }
@"_SM12scala.Array$G8instance" = hidden global { ptr } { ptr @"_SM12scala.Array$G4type" }
@"_SM11scala.Byte$G4type" = hidden global { { ptr, i32, i32, ptr }, i32, i32, ptr, [3 x ptr] } { { ptr, i32, i32, ptr } { ptr @"_SM15java.lang.ClassG4type", i32 520, i32 -1, ptr @"_SM7__constG1-6" }, i32 8, i32 520, ptr @"_SM7__constG1-4", [3 x ptr] [ ptr @"_SM16java.lang.ObjectD8hashCodeiEO", ptr @"_SM11scala.Byte$D8toStringL16java.lang.StringEO", ptr @"_SM16java.lang.ObjectD6equalsL16java.lang.ObjectzEO" ] }
@"_SM11scala.Byte$G8instance" = hidden global { ptr } { ptr @"_SM11scala.Byte$G4type" }
@"_SM11scala.Char$G4type" = hidden global { { ptr, i32, i32, ptr }, i32, i32, ptr, [3 x ptr] } { { ptr, i32, i32, ptr } { ptr @"_SM15java.lang.ClassG4type", i32 146, i32 -1, ptr @"_SM7__constG1-8" }, i32 8, i32 146, ptr @"_SM7__constG1-4", [3 x ptr] [ ptr @"_SM16java.lang.ObjectD8hashCodeiEO", ptr @"_SM11scala.Char$D8toStringL16java.lang.StringEO", ptr @"_SM16java.lang.ObjectD6equalsL16java.lang.ObjectzEO" ] }
@"_SM11scala.Char$G8instance" = hidden global { ptr } { ptr @"_SM11scala.Char$G4type" }
@"_SM14scala.Console$G4type" = hidden global { { ptr, i32, i32, ptr }, i32, i32, ptr, [3 x ptr] } { { ptr, i32, i32, ptr } { ptr @"_SM15java.lang.ClassG4type", i32 476, i32 -1, ptr @"_SM7__constG2-10" }, i32 32, i32 476, ptr @"_SM7__constG2-11", [3 x ptr] [ ptr @"_SM16java.lang.ObjectD8hashCodeiEO", ptr @"_SM16java.lang.ObjectD8toStringL16java.lang.StringEO", ptr @"_SM16java.lang.ObjectD6equalsL16java.lang.ObjectzEO" ] }
@"_SM12scala.EqualsG4type" = hidden global { ptr, i32, i32, ptr } { ptr @"_SM15java.lang.ClassG4type", i32 -1, i32 -1, ptr @"_SM7__constG2-13" }
@"_SM15scala.Function0G4type" = hidden global { ptr, i32, i32, ptr } { ptr @"_SM15java.lang.ClassG4type", i32 -8, i32 -1, ptr @"_SM7__constG2-15" }
@"_SM15scala.Function1G4type" = hidden global { ptr, i32, i32, ptr } { ptr @"_SM15java.lang.ClassG4type", i32 -9, i32 -1, ptr @"_SM7__constG2-17" }
@"_SM15scala.Function2G4type" = hidden global { ptr, i32, i32, ptr } { ptr @"_SM15java.lang.ClassG4type", i32 -10, i32 -1, ptr @"_SM7__constG2-19" }
@"_SM10scala.Int$G4type" = hidden global { { ptr, i32, i32, ptr }, i32, i32, ptr, [3 x ptr] } { { ptr, i32, i32, ptr } { ptr @"_SM15java.lang.ClassG4type", i32 278, i32 -1, ptr @"_SM7__constG2-21" }, i32 8, i32 278, ptr @"_SM7__constG1-4", [3 x ptr] [ ptr @"_SM16java.lang.ObjectD8hashCodeiEO", ptr @"_SM10scala.Int$D8toStringL16java.lang.StringEO", ptr @"_SM16java.lang.ObjectD6equalsL16java.lang.ObjectzEO" ] }
@"_SM10scala.Int$G8instance" = hidden global { ptr } { ptr @"_SM10scala.Int$G4type" }
@"_SM26scala.LowPriorityImplicitsG4type" = hidden global { { ptr, i32, i32, ptr }, i32, i32, ptr, [3 x ptr] } { { ptr, i32, i32, ptr } { ptr @"_SM15java.lang.ClassG4type", i32 551, i32 -1, ptr @"_SM7__constG2-23" }, i32 8, i32 552, ptr @"_SM7__constG1-4", [3 x ptr] [ ptr @"_SM16java.lang.ObjectD8hashCodeiEO", ptr @"_SM16java.lang.ObjectD8toStringL16java.lang.StringEO", ptr @"_SM16java.lang.ObjectD6equalsL16java.lang.ObjectzEO" ] }
@"_SM27scala.LowPriorityImplicits2G4type" = hidden global { { ptr, i32, i32, ptr }, i32, i32, ptr, [3 x ptr] } { { ptr, i32, i32, ptr } { ptr @"_SM15java.lang.ClassG4type", i32 550, i32 -1, ptr @"_SM7__constG2-25" }, i32 8, i32 552, ptr @"_SM7__constG1-4", [3 x ptr] [ ptr @"_SM16java.lang.ObjectD8hashCodeiEO", ptr @"_SM16java.lang.ObjectD8toStringL16java.lang.StringEO", ptr @"_SM16java.lang.ObjectD6equalsL16java.lang.ObjectzEO" ] }
@"_SM16scala.MatchErrorG4type" = hidden global { { ptr, i32, i32, ptr }, i32, i32, ptr, [4 x ptr] } { { ptr, i32, i32, ptr } { ptr @"_SM15java.lang.ClassG4type", i32 445, i32 -1, ptr @"_SM7__constG2-27" }, i32 64, i32 445, ptr @"_SM7__constG2-28", [4 x ptr] [ ptr @"_SM16java.lang.ObjectD8hashCodeiEO", ptr @"_SM19java.lang.ThrowableD8toStringL16java.lang.StringEO", ptr @"_SM16java.lang.ObjectD6equalsL16java.lang.ObjectzEO", ptr @"_SM16scala.MatchErrorD10getMessageL16java.lang.StringEO" ] }
@"_SM11scala.None$G4type" = hidden global { { ptr, i32, i32, ptr }, i32, i32, ptr, [4 x ptr] } { { ptr, i32, i32, ptr } { ptr @"_SM15java.lang.ClassG4type", i32 215, i32 50, ptr @"_SM7__constG2-30" }, i32 8, i32 215, ptr @"_SM7__constG1-4", [4 x ptr] [ ptr @"_SM11scala.None$D8hashCodeiEO", ptr @"_SM11scala.None$D8toStringL16java.lang.StringEO", ptr @"_SM16java.lang.ObjectD6equalsL16java.lang.ObjectzEO", ptr @"_SM11scala.None$D3getL16java.lang.ObjectEO" ] }
@"_SM25scala.NotImplementedErrorG4type" = hidden global { { ptr, i32, i32, ptr }, i32, i32, ptr, [4 x ptr] } { { ptr, i32, i32, ptr } { ptr @"_SM15java.lang.ClassG4type", i32 471, i32 -1, ptr @"_SM7__constG2-32" }, i32 40, i32 471, ptr @"_SM7__constG2-11", [4 x ptr] [ ptr @"_SM16java.lang.ObjectD8hashCodeiEO", ptr @"_SM19java.lang.ThrowableD8toStringL16java.lang.StringEO", ptr @"_SM16java.lang.ObjectD6equalsL16java.lang.ObjectzEO", ptr @"_SM19java.lang.ThrowableD10getMessageL16java.lang.StringEO" ] }
@"_SM12scala.OptionG4type" = hidden global { { ptr, i32, i32, ptr }, i32, i32, ptr, [4 x ptr] } { { ptr, i32, i32, ptr } { ptr @"_SM15java.lang.ClassG4type", i32 214, i32 -1, ptr @"_SM7__constG2-34" }, i32 8, i32 216, ptr @"_SM7__constG1-4", [4 x ptr] [ ptr @"_SM16java.lang.ObjectD8hashCodeiEO", ptr @"_SM16java.lang.ObjectD8toStringL16java.lang.StringEO", ptr @"_SM16java.lang.ObjectD6equalsL16java.lang.ObjectzEO", ptr null ] }
@"_SM13scala.Option$G4type" = hidden global { { ptr, i32, i32, ptr }, i32, i32, ptr, [3 x ptr] } { { ptr, i32, i32, ptr } { ptr @"_SM15java.lang.ClassG4type", i32 590, i32 -1, ptr @"_SM7__constG2-36" }, i32 8, i32 590, ptr @"_SM7__constG1-4", [3 x ptr] [ ptr @"_SM16java.lang.ObjectD8hashCodeiEO", ptr @"_SM16java.lang.ObjectD8toStringL16java.lang.StringEO", ptr @"_SM16java.lang.ObjectD6equalsL16java.lang.ObjectzEO" ] }
@"_SM13scala.Option$G8instance" = hidden global { ptr } { ptr @"_SM13scala.Option$G4type" }
@"_SM21scala.PartialFunctionG4type" = hidden global { ptr, i32, i32, ptr } { ptr @"_SM15java.lang.ClassG4type", i32 -30, i32 -1, ptr @"_SM7__constG2-38" }
@"_SM13scala.Predef$G4type" = hidden global { { ptr, i32, i32, ptr }, i32, i32, ptr, [3 x ptr] } { { ptr, i32, i32, ptr } { ptr @"_SM15java.lang.ClassG4type", i32 552, i32 -1, ptr @"_SM7__constG2-40" }, i32 8, i32 552, ptr @"_SM7__constG1-4", [3 x ptr] [ ptr @"_SM16java.lang.ObjectD8hashCodeiEO", ptr @"_SM16java.lang.ObjectD8toStringL16java.lang.StringEO", ptr @"_SM16java.lang.ObjectD6equalsL16java.lang.ObjectzEO" ] }
@"_SM13scala.Predef$G8instance" = hidden global { ptr } { ptr @"_SM13scala.Predef$G4type" }
@"_SM13scala.ProductG4type" = hidden global { ptr, i32, i32, ptr } { ptr @"_SM15java.lang.ClassG4type", i32 -4, i32 -1, ptr @"_SM7__constG2-42" }
@"_SM21scala.Product$$anon$1G4type" = hidden global { { ptr, i32, i32, ptr }, i32, i32, ptr, [3 x ptr] } { { ptr, i32, i32, ptr } { ptr @"_SM15java.lang.ClassG4type", i32 621, i32 195, ptr @"_SM7__constG2-44" }, i32 24, i32 621, ptr @"_SM7__constG2-45", [3 x ptr] [ ptr @"_SM16java.lang.ObjectD8hashCodeiEO", ptr @"_SM33scala.collection.AbstractIteratorD8toStringL16java.lang.StringEO", ptr @"_SM16java.lang.ObjectD6equalsL16java.lang.ObjectzEO" ] }
@"_SM14scala.Product2G4type" = hidden global { ptr, i32, i32, ptr } { ptr @"_SM15java.lang.ClassG4type", i32 -5, i32 -1, ptr @"_SM7__constG2-47" }
@"_SM14scala.Product3G4type" = hidden global { ptr, i32, i32, ptr } { ptr @"_SM15java.lang.ClassG4type", i32 -6, i32 -1, ptr @"_SM7__constG2-49" }
@"_SM14scala.Product4G4type" = hidden global { ptr, i32, i32, ptr } { ptr @"_SM15java.lang.ClassG4type", i32 -7, i32 -1, ptr @"_SM7__constG2-51" }
@"_SM12scala.Short$G4type" = hidden global { { ptr, i32, i32, ptr }, i32, i32, ptr, [3 x ptr] } { { ptr, i32, i32, ptr } { ptr @"_SM15java.lang.ClassG4type", i32 309, i32 -1, ptr @"_SM7__constG2-53" }, i32 8, i32 309, ptr @"_SM7__constG1-4", [3 x ptr] [ ptr @"_SM16java.lang.ObjectD8hashCodeiEO", ptr @"_SM12scala.Short$D8toStringL16java.lang.StringEO", ptr @"_SM16java.lang.ObjectD6equalsL16java.lang.ObjectzEO" ] }
@"_SM12scala.Short$G8instance" = hidden global { ptr } { ptr @"_SM12scala.Short$G4type" }
@"_SM10scala.SomeG4type" = hidden global { { ptr, i32, i32, ptr }, i32, i32, ptr, [4 x ptr] } { { ptr, i32, i32, ptr } { ptr @"_SM15java.lang.ClassG4type", i32 216, i32 51, ptr @"_SM7__constG2-55" }, i32 16, i32 216, ptr @"_SM7__constG2-56", [4 x ptr] [ ptr @"_SM10scala.SomeD8hashCodeiEO", ptr @"_SM10scala.SomeD8toStringL16java.lang.StringEO", ptr @"_SM10scala.SomeD6equalsL16java.lang.ObjectzEO", ptr @"_SM10scala.SomeD3getL16java.lang.ObjectEO" ] }
@"_SM11scala.Some$G4type" = hidden global { { ptr, i32, i32, ptr }, i32, i32, ptr, [3 x ptr] } { { ptr, i32, i32, ptr } { ptr @"_SM15java.lang.ClassG4type", i32 322, i32 -1, ptr @"_SM7__constG2-58" }, i32 8, i32 322, ptr @"_SM7__constG1-4", [3 x ptr] [ ptr @"_SM16java.lang.ObjectD8hashCodeiEO", ptr @"_SM11scala.Some$D8toStringL16java.lang.StringEO", ptr @"_SM16java.lang.ObjectD6equalsL16java.lang.ObjectzEO" ] }
@"_SM11scala.Some$G8instance" = hidden global { ptr } { ptr @"_SM11scala.Some$G4type" }
@"_SM19scala.SpecializableG4type" = hidden global { ptr, i32, i32, ptr } { ptr @"_SM15java.lang.ClassG4type", i32 -20, i32 -1, ptr @"_SM7__constG2-60" }
@"_SM12scala.Tuple2G4type" = hidden global { { ptr, i32, i32, ptr }, i32, i32, ptr, [3 x ptr] } { { ptr, i32, i32, ptr } { ptr @"_SM15java.lang.ClassG4type", i32 140, i32 26, ptr @"_SM7__constG2-62" }, i32 24, i32 140, ptr @"_SM7__constG2-63", [3 x ptr] [ ptr @"_SM12scala.Tuple2D8hashCodeiEO", ptr @"_SM12scala.Tuple2D8toStringL16java.lang.StringEO", ptr @"_SM12scala.Tuple2D6equalsL16java.lang.ObjectzEO" ] }
@"_SM13scala.Tuple2$G4type" = hidden global { { ptr, i32, i32, ptr }, i32, i32, ptr, [3 x ptr] } { { ptr, i32, i32, ptr } { ptr @"_SM15java.lang.ClassG4type", i32 581, i32 -1, ptr @"_SM7__constG2-65" }, i32 8, i32 581, ptr @"_SM7__constG1-4", [3 x ptr] [ ptr @"_SM16java.lang.ObjectD8hashCodeiEO", ptr @"_SM13scala.Tuple2$D8toStringL16java.lang.StringEO", ptr @"_SM16java.lang.ObjectD6equalsL16java.lang.ObjectzEO" ] }
@"_SM13scala.Tuple2$G8instance" = hidden global { ptr } { ptr @"_SM13scala.Tuple2$G4type" }
@"_SM12scala.Tuple3G4type" = hidden global { { ptr, i32, i32, ptr }, i32, i32, ptr, [3 x ptr] } { { ptr, i32, i32, ptr } { ptr @"_SM15java.lang.ClassG4type", i32 54, i32 2, ptr @"_SM7__constG2-67" }, i32 32, i32 54, ptr @"_SM7__constG2-11", [3 x ptr] [ ptr @"_SM12scala.Tuple3D8hashCodeiEO", ptr @"_SM12scala.Tuple3D8toStringL16java.lang.StringEO", ptr @"_SM12scala.Tuple3D6equalsL16java.lang.ObjectzEO" ] }
@"_SM13scala.Tuple3$G4type" = hidden global { { ptr, i32, i32, ptr }, i32, i32, ptr, [3 x ptr] } { { ptr, i32, i32, ptr } { ptr @"_SM15java.lang.ClassG4type", i32 554, i32 -1, ptr @"_SM7__constG2-69" }, i32 8, i32 554, ptr @"_SM7__constG1-4", [3 x ptr] [ ptr @"_SM16java.lang.ObjectD8hashCodeiEO", ptr @"_SM13scala.Tuple3$D8toStringL16java.lang.StringEO", ptr @"_SM16java.lang.ObjectD6equalsL16java.lang.ObjectzEO" ] }
@"_SM13scala.Tuple3$G8instance" = hidden global { ptr } { ptr @"_SM13scala.Tuple3$G4type" }
@"_SM12scala.Tuple4G4type" = hidden global { { ptr, i32, i32, ptr }, i32, i32, ptr, [3 x ptr] } { { ptr, i32, i32, ptr } { ptr @"_SM15java.lang.ClassG4type", i32 201, i32 42, ptr @"_SM7__constG2-71" }, i32 40, i32 201, ptr @"_SM7__constG2-72", [3 x ptr] [ ptr @"_SM12scala.Tuple4D8hashCodeiEO", ptr @"_SM12scala.Tuple4D8toStringL16java.lang.StringEO", ptr @"_SM12scala.Tuple4D6equalsL16java.lang.ObjectzEO" ] }
@"_SM13scala.Tuple4$G4type" = hidden global { { ptr, i32, i32, ptr }, i32, i32, ptr, [3 x ptr] } { { ptr, i32, i32, ptr } { ptr @"_SM15java.lang.ClassG4type", i32 182, i32 -1, ptr @"_SM7__constG2-74" }, i32 8, i32 182, ptr @"_SM7__constG1-4", [3 x ptr] [ ptr @"_SM16java.lang.ObjectD8hashCodeiEO", ptr @"_SM13scala.Tuple4$D8toStringL16java.lang.StringEO", ptr @"_SM16java.lang.ObjectD6equalsL16java.lang.ObjectzEO" ] }
@"_SM13scala.Tuple4$G8instance" = hidden global { ptr } { ptr @"_SM13scala.Tuple4$G4type" }
@"_SM14scala.package$G4type" = hidden global { { ptr, i32, i32, ptr }, i32, i32, ptr, [3 x ptr] } { { ptr, i32, i32, ptr } { ptr @"_SM15java.lang.ClassG4type", i32 276, i32 -1, ptr @"_SM7__constG2-76" }, i32 24, i32 276, ptr @"_SM7__constG2-56", [3 x ptr] [ ptr @"_SM16java.lang.ObjectD8hashCodeiEO", ptr @"_SM16java.lang.ObjectD8toStringL16java.lang.StringEO", ptr @"_SM16java.lang.ObjectD6equalsL16java.lang.ObjectzEO" ] }

define dereferenceable_or_null(16) ptr @"_SM12scala.Array$D10newBuilderL22scala.reflect.ClassTagL37scala.collection.mutable.ArrayBuilderEO"(ptr %_1, ptr %_2) personality ptr @__gxx_personality_v0 {
_3000000.0:
  %_3000002 = call dereferenceable_or_null(16) ptr @"_SM38scala.collection.mutable.ArrayBuilder$D4makeL22scala.reflect.ClassTagL37scala.collection.mutable.ArrayBuilderEO"(ptr nonnull dereferenceable(8) @"_SM38scala.collection.mutable.ArrayBuilder$G8instance", ptr dereferenceable_or_null(8) %_2)
  ret ptr %_3000002
}

define void @"_SM12scala.Array$D4copyL16java.lang.ObjectiL16java.lang.ObjectiiuEO"(ptr %_1, ptr %_2, i32 %_3, ptr %_4, i32 %_5, i32 %_6) personality ptr @__gxx_personality_v0 {
_7000000.0:
  %_13000003 = icmp ne ptr %_1, null
  br i1 %_13000003, label %_13000001.0, label %_13000002.0
_13000001.0:
  %_7000001 = call dereferenceable_or_null(32) ptr @"_SM16java.lang.ObjectD8getClassL15java.lang.ClassEO"(ptr dereferenceable_or_null(8) %_2)
  %_7000002 = call i1 @"_SM15java.lang.ClassD7isArrayzEO"(ptr dereferenceable_or_null(32) %_7000001)
  br i1 %_7000002, label %_8000000.0, label %_9000000.0
_8000000.0:
  %_8000001 = call dereferenceable_or_null(32) ptr @"_SM16java.lang.ObjectD8getClassL15java.lang.ClassEO"(ptr dereferenceable_or_null(8) %_4)
  %_8000002 = call i1 @"_SM15java.lang.ClassD16isAssignableFromL15java.lang.ClasszEO"(ptr dereferenceable_or_null(32) %_8000001, ptr dereferenceable_or_null(32) %_7000001)
  br label %_10000000.0
_9000000.0:
  br label %_10000000.0
_10000000.0:
  %_10000001 = phi i1 [false, %_9000000.0], [%_8000002, %_8000000.0]
  br i1 %_10000001, label %_11000000.0, label %_12000000.0
_11000000.0:
  call void @"_SM16java.lang.SystemD9arraycopyL16java.lang.ObjectiL16java.lang.ObjectiiuEo"(ptr dereferenceable_or_null(8) %_2, i32 %_3, ptr dereferenceable_or_null(8) %_4, i32 %_5, i32 %_6)
  br label %_13000000.0
_12000000.0:
  call void @"_SM12scala.Array$D8slowcopyL16java.lang.ObjectiL16java.lang.ObjectiiuEPT12scala.Array$"(ptr dereferenceable_or_null(8) %_1, ptr dereferenceable_or_null(8) %_2, i32 %_3, ptr dereferenceable_or_null(8) %_4, i32 %_5, i32 %_6)
  br label %_13000000.0
_13000000.0:
  ret void
_13000002.0:
  call ptr @"_SM34scala.scalanative.runtime.package$D16throwNullPointernEO"(ptr null)
  unreachable
}

define dereferenceable_or_null(8) ptr @"_SM12scala.Array$D4filliL15scala.Function0L22scala.reflect.ClassTagL16java.lang.ObjectEO"(ptr %_1, i32 %_2, ptr %_3, ptr %_4) personality ptr @__gxx_personality_v0 {
_5000000.0:
  %_12000003 = icmp ne ptr %_1, null
  br i1 %_12000003, label %_12000001.0, label %_12000002.0
_12000001.0:
  %_5000003 = icmp sle i32 %_2, 0
  br i1 %_5000003, label %_6000000.0, label %_7000000.0
_6000000.0:
  %_6000001 = call dereferenceable_or_null(8) ptr @"_SM12scala.Array$D5emptyL22scala.reflect.ClassTagL16java.lang.ObjectEO"(ptr dereferenceable_or_null(8) %_1, ptr dereferenceable_or_null(8) %_4)
  br label %_8000000.0
_7000000.0:
  %_12000005 = icmp ne ptr %_4, null
  br i1 %_12000005, label %_12000004.0, label %_12000002.0
_12000004.0:
  %_12000006 = load ptr, ptr %_4
  %_12000007 = getelementptr { ptr, i32, i32, ptr }, { ptr, i32, i32, ptr }* %_12000006, i32 0, i32 2
  %_12000008 = load i32, ptr %_12000007
  %_12000009 = getelementptr ptr, ptr @"_SM22__scalanative_metadataG14dispatch_table", i32 5403
  %_12000010 = getelementptr ptr, ptr %_12000009, i32 %_12000008
  %_7000002 = load ptr, ptr %_12000010
  %_7000003 = call dereferenceable_or_null(8) ptr %_7000002(ptr dereferenceable_or_null(8) %_4, i32 %_2)
  br label %_9000000.0
_9000000.0:
  %_9000001 = phi i32 [0, %_12000004.0], [%_10000007, %_12000011.0]
  %_9000003 = icmp slt i32 %_9000001, %_2
  br i1 %_9000003, label %_10000000.0, label %_11000000.0
_10000000.0:
  %_12000012 = icmp ne ptr %_3, null
  br i1 %_12000012, label %_12000011.0, label %_12000002.0
_12000011.0:
  %_12000013 = load ptr, ptr %_3
  %_12000014 = getelementptr { ptr, i32, i32, ptr }, { ptr, i32, i32, ptr }* %_12000013, i32 0, i32 2
  %_12000015 = load i32, ptr %_12000014
  %_12000016 = getelementptr ptr, ptr @"_SM22__scalanative_metadataG14dispatch_table", i32 410
  %_12000017 = getelementptr ptr, ptr %_12000016, i32 %_12000015
  %_10000003 = load ptr, ptr %_12000017
  %_10000004 = call dereferenceable_or_null(8) ptr %_10000003(ptr dereferenceable_or_null(8) %_3)
  call void @"_SM27scala.runtime.ScalaRunTime$D12array_updateL16java.lang.ObjectiL16java.lang.ObjectuEO"(ptr nonnull dereferenceable(8) @"_SM27scala.runtime.ScalaRunTime$G8instance", ptr dereferenceable_or_null(8) %_7000003, i32 %_9000001, ptr dereferenceable_or_null(8) %_10000004)
  %_10000007 = add i32 %_9000001, 1
  br label %_9000000.0
_11000000.0:
  br label %_12000000.0
_12000000.0:
  br label %_8000000.0
_8000000.0:
  %_8000001 = phi i32 [%_9000001, %_12000000.0], [0, %_6000000.0]
  %_8000002 = phi ptr [%_7000003, %_12000000.0], [%_6000001, %_6000000.0]
  ret ptr %_8000002
_12000002.0:
  call ptr @"_SM34scala.scalanative.runtime.package$D16throwNullPointernEO"(ptr null)
  unreachable
}

define dereferenceable_or_null(8) ptr @"_SM12scala.Array$D4fromL29scala.collection.IterableOnceL22scala.reflect.ClassTagL16java.lang.ObjectEO"(ptr %_1, ptr %_2, ptr %_3) personality ptr @__gxx_personality_v0 {
_4000000.0:
  br label %_5000000.0
_5000000.0:
  %_9000008 = icmp eq ptr %_2, null
  br i1 %_9000008, label %_9000005.0, label %_9000006.0
_9000005.0:
  br label %_9000007.0
_9000006.0:
  %_9000009 = load ptr, ptr %_2
  %_9000010 = getelementptr { ptr, i32, i32, ptr }, { ptr, i32, i32, ptr }* %_9000009, i32 0, i32 1
  %_9000011 = load i32, ptr %_9000010
  %_9000012 = call i1 @"__check_class_has_trait"(i32 %_9000011, i32 41)
  br label %_9000007.0
_9000007.0:
  %_5000002 = phi i1 [%_9000012, %_9000006.0], [false, %_9000005.0]
  br i1 %_5000002, label %_6000000.0, label %_7000000.0
_6000000.0:
  %_9000016 = icmp eq ptr %_2, null
  br i1 %_9000016, label %_9000014.0, label %_9000013.0
_9000013.0:
  %_9000017 = load ptr, ptr %_2
  %_9000018 = getelementptr { ptr, i32, i32, ptr }, { ptr, i32, i32, ptr }* %_9000017, i32 0, i32 1
  %_9000019 = load i32, ptr %_9000018
  %_9000020 = call i1 @"__check_class_has_trait"(i32 %_9000019, i32 41)
  br i1 %_9000020, label %_9000014.0, label %_9000015.0
_9000014.0:
  %_9000023 = icmp ne ptr %_2, null
  br i1 %_9000023, label %_9000021.0, label %_9000022.0
_9000021.0:
  %_9000024 = load ptr, ptr %_2
  %_9000025 = getelementptr { ptr, i32, i32, ptr }, { ptr, i32, i32, ptr }* %_9000024, i32 0, i32 2
  %_9000026 = load i32, ptr %_9000025
  %_9000027 = getelementptr ptr, ptr @"_SM22__scalanative_metadataG14dispatch_table", i32 4382
  %_9000028 = getelementptr ptr, ptr %_9000027, i32 %_9000026
  %_6000003 = load ptr, ptr %_9000028
  %_6000004 = call dereferenceable_or_null(8) ptr %_6000003(ptr dereferenceable_or_null(8) %_2, ptr dereferenceable_or_null(8) %_3)
  br label %_8000000.0
_7000000.0:
  br label %_9000000.0
_9000000.0:
  %_9000030 = icmp ne ptr %_2, null
  br i1 %_9000030, label %_9000029.0, label %_9000022.0
_9000029.0:
  %_9000031 = load ptr, ptr %_2
  %_9000032 = getelementptr { ptr, i32, i32, ptr }, { ptr, i32, i32, ptr }* %_9000031, i32 0, i32 2
  %_9000033 = load i32, ptr %_9000032
  %_9000034 = getelementptr ptr, ptr @"_SM22__scalanative_metadataG14dispatch_table", i32 4112
  %_9000035 = getelementptr ptr, ptr %_9000034, i32 %_9000033
  %_9000002 = load ptr, ptr %_9000035
  %_9000003 = call dereferenceable_or_null(8) ptr %_9000002(ptr dereferenceable_or_null(8) %_2)
  %_9000004 = call dereferenceable_or_null(8) ptr @"_SM33scala.collection.AbstractIteratorD7toArrayL22scala.reflect.ClassTagL16java.lang.ObjectEO"(ptr dereferenceable_or_null(8) %_9000003, ptr dereferenceable_or_null(8) %_3)
  br label %_8000000.0
_8000000.0:
  %_8000001 = phi ptr [%_9000004, %_9000029.0], [%_6000004, %_9000021.0]
  ret ptr %_8000001
_9000022.0:
  call ptr @"_SM34scala.scalanative.runtime.package$D16throwNullPointernEO"(ptr null)
  unreachable
_9000015.0:
  %_9000037 = phi ptr [%_2, %_9000013.0]
  %_9000038 = phi ptr [@"_SM25scala.collection.IterableG4type", %_9000013.0]
  %_9000039 = load ptr, ptr %_9000037
  call ptr @"_SM34scala.scalanative.runtime.package$D14throwClassCastR_R_nEO"(ptr null, ptr %_9000039, ptr %_9000038)
  unreachable
}

define dereferenceable_or_null(8) ptr @"_SM12scala.Array$D5emptyL22scala.reflect.ClassTagL16java.lang.ObjectEO"(ptr %_1, ptr %_2) personality ptr @__gxx_personality_v0 {
_3000000.0:
  %_3000006 = icmp ne ptr %_2, null
  br i1 %_3000006, label %_3000004.0, label %_3000005.0
_3000004.0:
  %_3000007 = load ptr, ptr %_2
  %_3000008 = getelementptr { ptr, i32, i32, ptr }, { ptr, i32, i32, ptr }* %_3000007, i32 0, i32 2
  %_3000009 = load i32, ptr %_3000008
  %_3000010 = getelementptr ptr, ptr @"_SM22__scalanative_metadataG14dispatch_table", i32 5403
  %_3000011 = getelementptr ptr, ptr %_3000010, i32 %_3000009
  %_3000002 = load ptr, ptr %_3000011
  %_3000003 = call dereferenceable_or_null(8) ptr %_3000002(ptr dereferenceable_or_null(8) %_2, i32 0)
  ret ptr %_3000003
_3000005.0:
  call ptr @"_SM34scala.scalanative.runtime.package$D16throwNullPointernEO"(ptr null)
  unreachable
}

define i1 @"_SM12scala.Array$D6equalsLAL16java.lang.Object_LAL16java.lang.Object_zEO"(ptr %_1, ptr %_2, ptr %_3) personality ptr @__gxx_personality_v0 {
_4000000.0:
  %_4000003 = icmp eq ptr %_2, %_3
  br i1 %_4000003, label %_5000000.0, label %_6000000.0
_5000000.0:
  br label %_7000000.0
_6000000.0:
  %_17000005 = icmp ne ptr %_2, null
  br i1 %_17000005, label %_17000003.0, label %_17000004.0
_17000003.0:
  %_17000006 = getelementptr { ptr, i32, i32 }, { ptr, i32, i32 }* %_2, i32 0, i32 1
  %_6000001 = load i32, ptr %_17000006
  %_17000008 = icmp ne ptr %_3, null
  br i1 %_17000008, label %_17000007.0, label %_17000004.0
_17000007.0:
  %_17000009 = getelementptr { ptr, i32, i32 }, { ptr, i32, i32 }* %_3, i32 0, i32 1
  %_6000002 = load i32, ptr %_17000009
  %_6000004 = icmp eq i32 %_6000001, %_6000002
  br i1 %_6000004, label %_8000000.0, label %_9000000.0
_8000000.0:
  br label %_10000000.0
_10000000.0:
  %_10000001 = phi i32 [0, %_8000000.0], [%_14000002, %_14000000.0]
  %_10000003 = icmp slt i32 %_10000001, %_6000001
  br i1 %_10000003, label %_11000000.0, label %_12000000.0
_11000000.0:
  %_17000011 = getelementptr { ptr, i32, i32 }, { ptr, i32, i32 }* %_2, i32 0, i32 1
  %_17000010 = load i32, ptr %_17000011
  %_17000014 = icmp sge i32 %_10000001, 0
  %_17000015 = icmp slt i32 %_10000001, %_17000010
  %_17000016 = and i1 %_17000014, %_17000015
  br i1 %_17000016, label %_17000012.0, label %_17000013.0
_17000012.0:
  %_17000017 = getelementptr { { ptr, i32, i32 }, [0 x ptr] }, { { ptr, i32, i32 }, [0 x ptr] }* %_2, i32 0, i32 1, i32 %_10000001
  %_11000001 = load ptr, ptr %_17000017, !dereferenceable_or_null !{i64 8}
  %_17000019 = getelementptr { ptr, i32, i32 }, { ptr, i32, i32 }* %_3, i32 0, i32 1
  %_17000018 = load i32, ptr %_17000019
  %_17000021 = icmp sge i32 %_10000001, 0
  %_17000022 = icmp slt i32 %_10000001, %_17000018
  %_17000023 = and i1 %_17000021, %_17000022
  br i1 %_17000023, label %_17000020.0, label %_17000013.0
_17000020.0:
  %_17000024 = getelementptr { { ptr, i32, i32 }, [0 x ptr] }, { { ptr, i32, i32 }, [0 x ptr] }* %_3, i32 0, i32 1, i32 %_10000001
  %_11000002 = load ptr, ptr %_17000024, !dereferenceable_or_null !{i64 8}
  %_11000003 = call i1 @"_SM26scala.runtime.BoxesRunTimeD6equalsL16java.lang.ObjectL16java.lang.ObjectzEo"(ptr dereferenceable_or_null(8) %_11000001, ptr dereferenceable_or_null(8) %_11000002)
  br label %_13000000.0
_12000000.0:
  br label %_13000000.0
_13000000.0:
  %_13000001 = phi i1 [false, %_12000000.0], [%_11000003, %_17000020.0]
  br i1 %_13000001, label %_14000000.0, label %_15000000.0
_14000000.0:
  %_14000002 = add i32 %_10000001, 1
  br label %_10000000.0
_15000000.0:
  br label %_16000000.0
_16000000.0:
  %_16000002 = icmp sge i32 %_10000001, %_6000001
  br label %_17000000.0
_9000000.0:
  br label %_17000000.0
_17000000.0:
  %_17000001 = phi i32 [0, %_9000000.0], [%_10000001, %_16000000.0]
  %_17000002 = phi i1 [false, %_9000000.0], [%_16000002, %_16000000.0]
  br label %_7000000.0
_7000000.0:
  %_7000001 = phi i32 [%_17000001, %_17000000.0], [0, %_5000000.0]
  %_7000002 = phi i1 [%_17000002, %_17000000.0], [true, %_5000000.0]
  ret i1 %_7000002
_17000004.0:
  call ptr @"_SM34scala.scalanative.runtime.package$D16throwNullPointernEO"(ptr null)
  unreachable
_17000013.0:
  %_17000026 = phi i32 [%_10000001, %_11000000.0], [%_10000001, %_17000012.0]
  %_17000027 = phi i32 [%_17000010, %_11000000.0], [%_17000018, %_17000012.0]
  call ptr @"_SM34scala.scalanative.runtime.package$D16throwOutOfBoundsiinEO"(ptr null, i32 %_17000026, i32 %_17000027)
  unreachable
}

define void @"_SM12scala.Array$D8slowcopyL16java.lang.ObjectiL16java.lang.ObjectiiuEPT12scala.Array$"(ptr %_1, ptr %_2, i32 %_3, ptr %_4, i32 %_5, i32 %_6) personality ptr @__gxx_personality_v0 {
_7000000.0:
  %_7000004 = add i32 %_3, %_6
  br label %_8000000.0
_8000000.0:
  %_8000001 = phi i32 [%_3, %_7000000.0], [%_9000006, %_9000000.0]
  %_8000002 = phi i32 [%_5, %_7000000.0], [%_9000007, %_9000000.0]
  %_8000003 = phi i32 [%_7000004, %_7000000.0], [%_8000003, %_9000000.0]
  %_8000005 = icmp slt i32 %_8000001, %_8000003
  br i1 %_8000005, label %_9000000.0, label %_10000000.0
_9000000.0:
  %_9000002 = call dereferenceable_or_null(8) ptr @"_SM27scala.runtime.ScalaRunTime$D11array_applyL16java.lang.ObjectiL16java.lang.ObjectEO"(ptr nonnull dereferenceable(8) @"_SM27scala.runtime.ScalaRunTime$G8instance", ptr dereferenceable_or_null(8) %_2, i32 %_8000001)
  call void @"_SM27scala.runtime.ScalaRunTime$D12array_updateL16java.lang.ObjectiL16java.lang.ObjectuEO"(ptr nonnull dereferenceable(8) @"_SM27scala.runtime.ScalaRunTime$G8instance", ptr dereferenceable_or_null(8) %_4, i32 %_8000002, ptr dereferenceable_or_null(8) %_9000002)
  %_9000006 = add i32 %_8000001, 1
  %_9000007 = add i32 %_8000002, 1
  br label %_8000000.0
_10000000.0:
  br label %_11000000.0
_11000000.0:
  ret void
}

define void @"_SM12scala.Array$RE"(ptr %_1) personality ptr @__gxx_personality_v0 {
_2000000.0:
  ret void
}

define i32 @"_SM11scala.Byte$D8byte2intbiEO"(ptr %_1, i8 %_2) personality ptr @__gxx_personality_v0 {
_3000000.0:
  %_3000002 = sext i8 %_2 to i32
  ret i32 %_3000002
}

define nonnull dereferenceable(32) ptr @"_SM11scala.Byte$D8toStringL16java.lang.StringEO"(ptr %_1) personality ptr @__gxx_personality_v0 {
_2000000.0:
  ret ptr @"_SM7__constG2-78"
}

define void @"_SM11scala.Byte$RE"(ptr %_1) personality ptr @__gxx_personality_v0 {
_2000000.0:
  ret void
}

define i32 @"_SM11scala.Char$D8char2intciEO"(ptr %_1, i16 %_2) personality ptr @__gxx_personality_v0 {
_3000000.0:
  %_3000002 = zext i16 %_2 to i32
  ret i32 %_3000002
}

define nonnull dereferenceable(32) ptr @"_SM11scala.Char$D8toStringL16java.lang.StringEO"(ptr %_1) personality ptr @__gxx_personality_v0 {
_2000000.0:
  ret ptr @"_SM7__constG2-80"
}

define void @"_SM11scala.Char$RE"(ptr %_1) personality ptr @__gxx_personality_v0 {
_2000000.0:
  ret void
}

define dereferenceable_or_null(48) ptr @"_SM14scala.Console$D3outL19java.io.PrintStreamEO"(ptr %_1) personality ptr @__gxx_personality_v0 {
_2000000.0:
  %_2000006 = icmp ne ptr %_1, null
  br i1 %_2000006, label %_2000004.0, label %_2000005.0
_2000004.0:
  %_2000007 = getelementptr { { ptr }, ptr, ptr, ptr }, { { ptr }, ptr, ptr, ptr }* %_1, i32 0, i32 1
  %_2000001 = load ptr, ptr %_2000007, !dereferenceable_or_null !{i64 24}
  %_2000002 = call dereferenceable_or_null(8) ptr @"_SM26scala.util.DynamicVariableD5valueL16java.lang.ObjectEO"(ptr dereferenceable_or_null(24) %_2000001)
  %_2000011 = icmp eq ptr %_2000002, null
  br i1 %_2000011, label %_2000009.0, label %_2000008.0
_2000008.0:
  %_2000012 = load ptr, ptr %_2000002
  %_2000013 = icmp eq ptr %_2000012, @"_SM19java.io.PrintStreamG4type"
  br i1 %_2000013, label %_2000009.0, label %_2000010.0
_2000009.0:
  ret ptr %_2000002
_2000005.0:
  call ptr @"_SM34scala.scalanative.runtime.package$D16throwNullPointernEO"(ptr null)
  unreachable
_2000010.0:
  %_2000015 = phi ptr [%_2000002, %_2000008.0]
  %_2000016 = phi ptr [@"_SM19java.io.PrintStreamG4type", %_2000008.0]
  %_2000017 = load ptr, ptr %_2000015
  call ptr @"_SM34scala.scalanative.runtime.package$D14throwClassCastR_R_nEO"(ptr null, ptr %_2000017, ptr %_2000016)
  unreachable
}

define void @"_SM14scala.Console$D5printL16java.lang.ObjectuEO"(ptr %_1, ptr %_2) personality ptr @__gxx_personality_v0 {
_3000000.0:
  %_6000005 = icmp ne ptr %_1, null
  br i1 %_6000005, label %_6000003.0, label %_6000004.0
_6000003.0:
  %_3000001 = call dereferenceable_or_null(48) ptr @"_SM14scala.Console$D3outL19java.io.PrintStreamEO"(ptr dereferenceable_or_null(32) %_1)
  %_3000003 = icmp eq ptr %_2, null
  br i1 %_3000003, label %_4000000.0, label %_5000000.0
_4000000.0:
  br label %_6000000.0
_5000000.0:
  %_6000007 = icmp ne ptr %_2, null
  br i1 %_6000007, label %_6000006.0, label %_6000004.0
_6000006.0:
  %_6000008 = load ptr, ptr %_2
  %_6000009 = getelementptr { { ptr, i32, i32, ptr }, i32, i32, ptr, [3 x ptr] }, { { ptr, i32, i32, ptr }, i32, i32, ptr, [3 x ptr] }* %_6000008, i32 0, i32 4, i32 1
  %_5000002 = load ptr, ptr %_6000009
  %_5000003 = call dereferenceable_or_null(32) ptr %_5000002(ptr dereferenceable_or_null(8) %_2)
  br label %_6000000.0
_6000000.0:
  %_6000001 = phi ptr [%_5000003, %_6000006.0], [@"_SM7__constG2-82", %_4000000.0]
  call void @"_SM19java.io.PrintStreamD5printL16java.lang.StringuEO"(ptr dereferenceable_or_null(48) %_3000001, ptr dereferenceable_or_null(32) %_6000001)
  ret void
_6000004.0:
  call ptr @"_SM34scala.scalanative.runtime.package$D16throwNullPointernEO"(ptr null)
  unreachable
}

define void @"_SM14scala.Console$D7printlnL16java.lang.ObjectuEO"(ptr %_1, ptr %_2) personality ptr @__gxx_personality_v0 {
_3000000.0:
  %_3000005 = icmp ne ptr %_1, null
  br i1 %_3000005, label %_3000003.0, label %_3000004.0
_3000003.0:
  %_3000001 = call dereferenceable_or_null(48) ptr @"_SM14scala.Console$D3outL19java.io.PrintStreamEO"(ptr dereferenceable_or_null(32) %_1)
  call void @"_SM19java.io.PrintStreamD7printlnL16java.lang.ObjectuEO"(ptr dereferenceable_or_null(48) %_3000001, ptr dereferenceable_or_null(8) %_2)
  ret void
_3000004.0:
  call ptr @"_SM34scala.scalanative.runtime.package$D16throwNullPointernEO"(ptr null)
  unreachable
}

define dereferenceable_or_null(32) ptr @"_SM14scala.Console$G4load"() noinline personality ptr @__gxx_personality_v0 {
_1.0:
  %_4 = getelementptr ptr, ptr @"__modules", i32 157
  %_5 = load ptr, ptr %_4, !dereferenceable_or_null !{i64 32}
  %_6 = icmp ne ptr %_5, null
  br i1 %_6, label %_2.0, label %_3.0
_2.0:
  ret ptr %_5
_3.0:
  %_7 = call dereferenceable_or_null(32) ptr @"scalanative_GC_alloc_small"(ptr @"_SM14scala.Console$G4type", i64 32)
  store ptr %_7, ptr%_4, align 8
  call void @"_SM14scala.Console$RE"(ptr dereferenceable_or_null(32) %_7)
  ret ptr %_7
}

define void @"_SM14scala.Console$RE"(ptr %_1) personality ptr @__gxx_personality_v0 {
_2000000.0:
  %_36000018 = icmp ne ptr %_1, null
  br i1 %_36000018, label %_36000016.0, label %_36000017.0
_36000016.0:
  call void @"_SM18scala.io.AnsiColorD6$init$uEO"(ptr dereferenceable_or_null(32) %_1)
  %_2000003 = call dereferenceable_or_null(48) ptr @"_SM16java.lang.SystemD3outL19java.io.PrintStreamEo"()
  br label %_7000000.0
_7000000.0:
  br label %_8000000.0
_8000000.0:
  %_9000001 = call dereferenceable_or_null(32) ptr @"scalanative_GC_alloc_small"(ptr @"_SM34scala.util.DynamicVariable$$anon$1G4type", i64 32)
  %_9000002 = call dereferenceable_or_null(24) ptr @"scalanative_GC_alloc_small"(ptr @"_SM26scala.util.DynamicVariableG4type", i64 24)
  %_36000021 = getelementptr { { ptr }, ptr, ptr }, { { ptr }, ptr, ptr }* %_9000002, i32 0, i32 2
  store ptr %_2000003, ptr%_36000021, align 8
  %_36000023 = getelementptr { { ptr }, ptr, i32, ptr }, { { ptr }, ptr, i32, ptr }* %_9000001, i32 0, i32 3
  store ptr %_9000002, ptr%_36000023, align 8
  call void @"_SM21java.lang.ThreadLocalRE"(ptr nonnull dereferenceable(32) %_9000001)
  %_36000026 = getelementptr { { ptr }, ptr, ptr }, { { ptr }, ptr, ptr }* %_9000002, i32 0, i32 1
  store ptr %_9000001, ptr%_36000026, align 8
  %_36000028 = getelementptr { { ptr }, ptr, ptr, ptr }, { { ptr }, ptr, ptr, ptr }* %_1, i32 0, i32 1
  store ptr %_9000002, ptr%_36000028, align 8
  %_2000006 = call dereferenceable_or_null(48) ptr @"_SM16java.lang.SystemD3errL19java.io.PrintStreamEo"()
  br label %_13000000.0
_13000000.0:
  br label %_14000000.0
_14000000.0:
  %_15000001 = call dereferenceable_or_null(32) ptr @"scalanative_GC_alloc_small"(ptr @"_SM34scala.util.DynamicVariable$$anon$1G4type", i64 32)
  %_15000002 = call dereferenceable_or_null(24) ptr @"scalanative_GC_alloc_small"(ptr @"_SM26scala.util.DynamicVariableG4type", i64 24)
  %_36000030 = getelementptr { { ptr }, ptr, ptr }, { { ptr }, ptr, ptr }* %_15000002, i32 0, i32 2
  store ptr %_2000006, ptr%_36000030, align 8
  %_36000032 = getelementptr { { ptr }, ptr, i32, ptr }, { { ptr }, ptr, i32, ptr }* %_15000001, i32 0, i32 3
  store ptr %_15000002, ptr%_36000032, align 8
  call void @"_SM21java.lang.ThreadLocalRE"(ptr nonnull dereferenceable(32) %_15000001)
  %_36000035 = getelementptr { { ptr }, ptr, ptr }, { { ptr }, ptr, ptr }* %_15000002, i32 0, i32 1
  store ptr %_15000001, ptr%_36000035, align 8
  %_36000037 = getelementptr { { ptr }, ptr, ptr, ptr }, { { ptr }, ptr, ptr, ptr }* %_1, i32 0, i32 3
  store ptr %_15000002, ptr%_36000037, align 8
  %_2000011 = call dereferenceable_or_null(8) ptr @"_SM16java.lang.SystemD2inL19java.io.InputStreamEo"()
  %_16000002 = call dereferenceable_or_null(40) ptr @"_SM25java.nio.charset.Charset$D14defaultCharsetL24java.nio.charset.CharsetEO"(ptr nonnull dereferenceable(8) @"_SM25java.nio.charset.Charset$G8instance")
  %_17000002 = call dereferenceable_or_null(8) ptr @"_SM18java.util.Objects$D14requireNonNullL16java.lang.ObjectL16java.lang.ObjectEO"(ptr nonnull dereferenceable(8) @"_SM18java.util.Objects$G8instance", ptr dereferenceable_or_null(40) %_16000002)
  %_36000041 = icmp eq ptr %_17000002, null
  br i1 %_36000041, label %_36000039.0, label %_36000038.0
_36000038.0:
  %_36000042 = load ptr, ptr %_17000002
  %_36000043 = getelementptr { ptr, i32, i32, ptr }, { ptr, i32, i32, ptr }* %_36000042, i32 0, i32 1
  %_36000044 = load i32, ptr %_36000043
  %_36000045 = icmp sle i32 482, %_36000044
  %_36000046 = icmp sle i32 %_36000044, 483
  %_36000047 = and i1 %_36000045, %_36000046
  br i1 %_36000047, label %_36000039.0, label %_36000040.0
_36000039.0:
  %_17000004 = call dereferenceable_or_null(56) ptr @"_SM17niocharset.UTF_8$D10newDecoderL31java.nio.charset.CharsetDecoderEO"(ptr dereferenceable_or_null(40) %_17000002)
  %_17000005 = call dereferenceable_or_null(32) ptr @"_SM35java.nio.charset.CodingErrorAction$G4load"()
  %_36000048 = getelementptr { { ptr }, ptr, ptr, ptr }, { { ptr }, ptr, ptr, ptr }* %_17000005, i32 0, i32 3
  %_18000001 = load ptr, ptr %_36000048, !dereferenceable_or_null !{i64 16}
  %_17000006 = call dereferenceable_or_null(56) ptr @"_SM31java.nio.charset.CharsetDecoderD16onMalformedInputL34java.nio.charset.CodingErrorActionL31java.nio.charset.CharsetDecoderEO"(ptr dereferenceable_or_null(56) %_17000004, ptr dereferenceable_or_null(16) %_18000001)
  %_36000049 = getelementptr { { ptr }, ptr, ptr, ptr }, { { ptr }, ptr, ptr, ptr }* %_17000005, i32 0, i32 3
  %_19000001 = load ptr, ptr %_36000049, !dereferenceable_or_null !{i64 16}
  %_17000007 = call dereferenceable_or_null(56) ptr @"_SM31java.nio.charset.CharsetDecoderD21onUnmappableCharacterL34java.nio.charset.CodingErrorActionL31java.nio.charset.CharsetDecoderEO"(ptr dereferenceable_or_null(56) %_17000006, ptr dereferenceable_or_null(16) %_19000001)
  %_20000001 = call dereferenceable_or_null(8) ptr @"_SM18java.util.Objects$D14requireNonNullL16java.lang.ObjectL16java.lang.ObjectEO"(ptr nonnull dereferenceable(8) @"_SM18java.util.Objects$G8instance", ptr dereferenceable_or_null(8) %_2000011)
  %_20000002 = call dereferenceable_or_null(8) ptr @"_SM18java.util.Objects$D14requireNonNullL16java.lang.ObjectL16java.lang.ObjectEO"(ptr nonnull dereferenceable(8) @"_SM18java.util.Objects$G8instance", ptr dereferenceable_or_null(56) %_17000007)
  %_20000004 = call dereferenceable_or_null(56) ptr @"_SM20java.nio.ByteBuffer$D8allocateiL19java.nio.ByteBufferEO"(ptr nonnull dereferenceable(8) @"_SM20java.nio.ByteBuffer$G8instance", i32 4096)
  %_20000005 = call dereferenceable_or_null(56) ptr @"_SM19java.nio.ByteBufferD5limitiL19java.nio.ByteBufferEO"(ptr dereferenceable_or_null(56) %_20000004, i32 0)
  %_20000006 = call dereferenceable_or_null(16) ptr @"_SM26java.io.InputStreamReader$G4load"()
  %_36000050 = getelementptr { { ptr }, ptr }, { { ptr }, ptr }* %_20000006, i32 0, i32 1
  %_20000007 = load ptr, ptr %_36000050, !dereferenceable_or_null !{i64 48}
  br label %_29000000.0
_29000000.0:
  br label %_30000000.0
_30000000.0:
  %_30000001 = call dereferenceable_or_null(16) ptr @"_SM36scala.scalanative.runtime.CharArray$D5allociL35scala.scalanative.runtime.CharArrayEO"(ptr @"_SM36scala.scalanative.runtime.CharArray$G8instance", i32 4096)
  br label %_34000000.0
_34000000.0:
  br label %_35000000.0
_35000000.0:
  %_36000001 = call dereferenceable_or_null(32) ptr @"scalanative_GC_alloc_small"(ptr @"_SM34scala.util.DynamicVariable$$anon$1G4type", i64 32)
  %_36000002 = call dereferenceable_or_null(24) ptr @"scalanative_GC_alloc_small"(ptr @"_SM26scala.util.DynamicVariableG4type", i64 24)
  %_36000003 = call dereferenceable_or_null(32) ptr @"scalanative_GC_alloc_small"(ptr @"_SM22java.io.BufferedReaderG4type", i64 32)
  %_36000053 = getelementptr { { ptr }, ptr }, { { ptr }, ptr }* %_36000003, i32 0, i32 1
  store ptr %_36000003, ptr%_36000053, align 8
  %_36000055 = getelementptr { { ptr }, ptr, ptr, ptr }, { { ptr }, ptr, ptr, ptr }* %_36000003, i32 0, i32 3
  store ptr %_30000001, ptr%_36000055, align 8
  %_36000006 = call dereferenceable_or_null(48) ptr @"scalanative_GC_alloc_small"(ptr @"_SM25java.io.InputStreamReaderG4type", i64 48)
  %_36000057 = getelementptr { { ptr }, ptr }, { { ptr }, ptr }* %_36000006, i32 0, i32 1
  store ptr %_36000006, ptr%_36000057, align 8
  %_36000059 = getelementptr { { ptr }, ptr, ptr, ptr, ptr, ptr }, { { ptr }, ptr, ptr, ptr, ptr, ptr }* %_36000006, i32 0, i32 5
  store ptr %_20000007, ptr%_36000059, align 8
  %_36000061 = getelementptr { { ptr }, ptr, ptr, ptr, ptr, ptr }, { { ptr }, ptr, ptr, ptr, ptr, ptr }* %_36000006, i32 0, i32 4
  store ptr %_20000004, ptr%_36000061, align 8
  %_36000063 = getelementptr { { ptr }, ptr, ptr, ptr, ptr, ptr }, { { ptr }, ptr, ptr, ptr, ptr, ptr }* %_36000006, i32 0, i32 3
  store ptr %_17000007, ptr%_36000063, align 8
  %_36000065 = getelementptr { { ptr }, ptr, ptr, ptr, ptr, ptr }, { { ptr }, ptr, ptr, ptr, ptr, ptr }* %_36000006, i32 0, i32 2
  store ptr %_2000011, ptr%_36000065, align 8
  %_36000067 = getelementptr { { ptr }, ptr, ptr, ptr }, { { ptr }, ptr, ptr, ptr }* %_36000003, i32 0, i32 2
  store ptr %_36000006, ptr%_36000067, align 8
  %_36000069 = getelementptr { { ptr }, ptr, ptr }, { { ptr }, ptr, ptr }* %_36000002, i32 0, i32 2
  store ptr %_36000003, ptr%_36000069, align 8
  %_36000071 = getelementptr { { ptr }, ptr, i32, ptr }, { { ptr }, ptr, i32, ptr }* %_36000001, i32 0, i32 3
  store ptr %_36000002, ptr%_36000071, align 8
  call void @"_SM21java.lang.ThreadLocalRE"(ptr nonnull dereferenceable(32) %_36000001)
  %_36000074 = getelementptr { { ptr }, ptr, ptr }, { { ptr }, ptr, ptr }* %_36000002, i32 0, i32 1
  store ptr %_36000001, ptr%_36000074, align 8
  %_36000076 = getelementptr { { ptr }, ptr, ptr, ptr }, { { ptr }, ptr, ptr, ptr }* %_1, i32 0, i32 2
  store ptr %_36000002, ptr%_36000076, align 8
  ret void
_36000017.0:
  call ptr @"_SM34scala.scalanative.runtime.package$D16throwNullPointernEO"(ptr null)
  unreachable
_36000040.0:
  %_36000078 = phi ptr [%_17000002, %_36000038.0]
  %_36000079 = phi ptr [@"_SM24java.nio.charset.CharsetG4type", %_36000038.0]
  %_36000080 = load ptr, ptr %_36000078
  call ptr @"_SM34scala.scalanative.runtime.package$D14throwClassCastR_R_nEO"(ptr null, ptr %_36000080, ptr %_36000079)
  unreachable
}

define i32 @"_SM15scala.Function0D12apply$mcI$spiEO"(ptr %_1) personality ptr @__gxx_personality_v0 {
_2000000.0:
  %_2000007 = icmp ne ptr %_1, null
  br i1 %_2000007, label %_2000005.0, label %_2000006.0
_2000005.0:
  %_2000008 = load ptr, ptr %_1
  %_2000009 = getelementptr { ptr, i32, i32, ptr }, { ptr, i32, i32, ptr }* %_2000008, i32 0, i32 2
  %_2000010 = load i32, ptr %_2000009
  %_2000011 = getelementptr ptr, ptr @"_SM22__scalanative_metadataG14dispatch_table", i32 410
  %_2000012 = getelementptr ptr, ptr %_2000011, i32 %_2000010
  %_2000002 = load ptr, ptr %_2000012
  %_2000003 = call dereferenceable_or_null(8) ptr %_2000002(ptr dereferenceable_or_null(8) %_1)
  %_2000004 = call i32 @"_SM27scala.runtime.BoxesRunTime$D10unboxToIntL16java.lang.ObjectiEO"(ptr null, ptr dereferenceable_or_null(8) %_2000003)
  ret i32 %_2000004
_2000006.0:
  call ptr @"_SM34scala.scalanative.runtime.package$D16throwNullPointernEO"(ptr null)
  unreachable
}

define void @"_SM15scala.Function0D12apply$mcV$spuEO"(ptr %_1) personality ptr @__gxx_personality_v0 {
_2000000.0:
  %_2000006 = icmp ne ptr %_1, null
  br i1 %_2000006, label %_2000004.0, label %_2000005.0
_2000004.0:
  %_2000007 = load ptr, ptr %_1
  %_2000008 = getelementptr { ptr, i32, i32, ptr }, { ptr, i32, i32, ptr }* %_2000007, i32 0, i32 2
  %_2000009 = load i32, ptr %_2000008
  %_2000010 = getelementptr ptr, ptr @"_SM22__scalanative_metadataG14dispatch_table", i32 410
  %_2000011 = getelementptr ptr, ptr %_2000010, i32 %_2000009
  %_2000002 = load ptr, ptr %_2000011
  %_2000003 = call dereferenceable_or_null(8) ptr %_2000002(ptr dereferenceable_or_null(8) %_1)
  ret void
_2000005.0:
  call ptr @"_SM34scala.scalanative.runtime.package$D16throwNullPointernEO"(ptr null)
  unreachable
}

define i32 @"_SM15scala.Function1D13apply$mcII$spiiEO"(ptr %_1, i32 %_2) personality ptr @__gxx_personality_v0 {
_3000000.0:
  %_3000009 = icmp ne ptr %_1, null
  br i1 %_3000009, label %_3000007.0, label %_3000008.0
_3000007.0:
  %_3000010 = load ptr, ptr %_1
  %_3000011 = getelementptr { ptr, i32, i32, ptr }, { ptr, i32, i32, ptr }* %_3000010, i32 0, i32 2
  %_3000012 = load i32, ptr %_3000011
  %_3000013 = getelementptr ptr, ptr @"_SM22__scalanative_metadataG14dispatch_table", i32 202
  %_3000014 = getelementptr ptr, ptr %_3000013, i32 %_3000012
  %_3000003 = load ptr, ptr %_3000014
  %_3000004 = call dereferenceable_or_null(16) ptr @"_SM27scala.runtime.BoxesRunTime$D12boxToIntegeriL17java.lang.IntegerEO"(ptr null, i32 %_2)
  %_3000005 = call dereferenceable_or_null(8) ptr %_3000003(ptr dereferenceable_or_null(8) %_1, ptr nonnull dereferenceable(16) %_3000004)
  %_3000006 = call i32 @"_SM27scala.runtime.BoxesRunTime$D10unboxToIntL16java.lang.ObjectiEO"(ptr null, ptr dereferenceable_or_null(8) %_3000005)
  ret i32 %_3000006
_3000008.0:
  call ptr @"_SM34scala.scalanative.runtime.package$D16throwNullPointernEO"(ptr null)
  unreachable
}

define void @"_SM15scala.Function1D6$init$uEO"(ptr %_1) personality ptr @__gxx_personality_v0 {
_2000000.0:
  ret void
}

define nonnull dereferenceable(32) ptr @"_SM15scala.Function1D8toStringL16java.lang.StringEO"(ptr %_1) personality ptr @__gxx_personality_v0 {
_2000000.0:
  ret ptr @"_SM7__constG2-84"
}

define void @"_SM15scala.Function2D6$init$uEO"(ptr %_1) personality ptr @__gxx_personality_v0 {
_2000000.0:
  ret void
}

define nonnull dereferenceable(32) ptr @"_SM15scala.Function2D8toStringL16java.lang.StringEO"(ptr %_1) personality ptr @__gxx_personality_v0 {
_2000000.0:
  ret ptr @"_SM7__constG2-86"
}

define i64 @"_SM10scala.Int$D8int2longijEO"(ptr %_1, i32 %_2) personality ptr @__gxx_personality_v0 {
_3000000.0:
  %_3000002 = sext i32 %_2 to i64
  ret i64 %_3000002
}

define nonnull dereferenceable(32) ptr @"_SM10scala.Int$D8toStringL16java.lang.StringEO"(ptr %_1) personality ptr @__gxx_personality_v0 {
_2000000.0:
  ret ptr @"_SM7__constG2-88"
}

define void @"_SM10scala.Int$RE"(ptr %_1) personality ptr @__gxx_personality_v0 {
_2000000.0:
  ret void
}

define i32 @"_SM26scala.LowPriorityImplicitsD10intWrapperiiEO"(ptr %_1, i32 %_2) inlinehint personality ptr @__gxx_personality_v0 {
_3000000.0:
  ret i32 %_2
}

define dereferenceable_or_null(16) ptr @"_SM26scala.LowPriorityImplicitsD12wrapIntArrayLAi_L39scala.collection.mutable.ArraySeq$ofIntEO"(ptr %_1, ptr %_2) personality ptr @__gxx_personality_v0 {
_3000000.0:
  %_3000002 = icmp ne ptr %_2, null
  br i1 %_3000002, label %_4000000.0, label %_5000000.0
_4000000.0:
  %_10000001 = call dereferenceable_or_null(16) ptr @"scalanative_GC_alloc_small"(ptr @"_SM39scala.collection.mutable.ArraySeq$ofIntG4type", i64 16)
  %_12000003 = getelementptr { { ptr }, ptr }, { { ptr }, ptr }* %_10000001, i32 0, i32 1
  store ptr %_2, ptr%_12000003, align 8
  call void @"_SM29scala.collection.IterableOnceD6$init$uEO"(ptr nonnull dereferenceable(16) %_10000001)
  call void @"_SM32scala.collection.IterableOnceOpsD6$init$uEO"(ptr nonnull dereferenceable(16) %_10000001)
  call void @"_SM28scala.collection.IterableOpsD6$init$uEO"(ptr nonnull dereferenceable(16) %_10000001)
  call void @"_SM40scala.collection.IterableFactoryDefaultsD6$init$uEO"(ptr nonnull dereferenceable(16) %_10000001)
  call void @"_SM25scala.collection.IterableD6$init$uEO"(ptr nonnull dereferenceable(16) %_10000001)
  call void @"_SM15scala.Function1D6$init$uEO"(ptr nonnull dereferenceable(16) %_10000001)
  call void @"_SM21scala.PartialFunctionD6$init$uEO"(ptr nonnull dereferenceable(16) %_10000001)
  call void @"_SM23scala.collection.SeqOpsD6$init$uEO"(ptr nonnull dereferenceable(16) %_10000001)
  call void @"_SM20scala.collection.SeqD6$init$uEO"(ptr nonnull dereferenceable(16) %_10000001)
  call void @"_SM33scala.collection.mutable.IterableD6$init$uEO"(ptr nonnull dereferenceable(16) %_10000001)
  call void @"_SM34scala.collection.mutable.CloneableD6$init$uEO"(ptr nonnull dereferenceable(16) %_10000001)
  call void @"_SM31scala.collection.mutable.SeqOpsD6$init$uEO"(ptr nonnull dereferenceable(16) %_10000001)
  call void @"_SM28scala.collection.mutable.SeqD6$init$uEO"(ptr nonnull dereferenceable(16) %_10000001)
  call void @"_SM30scala.collection.IndexedSeqOpsD6$init$uEO"(ptr nonnull dereferenceable(16) %_10000001)
  call void @"_SM27scala.collection.IndexedSeqD6$init$uEO"(ptr nonnull dereferenceable(16) %_10000001)
  call void @"_SM38scala.collection.mutable.IndexedSeqOpsD6$init$uEO"(ptr nonnull dereferenceable(16) %_10000001)
  call void @"_SM35scala.collection.mutable.IndexedSeqD6$init$uEO"(ptr nonnull dereferenceable(16) %_10000001)
  call void @"_SM43scala.collection.StrictOptimizedIterableOpsD6$init$uEO"(ptr nonnull dereferenceable(16) %_10000001)
  call void @"_SM38scala.collection.StrictOptimizedSeqOpsD6$init$uEO"(ptr nonnull dereferenceable(16) %_10000001)
  br label %_12000000.0
_5000000.0:
  br label %_12000000.0
_12000000.0:
  %_12000001 = phi ptr [null, %_5000000.0], [%_10000001, %_4000000.0]
  ret ptr %_12000001
}

define dereferenceable_or_null(32) ptr @"_SM16scala.MatchErrorD10getMessageL16java.lang.StringEO"(ptr %_1) personality ptr @__gxx_personality_v0 {
_2000000.0:
  %_6000004 = icmp ne ptr %_1, null
  br i1 %_6000004, label %_6000002.0, label %_6000003.0
_6000002.0:
  %_6000005 = getelementptr { { ptr }, ptr, ptr, ptr, i1, i1, ptr, ptr, i1 }, { { ptr }, ptr, ptr, ptr, i1, i1, ptr, ptr, i1 }* %_1, i32 0, i32 8
  %_6000006 = load i8, ptr %_6000005
  %_3000001 = trunc i8 %_6000006 to i1
  %_3000003 = xor i1 %_3000001, true
  br i1 %_3000003, label %_4000000.0, label %_5000000.0
_4000000.0:
  %_4000001 = call dereferenceable_or_null(32) ptr @"_SM16scala.MatchErrorD20objString$lzycomputeL16java.lang.StringEPT16scala.MatchError"(ptr dereferenceable_or_null(64) %_1)
  br label %_6000000.0
_5000000.0:
  %_6000007 = getelementptr { { ptr }, ptr, ptr, ptr, i1, i1, ptr, ptr, i1 }, { { ptr }, ptr, ptr, ptr, i1, i1, ptr, ptr, i1 }* %_1, i32 0, i32 7
  %_5000001 = load ptr, ptr %_6000007, !dereferenceable_or_null !{i64 32}
  br label %_6000000.0
_6000000.0:
  %_6000001 = phi ptr [%_5000001, %_5000000.0], [%_4000001, %_4000000.0]
  ret ptr %_6000001
_6000003.0:
  call ptr @"_SM34scala.scalanative.runtime.package$D16throwNullPointernEO"(ptr null)
  unreachable
}

define dereferenceable_or_null(32) ptr @"_SM16scala.MatchErrorD13liftedTree1$1L16java.lang.StringEPT16scala.MatchError"(ptr %_1) personality ptr @__gxx_personality_v0 {
_2.0:
  br label %_5.0
_5.0:
  %_10 = invoke dereferenceable_or_null(24) ptr @"scalanative_GC_alloc_small"(ptr @"_SM23java.lang.StringBuilderG4type", i64 24) to label %_5.1 unwind label %_42.landingpad
_5.1:
  invoke void @"_SM23java.lang.StringBuilderRiE"(ptr nonnull dereferenceable(24) %_10, i32 3) to label %_5.2 unwind label %_45.landingpad
_5.2:
  %_51 = icmp ne ptr %_1, null
  br i1 %_51, label %_48.0, label %_49.0
_48.0:
  %_53 = getelementptr { { ptr }, ptr, ptr, ptr, i1, i1, ptr, ptr, i1 }, { { ptr }, ptr, ptr, ptr, i1, i1, ptr, ptr, i1 }* %_1, i32 0, i32 6
  %_14 = load ptr, ptr %_53, !dereferenceable_or_null !{i64 8}
  %_16 = invoke dereferenceable_or_null(24) ptr @"_SM23java.lang.StringBuilderD6appendL16java.lang.ObjectL23java.lang.StringBuilderEO"(ptr nonnull dereferenceable(24) %_10, ptr dereferenceable_or_null(8) %_14) to label %_48.1 unwind label %_56.landingpad
_48.1:
  %_18 = invoke dereferenceable_or_null(24) ptr @"_SM23java.lang.StringBuilderD6appendL16java.lang.StringL23java.lang.StringBuilderEO"(ptr nonnull dereferenceable(24) %_10, ptr @"_SM7__constG2-90") to label %_48.2 unwind label %_58.landingpad
_48.2:
  %_22 = invoke dereferenceable_or_null(32) ptr @"_SM16scala.MatchErrorD9ofClass$1L16java.lang.StringEPT16scala.MatchError"(ptr dereferenceable_or_null(64) %_1) to label %_48.3 unwind label %_62.landingpad
_48.3:
  %_24 = invoke dereferenceable_or_null(24) ptr @"_SM23java.lang.StringBuilderD6appendL16java.lang.StringL23java.lang.StringBuilderEO"(ptr nonnull dereferenceable(24) %_10, ptr dereferenceable_or_null(32) %_22) to label %_48.4 unwind label %_64.landingpad
_48.4:
  %_26 = invoke dereferenceable_or_null(24) ptr @"_SM23java.lang.StringBuilderD6appendL16java.lang.StringL23java.lang.StringBuilderEO"(ptr nonnull dereferenceable(24) %_10, ptr @"_SM7__constG2-92") to label %_48.5 unwind label %_66.landingpad
_48.5:
  %_28 = invoke dereferenceable_or_null(32) ptr @"_SM23java.lang.StringBuilderD8toStringL16java.lang.StringEO"(ptr nonnull dereferenceable(24) %_10) to label %_48.6 unwind label %_68.landingpad
_48.6:
  br label %_6.0
_3.0:
  %_7 = phi ptr [%_27, %_67.0], [%_25, %_65.0], [%_23, %_63.0], [%_21, %_61.0], [%_19, %_59.0], [%_17, %_57.0], [%_15, %_55.0], [%_13, %_47.0], [%_11, %_43.0], [%_9, %_41.0]
  %_72 = icmp eq ptr %_7, null
  br i1 %_72, label %_69.0, label %_70.0
_69.0:
  br label %_71.0
_70.0:
  %_73 = load ptr, ptr %_7
  %_74 = getelementptr { ptr, i32, i32, ptr }, { ptr, i32, i32, ptr }* %_73, i32 0, i32 1
  %_75 = load i32, ptr %_74
  %_76 = icmp sle i32 417, %_75
  %_77 = icmp sle i32 %_75, 474
  %_78 = and i1 %_76, %_77
  br label %_71.0
_71.0:
  %_29 = phi i1 [%_78, %_70.0], [false, %_69.0]
  br i1 %_29, label %_30.0, label %_31.0
_30.0:
  %_34 = call dereferenceable_or_null(24) ptr @"scalanative_GC_alloc_small"(ptr @"_SM23java.lang.StringBuilderG4type", i64 24)
  call void @"_SM23java.lang.StringBuilderRiE"(ptr nonnull dereferenceable(24) %_34, i32 12)
  %_36 = call dereferenceable_or_null(24) ptr @"_SM23java.lang.StringBuilderD6appendL16java.lang.StringL23java.lang.StringBuilderEO"(ptr nonnull dereferenceable(24) %_34, ptr @"_SM7__constG2-94")
  %_38 = call dereferenceable_or_null(32) ptr @"_SM16scala.MatchErrorD9ofClass$1L16java.lang.StringEPT16scala.MatchError"(ptr dereferenceable_or_null(64) %_1)
  %_39 = call dereferenceable_or_null(24) ptr @"_SM23java.lang.StringBuilderD6appendL16java.lang.StringL23java.lang.StringBuilderEO"(ptr nonnull dereferenceable(24) %_34, ptr dereferenceable_or_null(32) %_38)
  %_40 = call dereferenceable_or_null(32) ptr @"_SM23java.lang.StringBuilderD8toStringL16java.lang.StringEO"(ptr nonnull dereferenceable(24) %_34)
  br label %_6.0
_31.0:
  %_82 = icmp ne ptr %_7, null
  br i1 %_82, label %_80.0, label %_81.0
_80.0:
  call ptr @"scalanative_throw"(ptr dereferenceable_or_null(8) %_7)
  unreachable
_6.0:
  %_8 = phi ptr [%_28, %_48.6], [%_40, %_30.0]
  ret ptr %_8
_49.0:
  invoke ptr @"_SM34scala.scalanative.runtime.package$D16throwNullPointernEO"(ptr null) to label %_49.1 unwind label %_84.landingpad
_49.1:
  unreachable
_81.0:
  call ptr @"_SM34scala.scalanative.runtime.package$D16throwNullPointernEO"(ptr null)
  unreachable
_41.0:
  %_9 = phi ptr [%_42, %_42.landingpad.succ]
  br label %_3.0
_43.0:
  %_11 = phi ptr [%_45, %_45.landingpad.succ]
  br label %_3.0
_47.0:
  %_13 = phi ptr [%_50, %_50.landingpad.succ], [%_84, %_84.landingpad.succ], [%_52, %_52.landingpad.succ], [%_54, %_54.landingpad.succ]
  br label %_3.0
_55.0:
  %_15 = phi ptr [%_56, %_56.landingpad.succ]
  br label %_3.0
_57.0:
  %_17 = phi ptr [%_58, %_58.landingpad.succ]
  br label %_3.0
_59.0:
  %_19 = phi ptr [%_60, %_60.landingpad.succ]
  br label %_3.0
_61.0:
  %_21 = phi ptr [%_62, %_62.landingpad.succ]
  br label %_3.0
_63.0:
  %_23 = phi ptr [%_64, %_64.landingpad.succ]
  br label %_3.0
_65.0:
  %_25 = phi ptr [%_66, %_66.landingpad.succ]
  br label %_3.0
_67.0:
  %_27 = phi ptr [%_68, %_68.landingpad.succ]
  br label %_3.0
_42.landingpad:
  %_98 = landingpad { ptr, i32 } catch ptr @_ZTIN11scalanative16ExceptionWrapperE
  %_99 = extractvalue { ptr, i32 } %_98, 0
  %_100 = extractvalue { ptr, i32 } %_98, 1
  %_101 = call i32 @llvm.eh.typeid.for(ptr @_ZTIN11scalanative16ExceptionWrapperE)
  %_102 = icmp eq i32 %_100, %_101
  br i1 %_102, label %_42.landingpad.succ, label %_42.landingpad.fail
_42.landingpad.succ:
  %_103 = call ptr @__cxa_begin_catch(ptr %_99)
  %_105 = getelementptr ptr, ptr %_103, i32 1
  %_42 = load ptr, ptr %_105
  call void @__cxa_end_catch()br label %_41.0
_42.landingpad.fail:
  resume { ptr, i32 } %_98
_45.landingpad:
  %_106 = landingpad { ptr, i32 } catch ptr @_ZTIN11scalanative16ExceptionWrapperE
  %_107 = extractvalue { ptr, i32 } %_106, 0
  %_108 = extractvalue { ptr, i32 } %_106, 1
  %_109 = call i32 @llvm.eh.typeid.for(ptr @_ZTIN11scalanative16ExceptionWrapperE)
  %_110 = icmp eq i32 %_108, %_109
  br i1 %_110, label %_45.landingpad.succ, label %_45.landingpad.fail
_45.landingpad.succ:
  %_111 = call ptr @__cxa_begin_catch(ptr %_107)
  %_113 = getelementptr ptr, ptr %_111, i32 1
  %_45 = load ptr, ptr %_113
  call void @__cxa_end_catch()br label %_43.0
_45.landingpad.fail:
  resume { ptr, i32 } %_106
_50.landingpad:
  %_114 = landingpad { ptr, i32 } catch ptr @_ZTIN11scalanative16ExceptionWrapperE
  %_115 = extractvalue { ptr, i32 } %_114, 0
  %_116 = extractvalue { ptr, i32 } %_114, 1
  %_117 = call i32 @llvm.eh.typeid.for(ptr @_ZTIN11scalanative16ExceptionWrapperE)
  %_118 = icmp eq i32 %_116, %_117
  br i1 %_118, label %_50.landingpad.succ, label %_50.landingpad.fail
_50.landingpad.succ:
  %_119 = call ptr @__cxa_begin_catch(ptr %_115)
  %_121 = getelementptr ptr, ptr %_119, i32 1
  %_50 = load ptr, ptr %_121
  call void @__cxa_end_catch()br label %_47.0
_50.landingpad.fail:
  resume { ptr, i32 } %_114
_52.landingpad:
  %_122 = landingpad { ptr, i32 } catch ptr @_ZTIN11scalanative16ExceptionWrapperE
  %_123 = extractvalue { ptr, i32 } %_122, 0
  %_124 = extractvalue { ptr, i32 } %_122, 1
  %_125 = call i32 @llvm.eh.typeid.for(ptr @_ZTIN11scalanative16ExceptionWrapperE)
  %_126 = icmp eq i32 %_124, %_125
  br i1 %_126, label %_52.landingpad.succ, label %_52.landingpad.fail
_52.landingpad.succ:
  %_127 = call ptr @__cxa_begin_catch(ptr %_123)
  %_129 = getelementptr ptr, ptr %_127, i32 1
  %_52 = load ptr, ptr %_129
  call void @__cxa_end_catch()br label %_47.0
_52.landingpad.fail:
  resume { ptr, i32 } %_122
_54.landingpad:
  %_130 = landingpad { ptr, i32 } catch ptr @_ZTIN11scalanative16ExceptionWrapperE
  %_131 = extractvalue { ptr, i32 } %_130, 0
  %_132 = extractvalue { ptr, i32 } %_130, 1
  %_133 = call i32 @llvm.eh.typeid.for(ptr @_ZTIN11scalanative16ExceptionWrapperE)
  %_134 = icmp eq i32 %_132, %_133
  br i1 %_134, label %_54.landingpad.succ, label %_54.landingpad.fail
_54.landingpad.succ:
  %_135 = call ptr @__cxa_begin_catch(ptr %_131)
  %_137 = getelementptr ptr, ptr %_135, i32 1
  %_54 = load ptr, ptr %_137
  call void @__cxa_end_catch()br label %_47.0
_54.landingpad.fail:
  resume { ptr, i32 } %_130
_56.landingpad:
  %_138 = landingpad { ptr, i32 } catch ptr @_ZTIN11scalanative16ExceptionWrapperE
  %_139 = extractvalue { ptr, i32 } %_138, 0
  %_140 = extractvalue { ptr, i32 } %_138, 1
  %_141 = call i32 @llvm.eh.typeid.for(ptr @_ZTIN11scalanative16ExceptionWrapperE)
  %_142 = icmp eq i32 %_140, %_141
  br i1 %_142, label %_56.landingpad.succ, label %_56.landingpad.fail
_56.landingpad.succ:
  %_143 = call ptr @__cxa_begin_catch(ptr %_139)
  %_145 = getelementptr ptr, ptr %_143, i32 1
  %_56 = load ptr, ptr %_145
  call void @__cxa_end_catch()br label %_55.0
_56.landingpad.fail:
  resume { ptr, i32 } %_138
_58.landingpad:
  %_146 = landingpad { ptr, i32 } catch ptr @_ZTIN11scalanative16ExceptionWrapperE
  %_147 = extractvalue { ptr, i32 } %_146, 0
  %_148 = extractvalue { ptr, i32 } %_146, 1
  %_149 = call i32 @llvm.eh.typeid.for(ptr @_ZTIN11scalanative16ExceptionWrapperE)
  %_150 = icmp eq i32 %_148, %_149
  br i1 %_150, label %_58.landingpad.succ, label %_58.landingpad.fail
_58.landingpad.succ:
  %_151 = call ptr @__cxa_begin_catch(ptr %_147)
  %_153 = getelementptr ptr, ptr %_151, i32 1
  %_58 = load ptr, ptr %_153
  call void @__cxa_end_catch()br label %_57.0
_58.landingpad.fail:
  resume { ptr, i32 } %_146
_60.landingpad:
  %_154 = landingpad { ptr, i32 } catch ptr @_ZTIN11scalanative16ExceptionWrapperE
  %_155 = extractvalue { ptr, i32 } %_154, 0
  %_156 = extractvalue { ptr, i32 } %_154, 1
  %_157 = call i32 @llvm.eh.typeid.for(ptr @_ZTIN11scalanative16ExceptionWrapperE)
  %_158 = icmp eq i32 %_156, %_157
  br i1 %_158, label %_60.landingpad.succ, label %_60.landingpad.fail
_60.landingpad.succ:
  %_159 = call ptr @__cxa_begin_catch(ptr %_155)
  %_161 = getelementptr ptr, ptr %_159, i32 1
  %_60 = load ptr, ptr %_161
  call void @__cxa_end_catch()br label %_59.0
_60.landingpad.fail:
  resume { ptr, i32 } %_154
_62.landingpad:
  %_162 = landingpad { ptr, i32 } catch ptr @_ZTIN11scalanative16ExceptionWrapperE
  %_163 = extractvalue { ptr, i32 } %_162, 0
  %_164 = extractvalue { ptr, i32 } %_162, 1
  %_165 = call i32 @llvm.eh.typeid.for(ptr @_ZTIN11scalanative16ExceptionWrapperE)
  %_166 = icmp eq i32 %_164, %_165
  br i1 %_166, label %_62.landingpad.succ, label %_62.landingpad.fail
_62.landingpad.succ:
  %_167 = call ptr @__cxa_begin_catch(ptr %_163)
  %_169 = getelementptr ptr, ptr %_167, i32 1
  %_62 = load ptr, ptr %_169
  call void @__cxa_end_catch()br label %_61.0
_62.landingpad.fail:
  resume { ptr, i32 } %_162
_64.landingpad:
  %_170 = landingpad { ptr, i32 } catch ptr @_ZTIN11scalanative16ExceptionWrapperE
  %_171 = extractvalue { ptr, i32 } %_170, 0
  %_172 = extractvalue { ptr, i32 } %_170, 1
  %_173 = call i32 @llvm.eh.typeid.for(ptr @_ZTIN11scalanative16ExceptionWrapperE)
  %_174 = icmp eq i32 %_172, %_173
  br i1 %_174, label %_64.landingpad.succ, label %_64.landingpad.fail
_64.landingpad.succ:
  %_175 = call ptr @__cxa_begin_catch(ptr %_171)
  %_177 = getelementptr ptr, ptr %_175, i32 1
  %_64 = load ptr, ptr %_177
  call void @__cxa_end_catch()br label %_63.0
_64.landingpad.fail:
  resume { ptr, i32 } %_170
_66.landingpad:
  %_178 = landingpad { ptr, i32 } catch ptr @_ZTIN11scalanative16ExceptionWrapperE
  %_179 = extractvalue { ptr, i32 } %_178, 0
  %_180 = extractvalue { ptr, i32 } %_178, 1
  %_181 = call i32 @llvm.eh.typeid.for(ptr @_ZTIN11scalanative16ExceptionWrapperE)
  %_182 = icmp eq i32 %_180, %_181
  br i1 %_182, label %_66.landingpad.succ, label %_66.landingpad.fail
_66.landingpad.succ:
  %_183 = call ptr @__cxa_begin_catch(ptr %_179)
  %_185 = getelementptr ptr, ptr %_183, i32 1
  %_66 = load ptr, ptr %_185
  call void @__cxa_end_catch()br label %_65.0
_66.landingpad.fail:
  resume { ptr, i32 } %_178
_68.landingpad:
  %_186 = landingpad { ptr, i32 } catch ptr @_ZTIN11scalanative16ExceptionWrapperE
  %_187 = extractvalue { ptr, i32 } %_186, 0
  %_188 = extractvalue { ptr, i32 } %_186, 1
  %_189 = call i32 @llvm.eh.typeid.for(ptr @_ZTIN11scalanative16ExceptionWrapperE)
  %_190 = icmp eq i32 %_188, %_189
  br i1 %_190, label %_68.landingpad.succ, label %_68.landingpad.fail
_68.landingpad.succ:
  %_191 = call ptr @__cxa_begin_catch(ptr %_187)
  %_193 = getelementptr ptr, ptr %_191, i32 1
  %_68 = load ptr, ptr %_193
  call void @__cxa_end_catch()br label %_67.0
_68.landingpad.fail:
  resume { ptr, i32 } %_186
_84.landingpad:
  %_194 = landingpad { ptr, i32 } catch ptr @_ZTIN11scalanative16ExceptionWrapperE
  %_195 = extractvalue { ptr, i32 } %_194, 0
  %_196 = extractvalue { ptr, i32 } %_194, 1
  %_197 = call i32 @llvm.eh.typeid.for(ptr @_ZTIN11scalanative16ExceptionWrapperE)
  %_198 = icmp eq i32 %_196, %_197
  br i1 %_198, label %_84.landingpad.succ, label %_84.landingpad.fail
_84.landingpad.succ:
  %_199 = call ptr @__cxa_begin_catch(ptr %_195)
  %_201 = getelementptr ptr, ptr %_199, i32 1
  %_84 = load ptr, ptr %_201
  call void @__cxa_end_catch()br label %_47.0
_84.landingpad.fail:
  resume { ptr, i32 } %_194
}

define dereferenceable_or_null(32) ptr @"_SM16scala.MatchErrorD20objString$lzycomputeL16java.lang.StringEPT16scala.MatchError"(ptr %_1) personality ptr @__gxx_personality_v0 {
_2.0:
  call void @"_SM33scala.scalanative.runtime.packageD12enterMonitorL16java.lang.ObjectuEo"(ptr dereferenceable_or_null(64) %_1)
  br label %_3.0
_3.0:
  %_46 = icmp ne ptr %_1, null
  br i1 %_46, label %_43.0, label %_44.0
_43.0:
  %_48 = getelementptr { { ptr }, ptr, ptr, ptr, i1, i1, ptr, ptr, i1 }, { { ptr }, ptr, ptr, ptr, i1, i1, ptr, ptr, i1 }* %_1, i32 0, i32 8
  %_49 = load i8, ptr %_48
  %_12 = trunc i8 %_49 to i1
  %_14 = xor i1 true, %_12
  br i1 %_14, label %_7.0, label %_8.0
_7.0:
  %_56 = getelementptr { { ptr }, ptr, ptr, ptr, i1, i1, ptr, ptr, i1 }, { { ptr }, ptr, ptr, ptr, i1, i1, ptr, ptr, i1 }* %_1, i32 0, i32 6
  %_20 = load ptr, ptr %_56, !dereferenceable_or_null !{i64 8}
  %_22 = icmp eq ptr %_20, null
  br i1 %_22, label %_15.0, label %_16.0
_15.0:
  br label %_17.0
_16.0:
  %_26 = invoke dereferenceable_or_null(32) ptr @"_SM16scala.MatchErrorD13liftedTree1$1L16java.lang.StringEPT16scala.MatchError"(ptr dereferenceable_or_null(64) %_1) to label %_16.1 unwind label %_63.landingpad
_16.1:
  br label %_17.0
_17.0:
  %_18 = phi ptr [%_26, %_16.1], [@"_SM7__constG2-82", %_15.0]
  %_67 = getelementptr { { ptr }, ptr, ptr, ptr, i1, i1, ptr, ptr, i1 }, { { ptr }, ptr, ptr, ptr, i1, i1, ptr, ptr, i1 }* %_1, i32 0, i32 7
  store ptr %_18, ptr%_67, align 8
  %_73 = getelementptr { { ptr }, ptr, ptr, ptr, i1, i1, ptr, ptr, i1 }, { { ptr }, ptr, ptr, ptr, i1, i1, ptr, ptr, i1 }* %_1, i32 0, i32 8
  %_74 = zext i1 true to i8
  store i8 %_74, ptr%_73, align 1
  br label %_9.0
_8.0:
  br label %_9.0
_9.0:
  br label %_33.0
_4.0:
  %_31 = phi ptr [%_29, %_70.0], [%_27, %_64.0], [%_25, %_62.0], [%_23, %_60.0], [%_21, %_58.0], [%_19, %_54.0], [%_13, %_52.0], [%_11, %_42.0]
  br label %_35.0
_33.0:
  call void @"_SM33scala.scalanative.runtime.packageD11exitMonitorL16java.lang.ObjectuEo"(ptr dereferenceable_or_null(64) %_1)
  br label %_5.0
_35.0:
  call void @"_SM33scala.scalanative.runtime.packageD11exitMonitorL16java.lang.ObjectuEo"(ptr dereferenceable_or_null(64) %_1)
  %_82 = icmp ne ptr %_31, null
  br i1 %_82, label %_80.0, label %_81.0
_80.0:
  call ptr @"scalanative_throw"(ptr dereferenceable_or_null(8) %_31)
  unreachable
_5.0:
  %_84 = getelementptr { { ptr }, ptr, ptr, ptr, i1, i1, ptr, ptr, i1 }, { { ptr }, ptr, ptr, ptr, i1, i1, ptr, ptr, i1 }* %_1, i32 0, i32 7
  %_40 = load ptr, ptr %_84, !dereferenceable_or_null !{i64 32}
  ret ptr %_40
_44.0:
  invoke ptr @"_SM34scala.scalanative.runtime.package$D16throwNullPointernEO"(ptr null) to label %_44.1 unwind label %_85.landingpad
_44.1:
  unreachable
_81.0:
  call ptr @"_SM34scala.scalanative.runtime.package$D16throwNullPointernEO"(ptr null)
  unreachable
_42.0:
  %_11 = phi ptr [%_45, %_45.landingpad.succ], [%_85, %_85.landingpad.succ], [%_47, %_47.landingpad.succ], [%_50, %_50.landingpad.succ], [%_51, %_51.landingpad.succ]
  br label %_4.0
_52.0:
  %_13 = phi ptr [%_53, %_53.landingpad.succ]
  br label %_4.0
_54.0:
  %_19 = phi ptr [%_55, %_55.landingpad.succ], [%_57, %_57.landingpad.succ]
  br label %_4.0
_58.0:
  %_21 = phi ptr [%_59, %_59.landingpad.succ]
  br label %_4.0
_60.0:
  %_23 = phi ptr [%_61, %_61.landingpad.succ]
  br label %_4.0
_62.0:
  %_25 = phi ptr [%_63, %_63.landingpad.succ]
  br label %_4.0
_64.0:
  %_27 = phi ptr [%_66, %_66.landingpad.succ], [%_68, %_68.landingpad.succ]
  br label %_4.0
_70.0:
  %_29 = phi ptr [%_72, %_72.landingpad.succ], [%_75, %_75.landingpad.succ], [%_76, %_76.landingpad.succ]
  br label %_4.0
_45.landingpad:
  %_104 = landingpad { ptr, i32 } catch ptr @_ZTIN11scalanative16ExceptionWrapperE
  %_105 = extractvalue { ptr, i32 } %_104, 0
  %_106 = extractvalue { ptr, i32 } %_104, 1
  %_107 = call i32 @llvm.eh.typeid.for(ptr @_ZTIN11scalanative16ExceptionWrapperE)
  %_108 = icmp eq i32 %_106, %_107
  br i1 %_108, label %_45.landingpad.succ, label %_45.landingpad.fail
_45.landingpad.succ:
  %_109 = call ptr @__cxa_begin_catch(ptr %_105)
  %_111 = getelementptr ptr, ptr %_109, i32 1
  %_45 = load ptr, ptr %_111
  call void @__cxa_end_catch()br label %_42.0
_45.landingpad.fail:
  resume { ptr, i32 } %_104
_47.landingpad:
  %_112 = landingpad { ptr, i32 } catch ptr @_ZTIN11scalanative16ExceptionWrapperE
  %_113 = extractvalue { ptr, i32 } %_112, 0
  %_114 = extractvalue { ptr, i32 } %_112, 1
  %_115 = call i32 @llvm.eh.typeid.for(ptr @_ZTIN11scalanative16ExceptionWrapperE)
  %_116 = icmp eq i32 %_114, %_115
  br i1 %_116, label %_47.landingpad.succ, label %_47.landingpad.fail
_47.landingpad.succ:
  %_117 = call ptr @__cxa_begin_catch(ptr %_113)
  %_119 = getelementptr ptr, ptr %_117, i32 1
  %_47 = load ptr, ptr %_119
  call void @__cxa_end_catch()br label %_42.0
_47.landingpad.fail:
  resume { ptr, i32 } %_112
_50.landingpad:
  %_120 = landingpad { ptr, i32 } catch ptr @_ZTIN11scalanative16ExceptionWrapperE
  %_121 = extractvalue { ptr, i32 } %_120, 0
  %_122 = extractvalue { ptr, i32 } %_120, 1
  %_123 = call i32 @llvm.eh.typeid.for(ptr @_ZTIN11scalanative16ExceptionWrapperE)
  %_124 = icmp eq i32 %_122, %_123
  br i1 %_124, label %_50.landingpad.succ, label %_50.landingpad.fail
_50.landingpad.succ:
  %_125 = call ptr @__cxa_begin_catch(ptr %_121)
  %_127 = getelementptr ptr, ptr %_125, i32 1
  %_50 = load ptr, ptr %_127
  call void @__cxa_end_catch()br label %_42.0
_50.landingpad.fail:
  resume { ptr, i32 } %_120
_51.landingpad:
  %_128 = landingpad { ptr, i32 } catch ptr @_ZTIN11scalanative16ExceptionWrapperE
  %_129 = extractvalue { ptr, i32 } %_128, 0
  %_130 = extractvalue { ptr, i32 } %_128, 1
  %_131 = call i32 @llvm.eh.typeid.for(ptr @_ZTIN11scalanative16ExceptionWrapperE)
  %_132 = icmp eq i32 %_130, %_131
  br i1 %_132, label %_51.landingpad.succ, label %_51.landingpad.fail
_51.landingpad.succ:
  %_133 = call ptr @__cxa_begin_catch(ptr %_129)
  %_135 = getelementptr ptr, ptr %_133, i32 1
  %_51 = load ptr, ptr %_135
  call void @__cxa_end_catch()br label %_42.0
_51.landingpad.fail:
  resume { ptr, i32 } %_128
_53.landingpad:
  %_136 = landingpad { ptr, i32 } catch ptr @_ZTIN11scalanative16ExceptionWrapperE
  %_137 = extractvalue { ptr, i32 } %_136, 0
  %_138 = extractvalue { ptr, i32 } %_136, 1
  %_139 = call i32 @llvm.eh.typeid.for(ptr @_ZTIN11scalanative16ExceptionWrapperE)
  %_140 = icmp eq i32 %_138, %_139
  br i1 %_140, label %_53.landingpad.succ, label %_53.landingpad.fail
_53.landingpad.succ:
  %_141 = call ptr @__cxa_begin_catch(ptr %_137)
  %_143 = getelementptr ptr, ptr %_141, i32 1
  %_53 = load ptr, ptr %_143
  call void @__cxa_end_catch()br label %_52.0
_53.landingpad.fail:
  resume { ptr, i32 } %_136
_55.landingpad:
  %_144 = landingpad { ptr, i32 } catch ptr @_ZTIN11scalanative16ExceptionWrapperE
  %_145 = extractvalue { ptr, i32 } %_144, 0
  %_146 = extractvalue { ptr, i32 } %_144, 1
  %_147 = call i32 @llvm.eh.typeid.for(ptr @_ZTIN11scalanative16ExceptionWrapperE)
  %_148 = icmp eq i32 %_146, %_147
  br i1 %_148, label %_55.landingpad.succ, label %_55.landingpad.fail
_55.landingpad.succ:
  %_149 = call ptr @__cxa_begin_catch(ptr %_145)
  %_151 = getelementptr ptr, ptr %_149, i32 1
  %_55 = load ptr, ptr %_151
  call void @__cxa_end_catch()br label %_54.0
_55.landingpad.fail:
  resume { ptr, i32 } %_144
_57.landingpad:
  %_152 = landingpad { ptr, i32 } catch ptr @_ZTIN11scalanative16ExceptionWrapperE
  %_153 = extractvalue { ptr, i32 } %_152, 0
  %_154 = extractvalue { ptr, i32 } %_152, 1
  %_155 = call i32 @llvm.eh.typeid.for(ptr @_ZTIN11scalanative16ExceptionWrapperE)
  %_156 = icmp eq i32 %_154, %_155
  br i1 %_156, label %_57.landingpad.succ, label %_57.landingpad.fail
_57.landingpad.succ:
  %_157 = call ptr @__cxa_begin_catch(ptr %_153)
  %_159 = getelementptr ptr, ptr %_157, i32 1
  %_57 = load ptr, ptr %_159
  call void @__cxa_end_catch()br label %_54.0
_57.landingpad.fail:
  resume { ptr, i32 } %_152
_59.landingpad:
  %_160 = landingpad { ptr, i32 } catch ptr @_ZTIN11scalanative16ExceptionWrapperE
  %_161 = extractvalue { ptr, i32 } %_160, 0
  %_162 = extractvalue { ptr, i32 } %_160, 1
  %_163 = call i32 @llvm.eh.typeid.for(ptr @_ZTIN11scalanative16ExceptionWrapperE)
  %_164 = icmp eq i32 %_162, %_163
  br i1 %_164, label %_59.landingpad.succ, label %_59.landingpad.fail
_59.landingpad.succ:
  %_165 = call ptr @__cxa_begin_catch(ptr %_161)
  %_167 = getelementptr ptr, ptr %_165, i32 1
  %_59 = load ptr, ptr %_167
  call void @__cxa_end_catch()br label %_58.0
_59.landingpad.fail:
  resume { ptr, i32 } %_160
_61.landingpad:
  %_168 = landingpad { ptr, i32 } catch ptr @_ZTIN11scalanative16ExceptionWrapperE
  %_169 = extractvalue { ptr, i32 } %_168, 0
  %_170 = extractvalue { ptr, i32 } %_168, 1
  %_171 = call i32 @llvm.eh.typeid.for(ptr @_ZTIN11scalanative16ExceptionWrapperE)
  %_172 = icmp eq i32 %_170, %_171
  br i1 %_172, label %_61.landingpad.succ, label %_61.landingpad.fail
_61.landingpad.succ:
  %_173 = call ptr @__cxa_begin_catch(ptr %_169)
  %_175 = getelementptr ptr, ptr %_173, i32 1
  %_61 = load ptr, ptr %_175
  call void @__cxa_end_catch()br label %_60.0
_61.landingpad.fail:
  resume { ptr, i32 } %_168
_63.landingpad:
  %_176 = landingpad { ptr, i32 } catch ptr @_ZTIN11scalanative16ExceptionWrapperE
  %_177 = extractvalue { ptr, i32 } %_176, 0
  %_178 = extractvalue { ptr, i32 } %_176, 1
  %_179 = call i32 @llvm.eh.typeid.for(ptr @_ZTIN11scalanative16ExceptionWrapperE)
  %_180 = icmp eq i32 %_178, %_179
  br i1 %_180, label %_63.landingpad.succ, label %_63.landingpad.fail
_63.landingpad.succ:
  %_181 = call ptr @__cxa_begin_catch(ptr %_177)
  %_183 = getelementptr ptr, ptr %_181, i32 1
  %_63 = load ptr, ptr %_183
  call void @__cxa_end_catch()br label %_62.0
_63.landingpad.fail:
  resume { ptr, i32 } %_176
_66.landingpad:
  %_184 = landingpad { ptr, i32 } catch ptr @_ZTIN11scalanative16ExceptionWrapperE
  %_185 = extractvalue { ptr, i32 } %_184, 0
  %_186 = extractvalue { ptr, i32 } %_184, 1
  %_187 = call i32 @llvm.eh.typeid.for(ptr @_ZTIN11scalanative16ExceptionWrapperE)
  %_188 = icmp eq i32 %_186, %_187
  br i1 %_188, label %_66.landingpad.succ, label %_66.landingpad.fail
_66.landingpad.succ:
  %_189 = call ptr @__cxa_begin_catch(ptr %_185)
  %_191 = getelementptr ptr, ptr %_189, i32 1
  %_66 = load ptr, ptr %_191
  call void @__cxa_end_catch()br label %_64.0
_66.landingpad.fail:
  resume { ptr, i32 } %_184
_68.landingpad:
  %_192 = landingpad { ptr, i32 } catch ptr @_ZTIN11scalanative16ExceptionWrapperE
  %_193 = extractvalue { ptr, i32 } %_192, 0
  %_194 = extractvalue { ptr, i32 } %_192, 1
  %_195 = call i32 @llvm.eh.typeid.for(ptr @_ZTIN11scalanative16ExceptionWrapperE)
  %_196 = icmp eq i32 %_194, %_195
  br i1 %_196, label %_68.landingpad.succ, label %_68.landingpad.fail
_68.landingpad.succ:
  %_197 = call ptr @__cxa_begin_catch(ptr %_193)
  %_199 = getelementptr ptr, ptr %_197, i32 1
  %_68 = load ptr, ptr %_199
  call void @__cxa_end_catch()br label %_64.0
_68.landingpad.fail:
  resume { ptr, i32 } %_192
_72.landingpad:
  %_200 = landingpad { ptr, i32 } catch ptr @_ZTIN11scalanative16ExceptionWrapperE
  %_201 = extractvalue { ptr, i32 } %_200, 0
  %_202 = extractvalue { ptr, i32 } %_200, 1
  %_203 = call i32 @llvm.eh.typeid.for(ptr @_ZTIN11scalanative16ExceptionWrapperE)
  %_204 = icmp eq i32 %_202, %_203
  br i1 %_204, label %_72.landingpad.succ, label %_72.landingpad.fail
_72.landingpad.succ:
  %_205 = call ptr @__cxa_begin_catch(ptr %_201)
  %_207 = getelementptr ptr, ptr %_205, i32 1
  %_72 = load ptr, ptr %_207
  call void @__cxa_end_catch()br label %_70.0
_72.landingpad.fail:
  resume { ptr, i32 } %_200
_75.landingpad:
  %_208 = landingpad { ptr, i32 } catch ptr @_ZTIN11scalanative16ExceptionWrapperE
  %_209 = extractvalue { ptr, i32 } %_208, 0
  %_210 = extractvalue { ptr, i32 } %_208, 1
  %_211 = call i32 @llvm.eh.typeid.for(ptr @_ZTIN11scalanative16ExceptionWrapperE)
  %_212 = icmp eq i32 %_210, %_211
  br i1 %_212, label %_75.landingpad.succ, label %_75.landingpad.fail
_75.landingpad.succ:
  %_213 = call ptr @__cxa_begin_catch(ptr %_209)
  %_215 = getelementptr ptr, ptr %_213, i32 1
  %_75 = load ptr, ptr %_215
  call void @__cxa_end_catch()br label %_70.0
_75.landingpad.fail:
  resume { ptr, i32 } %_208
_76.landingpad:
  %_216 = landingpad { ptr, i32 } catch ptr @_ZTIN11scalanative16ExceptionWrapperE
  %_217 = extractvalue { ptr, i32 } %_216, 0
  %_218 = extractvalue { ptr, i32 } %_216, 1
  %_219 = call i32 @llvm.eh.typeid.for(ptr @_ZTIN11scalanative16ExceptionWrapperE)
  %_220 = icmp eq i32 %_218, %_219
  br i1 %_220, label %_76.landingpad.succ, label %_76.landingpad.fail
_76.landingpad.succ:
  %_221 = call ptr @__cxa_begin_catch(ptr %_217)
  %_223 = getelementptr ptr, ptr %_221, i32 1
  %_76 = load ptr, ptr %_223
  call void @__cxa_end_catch()br label %_70.0
_76.landingpad.fail:
  resume { ptr, i32 } %_216
_85.landingpad:
  %_224 = landingpad { ptr, i32 } catch ptr @_ZTIN11scalanative16ExceptionWrapperE
  %_225 = extractvalue { ptr, i32 } %_224, 0
  %_226 = extractvalue { ptr, i32 } %_224, 1
  %_227 = call i32 @llvm.eh.typeid.for(ptr @_ZTIN11scalanative16ExceptionWrapperE)
  %_228 = icmp eq i32 %_226, %_227
  br i1 %_228, label %_85.landingpad.succ, label %_85.landingpad.fail
_85.landingpad.succ:
  %_229 = call ptr @__cxa_begin_catch(ptr %_225)
  %_231 = getelementptr ptr, ptr %_229, i32 1
  %_85 = load ptr, ptr %_231
  call void @__cxa_end_catch()br label %_42.0
_85.landingpad.fail:
  resume { ptr, i32 } %_224
}

define dereferenceable_or_null(32) ptr @"_SM16scala.MatchErrorD9ofClass$1L16java.lang.StringEPT16scala.MatchError"(ptr %_1) personality ptr @__gxx_personality_v0 {
_2000000.0:
  %_2000015 = icmp ne ptr %_1, null
  br i1 %_2000015, label %_2000013.0, label %_2000014.0
_2000013.0:
  %_2000004 = call dereferenceable_or_null(24) ptr @"scalanative_GC_alloc_small"(ptr @"_SM23java.lang.StringBuilderG4type", i64 24)
  %_2000005 = call dereferenceable_or_null(16) ptr @"_SM36scala.scalanative.runtime.CharArray$D5allociL35scala.scalanative.runtime.CharArrayEO"(ptr @"_SM36scala.scalanative.runtime.CharArray$G8instance", i32 9)
  %_2000018 = getelementptr { { ptr }, i32, i1, ptr }, { { ptr }, i32, i1, ptr }* %_2000004, i32 0, i32 3
  store ptr %_2000005, ptr%_2000018, align 8
  %_2000007 = call dereferenceable_or_null(24) ptr @"_SM23java.lang.StringBuilderD6appendL16java.lang.StringL23java.lang.StringBuilderEO"(ptr nonnull dereferenceable(24) %_2000004, ptr @"_SM7__constG2-96")
  %_2000019 = getelementptr { { ptr }, ptr, ptr, ptr, i1, i1, ptr, ptr, i1 }, { { ptr }, ptr, ptr, ptr, i1, i1, ptr, ptr, i1 }* %_1, i32 0, i32 6
  %_2000008 = load ptr, ptr %_2000019, !dereferenceable_or_null !{i64 8}
  %_2000009 = call dereferenceable_or_null(32) ptr @"_SM16java.lang.ObjectD8getClassL15java.lang.ClassEO"(ptr dereferenceable_or_null(8) %_2000008)
  %_2000010 = call dereferenceable_or_null(32) ptr @"_SM15java.lang.ClassD7getNameL16java.lang.StringEO"(ptr dereferenceable_or_null(32) %_2000009)
  %_2000011 = call dereferenceable_or_null(24) ptr @"_SM23java.lang.StringBuilderD6appendL16java.lang.StringL23java.lang.StringBuilderEO"(ptr nonnull dereferenceable(24) %_2000004, ptr dereferenceable_or_null(32) %_2000010)
  %_2000012 = call dereferenceable_or_null(32) ptr @"_SM23java.lang.StringBuilderD8toStringL16java.lang.StringEO"(ptr nonnull dereferenceable(24) %_2000004)
  ret ptr %_2000012
_2000014.0:
  call ptr @"_SM34scala.scalanative.runtime.package$D16throwNullPointernEO"(ptr null)
  unreachable
}

define void @"_SM16scala.MatchErrorRL16java.lang.ObjectE"(ptr %_1, ptr %_2) personality ptr @__gxx_personality_v0 {
_3000000.0:
  %_12000003 = icmp ne ptr %_1, null
  br i1 %_12000003, label %_12000001.0, label %_12000002.0
_12000001.0:
  %_12000005 = getelementptr { { ptr }, ptr, ptr, ptr, i1, i1, ptr, ptr, i1 }, { { ptr }, ptr, ptr, ptr, i1, i1, ptr, ptr, i1 }* %_1, i32 0, i32 6
  store ptr %_2, ptr%_12000005, align 8
  %_12000007 = getelementptr { { ptr }, ptr, ptr, ptr, i1, i1 }, { { ptr }, ptr, ptr, ptr, i1, i1 }* %_1, i32 0, i32 3
  store ptr null, ptr%_12000007, align 8
  %_12000009 = getelementptr { { ptr }, ptr, ptr, ptr, i1, i1 }, { { ptr }, ptr, ptr, ptr, i1, i1 }* %_1, i32 0, i32 1
  store ptr null, ptr%_12000009, align 8
  %_12000011 = getelementptr { { ptr }, ptr, ptr, ptr, i1, i1 }, { { ptr }, ptr, ptr, ptr, i1, i1 }* %_1, i32 0, i32 4
  %_12000012 = zext i1 true to i8
  store i8 %_12000012, ptr%_12000011, align 1
  %_12000014 = getelementptr { { ptr }, ptr, ptr, ptr, i1, i1 }, { { ptr }, ptr, ptr, ptr, i1, i1 }* %_1, i32 0, i32 5
  %_12000015 = zext i1 true to i8
  store i8 %_12000015, ptr%_12000014, align 1
  br label %_11000000.0
_11000000.0:
  %_11000001 = call dereferenceable_or_null(40) ptr @"_SM19java.lang.ThrowableD16fillInStackTraceL19java.lang.ThrowableEO"(ptr dereferenceable_or_null(64) %_1)
  br label %_12000000.0
_12000000.0:
  ret void
_12000002.0:
  call ptr @"_SM34scala.scalanative.runtime.package$D16throwNullPointernEO"(ptr null)
  unreachable
}

define i32 @"_SM11scala.None$D12productArityiEO"(ptr %_1) personality ptr @__gxx_personality_v0 {
_2000000.0:
  ret i32 0
}

define nonnull dereferenceable(32) ptr @"_SM11scala.None$D13productPrefixL16java.lang.StringEO"(ptr %_1) personality ptr @__gxx_personality_v0 {
_2000000.0:
  ret ptr @"_SM7__constG2-98"
}

define dereferenceable_or_null(8) ptr @"_SM11scala.None$D14productElementiL16java.lang.ObjectEO"(ptr %_1, i32 %_2) personality ptr @__gxx_personality_v0 {
_3000000.0:
  br label %_4000000.0
_4000000.0:
  %_4000001 = call dereferenceable_or_null(8) ptr @"_SM21scala.runtime.StaticsD5ioobeiL16java.lang.ObjectEo"(i32 %_2)
  br label %_5000000.0
_5000000.0:
  ret ptr %_4000001
}

define dereferenceable_or_null(8) ptr @"_SM11scala.None$D15productIteratorL25scala.collection.IteratorEO"(ptr %_1) personality ptr @__gxx_personality_v0 {
_2000000.0:
  %_2000005 = icmp ne ptr %_1, null
  br i1 %_2000005, label %_2000003.0, label %_2000004.0
_2000003.0:
  %_2000002 = call dereferenceable_or_null(8) ptr @"_SM27scala.runtime.ScalaRunTime$D20typedProductIteratorL13scala.ProductL25scala.collection.IteratorEO"(ptr nonnull dereferenceable(8) @"_SM27scala.runtime.ScalaRunTime$G8instance", ptr dereferenceable_or_null(8) %_1)
  ret ptr %_2000002
_2000004.0:
  call ptr @"_SM34scala.scalanative.runtime.package$D16throwNullPointernEO"(ptr null)
  unreachable
}

define ptr @"_SM11scala.None$D3getL16java.lang.ObjectEO"(ptr %_1) alwaysinline personality ptr @__gxx_personality_v0 {
_2000000.0:
  %_2000004 = icmp ne ptr %_1, null
  br i1 %_2000004, label %_2000002.0, label %_2000003.0
_2000002.0:
  call ptr @"_SM11scala.None$D3getnEO"(ptr dereferenceable_or_null(8) %_1)
  br label %_2000006.0
_2000003.0:
  call ptr @"_SM34scala.scalanative.runtime.package$D16throwNullPointernEO"(ptr null)
  unreachable
_2000006.0:
  call ptr @"_SM34scala.scalanative.runtime.package$D14throwUndefinednEO"(ptr null)
  unreachable
}

define ptr @"_SM11scala.None$D3getnEO"(ptr %_1) personality ptr @__gxx_personality_v0 {
_2000000.0:
  br label %_11000000.0
_11000000.0:
  %_11000001 = call dereferenceable_or_null(40) ptr @"scalanative_GC_alloc_small"(ptr @"_SM32java.util.NoSuchElementExceptionG4type", i64 40)
  %_12000002 = getelementptr { { ptr }, ptr, ptr, ptr, i1, i1 }, { { ptr }, ptr, ptr, ptr, i1, i1 }* %_11000001, i32 0, i32 5
  %_12000003 = zext i1 true to i8
  store i8 %_12000003, ptr%_12000002, align 1
  %_12000005 = getelementptr { { ptr }, ptr, ptr, ptr, i1, i1 }, { { ptr }, ptr, ptr, ptr, i1, i1 }* %_11000001, i32 0, i32 4
  %_12000006 = zext i1 true to i8
  store i8 %_12000006, ptr%_12000005, align 1
  %_12000008 = getelementptr { { ptr }, ptr, ptr, ptr, i1, i1 }, { { ptr }, ptr, ptr, ptr, i1, i1 }* %_11000001, i32 0, i32 3
  store ptr @"_SM7__constG3-100", ptr%_12000008, align 8
  %_11000005 = call dereferenceable_or_null(40) ptr @"_SM19java.lang.ThrowableD16fillInStackTraceL19java.lang.ThrowableEO"(ptr nonnull dereferenceable(40) %_11000001)
  br label %_12000000.0
_12000000.0:
  call ptr @"scalanative_throw"(ptr nonnull dereferenceable(40) %_11000001)
  unreachable
}

define i32 @"_SM11scala.None$D8hashCodeiEO"(ptr %_1) personality ptr @__gxx_personality_v0 {
_2000000.0:
  ret i32 2433880
}

define nonnull dereferenceable(32) ptr @"_SM11scala.None$D8toStringL16java.lang.StringEO"(ptr %_1) personality ptr @__gxx_personality_v0 {
_2000000.0:
  ret ptr @"_SM7__constG2-98"
}

define dereferenceable_or_null(8) ptr @"_SM11scala.None$G4load"() noinline personality ptr @__gxx_personality_v0 {
_1.0:
  %_4 = getelementptr ptr, ptr @"__modules", i32 77
  %_5 = load ptr, ptr %_4, !dereferenceable_or_null !{i64 8}
  %_6 = icmp ne ptr %_5, null
  br i1 %_6, label %_2.0, label %_3.0
_2.0:
  ret ptr %_5
_3.0:
  %_7 = call dereferenceable_or_null(8) ptr @"scalanative_GC_alloc_small"(ptr @"_SM11scala.None$G4type", i64 8)
  store ptr %_7, ptr%_4, align 8
  call void @"_SM11scala.None$RE"(ptr dereferenceable_or_null(8) %_7)
  ret ptr %_7
}

define void @"_SM11scala.None$RE"(ptr %_1) personality ptr @__gxx_personality_v0 {
_2000000.0:
  %_3000005 = icmp ne ptr %_1, null
  br i1 %_3000005, label %_3000003.0, label %_3000004.0
_3000003.0:
  call void @"_SM29scala.collection.IterableOnceD6$init$uEO"(ptr dereferenceable_or_null(8) %_1)
  call void @"_SM13scala.ProductD6$init$uEO"(ptr dereferenceable_or_null(8) %_1)
  ret void
_3000004.0:
  call ptr @"_SM34scala.scalanative.runtime.package$D16throwNullPointernEO"(ptr null)
  unreachable
}

define nonnull dereferenceable(8) ptr @"_SM12scala.OptionD3mapL15scala.Function1L12scala.OptionEO"(ptr %_1, ptr %_2) inlinehint personality ptr @__gxx_personality_v0 {
_3000000.0:
  %_8000007 = icmp ne ptr %_1, null
  br i1 %_8000007, label %_8000005.0, label %_8000006.0
_8000005.0:
  %_3000001 = call i1 @"_SM12scala.OptionD7isEmptyzEO"(ptr dereferenceable_or_null(8) %_1)
  br i1 %_3000001, label %_4000000.0, label %_5000000.0
_4000000.0:
  %_4000001 = call dereferenceable_or_null(8) ptr @"_SM11scala.None$G4load"()
  br label %_6000000.0
_5000000.0:
  %_8000008 = load ptr, ptr %_1
  %_8000009 = getelementptr { { ptr, i32, i32, ptr }, i32, i32, ptr, [4 x ptr] }, { { ptr, i32, i32, ptr }, i32, i32, ptr, [4 x ptr] }* %_8000008, i32 0, i32 4, i32 3
  %_5000003 = load ptr, ptr %_8000009
  %_5000004 = call dereferenceable_or_null(8) ptr %_5000003(ptr dereferenceable_or_null(8) %_1)
  %_8000011 = icmp ne ptr %_2, null
  br i1 %_8000011, label %_8000010.0, label %_8000006.0
_8000010.0:
  %_8000012 = load ptr, ptr %_2
  %_8000013 = getelementptr { ptr, i32, i32, ptr }, { ptr, i32, i32, ptr }* %_8000012, i32 0, i32 2
  %_8000014 = load i32, ptr %_8000013
  %_8000015 = getelementptr ptr, ptr @"_SM22__scalanative_metadataG14dispatch_table", i32 202
  %_8000016 = getelementptr ptr, ptr %_8000015, i32 %_8000014
  %_5000006 = load ptr, ptr %_8000016
  %_5000007 = call dereferenceable_or_null(8) ptr %_5000006(ptr dereferenceable_or_null(8) %_2, ptr dereferenceable_or_null(8) %_5000004)
  %_8000001 = call dereferenceable_or_null(16) ptr @"scalanative_GC_alloc_small"(ptr @"_SM10scala.SomeG4type", i64 16)
  %_8000018 = getelementptr { { ptr }, ptr }, { { ptr }, ptr }* %_8000001, i32 0, i32 1
  store ptr %_5000007, ptr%_8000018, align 8
  call void @"_SM29scala.collection.IterableOnceD6$init$uEO"(ptr nonnull dereferenceable(16) %_8000001)
  call void @"_SM13scala.ProductD6$init$uEO"(ptr nonnull dereferenceable(16) %_8000001)
  br label %_6000000.0
_6000000.0:
  %_6000001 = phi ptr [%_8000001, %_8000010.0], [%_4000001, %_4000000.0]
  ret ptr %_6000001
_8000006.0:
  call ptr @"_SM34scala.scalanative.runtime.package$D16throwNullPointernEO"(ptr null)
  unreachable
}

define dereferenceable_or_null(8) ptr @"_SM12scala.OptionD4foldL15scala.Function0L15scala.Function1L16java.lang.ObjectEO"(ptr %_1, ptr %_2, ptr %_3) inlinehint personality ptr @__gxx_personality_v0 {
_4000000.0:
  %_7000004 = icmp ne ptr %_1, null
  br i1 %_7000004, label %_7000002.0, label %_7000003.0
_7000002.0:
  %_4000001 = call i1 @"_SM12scala.OptionD7isEmptyzEO"(ptr dereferenceable_or_null(8) %_1)
  br i1 %_4000001, label %_5000000.0, label %_6000000.0
_5000000.0:
  %_7000006 = icmp ne ptr %_2, null
  br i1 %_7000006, label %_7000005.0, label %_7000003.0
_7000005.0:
  %_7000007 = load ptr, ptr %_2
  %_7000008 = getelementptr { ptr, i32, i32, ptr }, { ptr, i32, i32, ptr }* %_7000007, i32 0, i32 2
  %_7000009 = load i32, ptr %_7000008
  %_7000010 = getelementptr ptr, ptr @"_SM22__scalanative_metadataG14dispatch_table", i32 410
  %_7000011 = getelementptr ptr, ptr %_7000010, i32 %_7000009
  %_5000002 = load ptr, ptr %_7000011
  %_5000003 = call dereferenceable_or_null(8) ptr %_5000002(ptr dereferenceable_or_null(8) %_2)
  br label %_7000000.0
_6000000.0:
  %_7000012 = load ptr, ptr %_1
  %_7000013 = getelementptr { { ptr, i32, i32, ptr }, i32, i32, ptr, [4 x ptr] }, { { ptr, i32, i32, ptr }, i32, i32, ptr, [4 x ptr] }* %_7000012, i32 0, i32 4, i32 3
  %_6000002 = load ptr, ptr %_7000013
  %_6000003 = call dereferenceable_or_null(8) ptr %_6000002(ptr dereferenceable_or_null(8) %_1)
  %_7000015 = icmp ne ptr %_3, null
  br i1 %_7000015, label %_7000014.0, label %_7000003.0
_7000014.0:
  %_7000016 = load ptr, ptr %_3
  %_7000017 = getelementptr { ptr, i32, i32, ptr }, { ptr, i32, i32, ptr }* %_7000016, i32 0, i32 2
  %_7000018 = load i32, ptr %_7000017
  %_7000019 = getelementptr ptr, ptr @"_SM22__scalanative_metadataG14dispatch_table", i32 202
  %_7000020 = getelementptr ptr, ptr %_7000019, i32 %_7000018
  %_6000005 = load ptr, ptr %_7000020
  %_6000006 = call dereferenceable_or_null(8) ptr %_6000005(ptr dereferenceable_or_null(8) %_3, ptr dereferenceable_or_null(8) %_6000003)
  br label %_7000000.0
_7000000.0:
  %_7000001 = phi ptr [%_6000006, %_7000014.0], [%_5000003, %_7000005.0]
  ret ptr %_7000001
_7000003.0:
  call ptr @"_SM34scala.scalanative.runtime.package$D16throwNullPointernEO"(ptr null)
  unreachable
}

define dereferenceable_or_null(8) ptr @"_SM12scala.OptionD6orElseL15scala.Function0L12scala.OptionEO"(ptr %_1, ptr %_2) inlinehint personality ptr @__gxx_personality_v0 {
_3000000.0:
  %_6000004 = icmp ne ptr %_1, null
  br i1 %_6000004, label %_6000002.0, label %_6000003.0
_6000002.0:
  %_3000001 = call i1 @"_SM12scala.OptionD7isEmptyzEO"(ptr dereferenceable_or_null(8) %_1)
  br i1 %_3000001, label %_4000000.0, label %_5000000.0
_4000000.0:
  %_6000006 = icmp ne ptr %_2, null
  br i1 %_6000006, label %_6000005.0, label %_6000003.0
_6000005.0:
  %_6000007 = load ptr, ptr %_2
  %_6000008 = getelementptr { ptr, i32, i32, ptr }, { ptr, i32, i32, ptr }* %_6000007, i32 0, i32 2
  %_6000009 = load i32, ptr %_6000008
  %_6000010 = getelementptr ptr, ptr @"_SM22__scalanative_metadataG14dispatch_table", i32 410
  %_6000011 = getelementptr ptr, ptr %_6000010, i32 %_6000009
  %_4000002 = load ptr, ptr %_6000011
  %_4000003 = call dereferenceable_or_null(8) ptr %_4000002(ptr dereferenceable_or_null(8) %_2)
  %_6000015 = icmp eq ptr %_4000003, null
  br i1 %_6000015, label %_6000013.0, label %_6000012.0
_6000012.0:
  %_6000016 = load ptr, ptr %_4000003
  %_6000017 = getelementptr { ptr, i32, i32, ptr }, { ptr, i32, i32, ptr }* %_6000016, i32 0, i32 1
  %_6000018 = load i32, ptr %_6000017
  %_6000019 = icmp sle i32 214, %_6000018
  %_6000020 = icmp sle i32 %_6000018, 216
  %_6000021 = and i1 %_6000019, %_6000020
  br i1 %_6000021, label %_6000013.0, label %_6000014.0
_6000013.0:
  br label %_6000000.0
_5000000.0:
  br label %_6000000.0
_6000000.0:
  %_6000001 = phi ptr [%_1, %_5000000.0], [%_4000003, %_6000013.0]
  ret ptr %_6000001
_6000003.0:
  call ptr @"_SM34scala.scalanative.runtime.package$D16throwNullPointernEO"(ptr null)
  unreachable
_6000014.0:
  %_6000023 = phi ptr [%_4000003, %_6000012.0]
  %_6000024 = phi ptr [@"_SM12scala.OptionG4type", %_6000012.0]
  %_6000025 = load ptr, ptr %_6000023
  call ptr @"_SM34scala.scalanative.runtime.package$D14throwClassCastR_R_nEO"(ptr null, ptr %_6000025, ptr %_6000024)
  unreachable
}

define void @"_SM12scala.OptionD7foreachL15scala.Function1uEO"(ptr %_1, ptr %_2) inlinehint personality ptr @__gxx_personality_v0 {
_3000000.0:
  %_6000003 = icmp ne ptr %_1, null
  br i1 %_6000003, label %_6000001.0, label %_6000002.0
_6000001.0:
  %_3000001 = call i1 @"_SM12scala.OptionD7isEmptyzEO"(ptr dereferenceable_or_null(8) %_1)
  %_3000003 = xor i1 %_3000001, true
  br i1 %_3000003, label %_4000000.0, label %_5000000.0
_4000000.0:
  %_6000004 = load ptr, ptr %_1
  %_6000005 = getelementptr { { ptr, i32, i32, ptr }, i32, i32, ptr, [4 x ptr] }, { { ptr, i32, i32, ptr }, i32, i32, ptr, [4 x ptr] }* %_6000004, i32 0, i32 4, i32 3
  %_4000002 = load ptr, ptr %_6000005
  %_4000003 = call dereferenceable_or_null(8) ptr %_4000002(ptr dereferenceable_or_null(8) %_1)
  %_6000007 = icmp ne ptr %_2, null
  br i1 %_6000007, label %_6000006.0, label %_6000002.0
_6000006.0:
  %_6000008 = load ptr, ptr %_2
  %_6000009 = getelementptr { ptr, i32, i32, ptr }, { ptr, i32, i32, ptr }* %_6000008, i32 0, i32 2
  %_6000010 = load i32, ptr %_6000009
  %_6000011 = getelementptr ptr, ptr @"_SM22__scalanative_metadataG14dispatch_table", i32 202
  %_6000012 = getelementptr ptr, ptr %_6000011, i32 %_6000010
  %_4000005 = load ptr, ptr %_6000012
  %_4000006 = call dereferenceable_or_null(8) ptr %_4000005(ptr dereferenceable_or_null(8) %_2, ptr dereferenceable_or_null(8) %_4000003)
  br label %_6000000.0
_5000000.0:
  br label %_6000000.0
_6000000.0:
  ret void
_6000002.0:
  call ptr @"_SM34scala.scalanative.runtime.package$D16throwNullPointernEO"(ptr null)
  unreachable
}

define i1 @"_SM12scala.OptionD7isEmptyzEO"(ptr %_1) personality ptr @__gxx_personality_v0 {
_2000000.0:
  %_2000006 = icmp ne ptr %_1, null
  br i1 %_2000006, label %_2000004.0, label %_2000005.0
_2000004.0:
  %_2000001 = call dereferenceable_or_null(8) ptr @"_SM11scala.None$G4load"()
  %_2000003 = icmp eq ptr %_1, %_2000001
  ret i1 %_2000003
_2000005.0:
  call ptr @"_SM34scala.scalanative.runtime.package$D16throwNullPointernEO"(ptr null)
  unreachable
}

define dereferenceable_or_null(8) ptr @"_SM12scala.OptionD8iteratorL25scala.collection.IteratorEO"(ptr %_1) personality ptr @__gxx_personality_v0 {
_2000000.0:
  %_5000004 = icmp ne ptr %_1, null
  br i1 %_5000004, label %_5000002.0, label %_5000003.0
_5000002.0:
  %_2000001 = call i1 @"_SM12scala.OptionD7isEmptyzEO"(ptr dereferenceable_or_null(8) %_1)
  br i1 %_2000001, label %_3000000.0, label %_4000000.0
_3000000.0:
  %_3000001 = call dereferenceable_or_null(16) ptr @"_SM26scala.collection.Iterator$G4load"()
  %_3000002 = call dereferenceable_or_null(8) ptr @"_SM26scala.collection.Iterator$D5emptyL25scala.collection.IteratorEO"(ptr nonnull dereferenceable(16) %_3000001)
  br label %_5000000.0
_4000000.0:
  %_4000001 = call dereferenceable_or_null(16) ptr @"_SM26scala.collection.Iterator$G4load"()
  %_5000005 = load ptr, ptr %_1
  %_5000006 = getelementptr { { ptr, i32, i32, ptr }, i32, i32, ptr, [4 x ptr] }, { { ptr, i32, i32, ptr }, i32, i32, ptr, [4 x ptr] }* %_5000005, i32 0, i32 4, i32 3
  %_4000003 = load ptr, ptr %_5000006
  %_4000004 = call dereferenceable_or_null(8) ptr %_4000003(ptr dereferenceable_or_null(8) %_1)
  %_4000005 = call dereferenceable_or_null(8) ptr @"_SM26scala.collection.Iterator$D6singleL16java.lang.ObjectL25scala.collection.IteratorEO"(ptr nonnull dereferenceable(16) %_4000001, ptr dereferenceable_or_null(8) %_4000004)
  br label %_5000000.0
_5000000.0:
  %_5000001 = phi ptr [%_4000005, %_4000000.0], [%_3000002, %_3000000.0]
  ret ptr %_5000001
_5000003.0:
  call ptr @"_SM34scala.scalanative.runtime.package$D16throwNullPointernEO"(ptr null)
  unreachable
}

define dereferenceable_or_null(8) ptr @"_SM12scala.OptionD9getOrElseL15scala.Function0L16java.lang.ObjectEO"(ptr %_1, ptr %_2) inlinehint personality ptr @__gxx_personality_v0 {
_3000000.0:
  %_6000004 = icmp ne ptr %_1, null
  br i1 %_6000004, label %_6000002.0, label %_6000003.0
_6000002.0:
  %_3000001 = call i1 @"_SM12scala.OptionD7isEmptyzEO"(ptr dereferenceable_or_null(8) %_1)
  br i1 %_3000001, label %_4000000.0, label %_5000000.0
_4000000.0:
  %_6000006 = icmp ne ptr %_2, null
  br i1 %_6000006, label %_6000005.0, label %_6000003.0
_6000005.0:
  %_6000007 = load ptr, ptr %_2
  %_6000008 = getelementptr { ptr, i32, i32, ptr }, { ptr, i32, i32, ptr }* %_6000007, i32 0, i32 2
  %_6000009 = load i32, ptr %_6000008
  %_6000010 = getelementptr ptr, ptr @"_SM22__scalanative_metadataG14dispatch_table", i32 410
  %_6000011 = getelementptr ptr, ptr %_6000010, i32 %_6000009
  %_4000002 = load ptr, ptr %_6000011
  %_4000003 = call dereferenceable_or_null(8) ptr %_4000002(ptr dereferenceable_or_null(8) %_2)
  br label %_6000000.0
_5000000.0:
  %_6000012 = load ptr, ptr %_1
  %_6000013 = getelementptr { { ptr, i32, i32, ptr }, i32, i32, ptr, [4 x ptr] }, { { ptr, i32, i32, ptr }, i32, i32, ptr, [4 x ptr] }* %_6000012, i32 0, i32 4, i32 3
  %_5000002 = load ptr, ptr %_6000013
  %_5000003 = call dereferenceable_or_null(8) ptr %_5000002(ptr dereferenceable_or_null(8) %_1)
  br label %_6000000.0
_6000000.0:
  %_6000001 = phi ptr [%_5000003, %_5000000.0], [%_4000003, %_6000005.0]
  ret ptr %_6000001
_6000003.0:
  call ptr @"_SM34scala.scalanative.runtime.package$D16throwNullPointernEO"(ptr null)
  unreachable
}

define i32 @"_SM12scala.OptionD9knownSizeiEO"(ptr %_1) personality ptr @__gxx_personality_v0 {
_2000000.0:
  %_5000004 = icmp ne ptr %_1, null
  br i1 %_5000004, label %_5000002.0, label %_5000003.0
_5000002.0:
  %_2000001 = call i1 @"_SM12scala.OptionD7isEmptyzEO"(ptr dereferenceable_or_null(8) %_1)
  br i1 %_2000001, label %_3000000.0, label %_4000000.0
_3000000.0:
  br label %_5000000.0
_4000000.0:
  br label %_5000000.0
_5000000.0:
  %_5000001 = phi i32 [1, %_4000000.0], [0, %_3000000.0]
  ret i32 %_5000001
_5000003.0:
  call ptr @"_SM34scala.scalanative.runtime.package$D16throwNullPointernEO"(ptr null)
  unreachable
}

define nonnull dereferenceable(8) ptr @"_SM13scala.Option$D5applyL16java.lang.ObjectL12scala.OptionEO"(ptr %_1, ptr %_2) personality ptr @__gxx_personality_v0 {
_3000000.0:
  %_3000002 = icmp eq ptr %_2, null
  br i1 %_3000002, label %_4000000.0, label %_5000000.0
_4000000.0:
  %_4000001 = call dereferenceable_or_null(8) ptr @"_SM11scala.None$G4load"()
  br label %_6000000.0
_5000000.0:
  %_8000001 = call dereferenceable_or_null(16) ptr @"scalanative_GC_alloc_small"(ptr @"_SM10scala.SomeG4type", i64 16)
  %_8000006 = getelementptr { { ptr }, ptr }, { { ptr }, ptr }* %_8000001, i32 0, i32 1
  store ptr %_2, ptr%_8000006, align 8
  call void @"_SM29scala.collection.IterableOnceD6$init$uEO"(ptr nonnull dereferenceable(16) %_8000001)
  call void @"_SM13scala.ProductD6$init$uEO"(ptr nonnull dereferenceable(16) %_8000001)
  br label %_6000000.0
_6000000.0:
  %_6000001 = phi ptr [%_8000001, %_5000000.0], [%_4000001, %_4000000.0]
  ret ptr %_6000001
}

define void @"_SM13scala.Option$RE"(ptr %_1) personality ptr @__gxx_personality_v0 {
_2000000.0:
  ret void
}

define void @"_SM21scala.PartialFunctionD6$init$uEO"(ptr %_1) personality ptr @__gxx_personality_v0 {
_2000000.0:
  ret void
}

define dereferenceable_or_null(8) ptr @"_SM13scala.Predef$D10implicitlyL16java.lang.ObjectL16java.lang.ObjectEO"(ptr %_1, ptr %_2) inlinehint personality ptr @__gxx_personality_v0 {
_3000000.0:
  ret ptr %_2
}

define nonnull dereferenceable(16) ptr @"_SM13scala.Predef$D11float2FloatfL15java.lang.FloatEO"(ptr %_1, float %_2) personality ptr @__gxx_personality_v0 {
_3000000.0:
  %_3000002 = call dereferenceable_or_null(16) ptr @"_SM27scala.runtime.BoxesRunTime$D10boxToFloatfL15java.lang.FloatEO"(ptr null, float %_2)
  ret ptr %_3000002
}

define nonnull dereferenceable(16) ptr @"_SM13scala.Predef$D11int2IntegeriL17java.lang.IntegerEO"(ptr %_1, i32 %_2) personality ptr @__gxx_personality_v0 {
_3000000.0:
  %_3000002 = call dereferenceable_or_null(16) ptr @"_SM27scala.runtime.BoxesRunTime$D12boxToIntegeriL17java.lang.IntegerEO"(ptr null, i32 %_2)
  ret ptr %_3000002
}

define dereferenceable_or_null(16) ptr @"_SM13scala.Predef$D11intArrayOpsLAi_L16java.lang.ObjectEO"(ptr %_1, ptr %_2) inlinehint personality ptr @__gxx_personality_v0 {
_3000000.0:
  ret ptr %_2
}

define dereferenceable_or_null(16) ptr @"_SM13scala.Predef$D11refArrayOpsLAL16java.lang.Object_L16java.lang.ObjectEO"(ptr %_1, ptr %_2) inlinehint personality ptr @__gxx_personality_v0 {
_3000000.0:
  ret ptr %_2
}

define dereferenceable_or_null(32) ptr @"_SM13scala.Predef$D13augmentStringL16java.lang.StringL16java.lang.StringEO"(ptr %_1, ptr %_2) inlinehint personality ptr @__gxx_personality_v0 {
_3000000.0:
  ret ptr %_2
}

define nonnull dereferenceable(16) ptr @"_SM13scala.Predef$D13double2DoubledL16java.lang.DoubleEO"(ptr %_1, double %_2) personality ptr @__gxx_personality_v0 {
_3000000.0:
  %_3000002 = call dereferenceable_or_null(16) ptr @"_SM27scala.runtime.BoxesRunTime$D11boxToDoubledL16java.lang.DoubleEO"(ptr null, double %_2)
  ret ptr %_3000002
}

define nonnull dereferenceable(16) ptr @"_SM13scala.Predef$D14char2CharactercL19java.lang.CharacterEO"(ptr %_1, i16 %_2) personality ptr @__gxx_personality_v0 {
_3000000.0:
  %_3000002 = call dereferenceable_or_null(16) ptr @"_SM27scala.runtime.BoxesRunTime$D14boxToCharactercL19java.lang.CharacterEO"(ptr null, i16 %_2)
  ret ptr %_3000002
}

define i1 @"_SM13scala.Predef$D15Boolean2booleanL17java.lang.BooleanzEO"(ptr %_1, ptr %_2) personality ptr @__gxx_personality_v0 {
_3000000.0:
  %_3000001 = call i1 @"_SM27scala.runtime.BoxesRunTime$D14unboxToBooleanL16java.lang.ObjectzEO"(ptr null, ptr dereferenceable_or_null(16) %_2)
  ret i1 %_3000001
}

define nonnull dereferenceable(16) ptr @"_SM13scala.Predef$D15boolean2BooleanzL17java.lang.BooleanEO"(ptr %_1, i1 %_2) personality ptr @__gxx_personality_v0 {
_3000000.0:
  %_3000002 = call dereferenceable_or_null(16) ptr @"_SM27scala.runtime.BoxesRunTime$D12boxToBooleanzL17java.lang.BooleanEO"(ptr null, i1 %_2)
  ret ptr %_3000002
}

define ptr @"_SM13scala.Predef$D18$qmark$qmark$qmarknEO"(ptr %_1) personality ptr @__gxx_personality_v0 {
_2000000.0:
  br label %_10000000.0
_10000000.0:
  %_10000001 = call dereferenceable_or_null(40) ptr @"scalanative_GC_alloc_small"(ptr @"_SM25scala.NotImplementedErrorG4type", i64 40)
  %_11000002 = getelementptr { { ptr }, ptr, ptr, ptr, i1, i1 }, { { ptr }, ptr, ptr, ptr, i1, i1 }* %_10000001, i32 0, i32 5
  %_11000003 = zext i1 true to i8
  store i8 %_11000003, ptr%_11000002, align 1
  %_11000005 = getelementptr { { ptr }, ptr, ptr, ptr, i1, i1 }, { { ptr }, ptr, ptr, ptr, i1, i1 }* %_10000001, i32 0, i32 4
  %_11000006 = zext i1 true to i8
  store i8 %_11000006, ptr%_11000005, align 1
  %_11000008 = getelementptr { { ptr }, ptr, ptr, ptr, i1, i1 }, { { ptr }, ptr, ptr, ptr, i1, i1 }* %_10000001, i32 0, i32 3
  store ptr @"_SM7__constG3-102", ptr%_11000008, align 8
  %_10000005 = call dereferenceable_or_null(40) ptr @"_SM19java.lang.ThrowableD16fillInStackTraceL19java.lang.ThrowableEO"(ptr nonnull dereferenceable(40) %_10000001)
  br label %_11000000.0
_11000000.0:
  call ptr @"scalanative_throw"(ptr nonnull dereferenceable(40) %_10000001)
  unreachable
}

define void @"_SM13scala.Predef$D5printL16java.lang.ObjectuEO"(ptr %_1, ptr %_2) personality ptr @__gxx_personality_v0 {
_3000000.0:
  %_3000001 = call dereferenceable_or_null(32) ptr @"_SM14scala.Console$G4load"()
  call void @"_SM14scala.Console$D5printL16java.lang.ObjectuEO"(ptr nonnull dereferenceable(32) %_3000001, ptr dereferenceable_or_null(8) %_2)
  ret void
}

define void @"_SM13scala.Predef$D7printlnL16java.lang.ObjectuEO"(ptr %_1, ptr %_2) personality ptr @__gxx_personality_v0 {
_3000000.0:
  %_3000001 = call dereferenceable_or_null(32) ptr @"_SM14scala.Console$G4load"()
  call void @"_SM14scala.Console$D7printlnL16java.lang.ObjectuEO"(ptr nonnull dereferenceable(32) %_3000001, ptr dereferenceable_or_null(8) %_2)
  ret void
}

define nonnull dereferenceable(16) ptr @"_SM13scala.Predef$D9byte2BytebL14java.lang.ByteEO"(ptr %_1, i8 %_2) personality ptr @__gxx_personality_v0 {
_3000000.0:
  %_3000002 = call dereferenceable_or_null(16) ptr @"_SM27scala.runtime.BoxesRunTime$D9boxToBytebL14java.lang.ByteEO"(ptr null, i8 %_2)
  ret ptr %_3000002
}

define void @"_SM13scala.Predef$RE"(ptr %_1) personality ptr @__gxx_personality_v0 {
_2000000.0:
  ret void
}

define nonnull dereferenceable(24) ptr @"_SM13scala.ProductD15productIteratorL25scala.collection.IteratorEO"(ptr %_1) personality ptr @__gxx_personality_v0 {
_2000000.0:
  %_7000008 = icmp ne ptr %_1, null
  br i1 %_7000008, label %_7000006.0, label %_7000007.0
_7000006.0:
  %_3000002 = icmp eq ptr %_1, null
  br i1 %_3000002, label %_4000000.0, label %_5000000.0
_5000000.0:
  br label %_6000000.0
_4000000.0:
  %_7000010 = icmp ne ptr null, null
  br i1 %_7000010, label %_7000009.0, label %_7000007.0
_7000009.0:
  call ptr @"scalanative_throw"(ptr null)
  unreachable
_6000000.0:
  %_7000001 = call dereferenceable_or_null(24) ptr @"scalanative_GC_alloc_small"(ptr @"_SM21scala.Product$$anon$1G4type", i64 24)
  %_7000013 = getelementptr { { ptr }, i32, i32, ptr }, { { ptr }, i32, i32, ptr }* %_7000001, i32 0, i32 3
  store ptr %_1, ptr%_7000013, align 8
  call void @"_SM29scala.collection.IterableOnceD6$init$uEO"(ptr nonnull dereferenceable(24) %_7000001)
  call void @"_SM32scala.collection.IterableOnceOpsD6$init$uEO"(ptr nonnull dereferenceable(24) %_7000001)
  call void @"_SM25scala.collection.IteratorD6$init$uEO"(ptr nonnull dereferenceable(24) %_7000001)
  %_7000018 = getelementptr { { ptr }, i32, i32, ptr }, { { ptr }, i32, i32, ptr }* %_7000001, i32 0, i32 2
  store i32 0, ptr%_7000018, align 4
  %_7000019 = load ptr, ptr %_1
  %_7000020 = getelementptr { ptr, i32, i32, ptr }, { ptr, i32, i32, ptr }* %_7000019, i32 0, i32 2
  %_7000021 = load i32, ptr %_7000020
  %_7000022 = getelementptr ptr, ptr @"_SM22__scalanative_metadataG14dispatch_table", i32 3074
  %_7000023 = getelementptr ptr, ptr %_7000022, i32 %_7000021
  %_6000003 = load ptr, ptr %_7000023
  %_6000004 = call i32 %_6000003(ptr dereferenceable_or_null(8) %_1)
  %_7000025 = getelementptr { { ptr }, i32, i32, ptr }, { { ptr }, i32, i32, ptr }* %_7000001, i32 0, i32 1
  store i32 %_6000004, ptr%_7000025, align 4
  ret ptr %_7000001
_7000007.0:
  call ptr @"_SM34scala.scalanative.runtime.package$D16throwNullPointernEO"(ptr null)
  unreachable
}

define void @"_SM13scala.ProductD6$init$uEO"(ptr %_1) personality ptr @__gxx_personality_v0 {
_2000000.0:
  ret void
}

define dereferenceable_or_null(8) ptr @"_SM21scala.Product$$anon$1D4nextL16java.lang.ObjectEO"(ptr %_1) personality ptr @__gxx_personality_v0 {
_2000000.0:
  %_2000012 = icmp ne ptr %_1, null
  br i1 %_2000012, label %_2000010.0, label %_2000011.0
_2000010.0:
  %_2000013 = getelementptr { { ptr }, i32, i32, ptr }, { { ptr }, i32, i32, ptr }* %_1, i32 0, i32 3
  %_2000001 = load ptr, ptr %_2000013, !dereferenceable_or_null !{i64 8}
  %_2000014 = getelementptr { { ptr }, i32, i32, ptr }, { { ptr }, i32, i32, ptr }* %_1, i32 0, i32 2
  %_2000002 = load i32, ptr %_2000014
  %_2000016 = icmp ne ptr %_2000001, null
  br i1 %_2000016, label %_2000015.0, label %_2000011.0
_2000015.0:
  %_2000017 = load ptr, ptr %_2000001
  %_2000018 = getelementptr { ptr, i32, i32, ptr }, { ptr, i32, i32, ptr }* %_2000017, i32 0, i32 2
  %_2000019 = load i32, ptr %_2000018
  %_2000020 = getelementptr ptr, ptr @"_SM22__scalanative_metadataG14dispatch_table", i32 3390
  %_2000021 = getelementptr ptr, ptr %_2000020, i32 %_2000019
  %_2000004 = load ptr, ptr %_2000021
  %_2000005 = call dereferenceable_or_null(8) ptr %_2000004(ptr dereferenceable_or_null(8) %_2000001, i32 %_2000002)
  %_2000022 = getelementptr { { ptr }, i32, i32, ptr }, { { ptr }, i32, i32, ptr }* %_1, i32 0, i32 2
  %_2000006 = load i32, ptr %_2000022
  %_2000008 = add i32 %_2000006, 1
  %_2000024 = getelementptr { { ptr }, i32, i32, ptr }, { { ptr }, i32, i32, ptr }* %_1, i32 0, i32 2
  store i32 %_2000008, ptr%_2000024, align 4
  ret ptr %_2000005
_2000011.0:
  call ptr @"_SM34scala.scalanative.runtime.package$D16throwNullPointernEO"(ptr null)
  unreachable
}

define i1 @"_SM21scala.Product$$anon$1D7hasNextzEO"(ptr %_1) personality ptr @__gxx_personality_v0 {
_2000000.0:
  %_2000007 = icmp ne ptr %_1, null
  br i1 %_2000007, label %_2000005.0, label %_2000006.0
_2000005.0:
  %_2000008 = getelementptr { { ptr }, i32, i32, ptr }, { { ptr }, i32, i32, ptr }* %_1, i32 0, i32 2
  %_2000001 = load i32, ptr %_2000008
  %_2000009 = getelementptr { { ptr }, i32, i32, ptr }, { { ptr }, i32, i32, ptr }* %_1, i32 0, i32 1
  %_2000002 = load i32, ptr %_2000009
  %_2000004 = icmp slt i32 %_2000001, %_2000002
  ret i1 %_2000004
_2000006.0:
  call ptr @"_SM34scala.scalanative.runtime.package$D16throwNullPointernEO"(ptr null)
  unreachable
}

define i32 @"_SM14scala.Product2D12productArityiEO"(ptr %_1) personality ptr @__gxx_personality_v0 {
_2000000.0:
  ret i32 2
}

define dereferenceable_or_null(8) ptr @"_SM14scala.Product2D14productElementiL16java.lang.ObjectEO"(ptr %_1, i32 %_2) personality ptr @__gxx_personality_v0 {
_3000000.0:
  %_26000005 = icmp ne ptr %_1, null
  br i1 %_26000005, label %_26000003.0, label %_26000004.0
_26000003.0:
  switch i32 %_2, label %_4000000.0 [
    i32 0, label %_5000000.0
    i32 1, label %_6000000.0
  ]
_5000000.0:
  %_24000001 = bitcast ptr %_1 to ptr
  %_26000007 = icmp ne ptr %_24000001, null
  br i1 %_26000007, label %_26000006.0, label %_26000004.0
_26000006.0:
  %_26000008 = getelementptr { { ptr }, ptr, ptr }, { { ptr }, ptr, ptr }* %_24000001, i32 0, i32 1
  %_24000002 = load ptr, ptr %_26000008, !dereferenceable_or_null !{i64 8}
  br label %_25000000.0
_6000000.0:
  %_26000001 = bitcast ptr %_1 to ptr
  %_26000010 = icmp ne ptr %_26000001, null
  br i1 %_26000010, label %_26000009.0, label %_26000004.0
_26000009.0:
  %_26000011 = getelementptr { { ptr }, ptr, ptr }, { { ptr }, ptr, ptr }* %_26000001, i32 0, i32 2
  %_26000002 = load ptr, ptr %_26000011, !dereferenceable_or_null !{i64 8}
  br label %_25000000.0
_25000000.0:
  %_25000001 = phi ptr [%_26000002, %_26000009.0], [%_24000002, %_26000006.0]
  ret ptr %_25000001
_4000000.0:
  %_4000003 = call dereferenceable_or_null(24) ptr @"scalanative_GC_alloc_small"(ptr @"_SM23java.lang.StringBuilderG4type", i64 24)
  %_4000004 = call dereferenceable_or_null(16) ptr @"_SM36scala.scalanative.runtime.CharArray$D5allociL35scala.scalanative.runtime.CharArrayEO"(ptr @"_SM36scala.scalanative.runtime.CharArray$G8instance", i32 32)
  %_26000014 = getelementptr { { ptr }, i32, i1, ptr }, { { ptr }, i32, i1, ptr }* %_4000003, i32 0, i32 3
  store ptr %_4000004, ptr%_26000014, align 8
  %_4000006 = call dereferenceable_or_null(24) ptr @"_SM23java.lang.StringBuilderD6appendiL23java.lang.StringBuilderEO"(ptr nonnull dereferenceable(24) %_4000003, i32 %_2)
  %_4000009 = call dereferenceable_or_null(24) ptr @"_SM23java.lang.StringBuilderD6appendL16java.lang.StringL23java.lang.StringBuilderEO"(ptr nonnull dereferenceable(24) %_4000003, ptr @"_SM7__constG3-104")
  %_4000010 = call dereferenceable_or_null(32) ptr @"_SM23java.lang.StringBuilderD8toStringL16java.lang.StringEO"(ptr nonnull dereferenceable(24) %_4000003)
  br label %_22000000.0
_22000000.0:
  %_22000001 = call dereferenceable_or_null(40) ptr @"scalanative_GC_alloc_small"(ptr @"_SM35java.lang.IndexOutOfBoundsExceptionG4type", i64 40)
  %_26000016 = getelementptr { { ptr }, ptr, ptr, ptr, i1, i1 }, { { ptr }, ptr, ptr, ptr, i1, i1 }* %_22000001, i32 0, i32 5
  %_26000017 = zext i1 true to i8
  store i8 %_26000017, ptr%_26000016, align 1
  %_26000019 = getelementptr { { ptr }, ptr, ptr, ptr, i1, i1 }, { { ptr }, ptr, ptr, ptr, i1, i1 }* %_22000001, i32 0, i32 4
  %_26000020 = zext i1 true to i8
  store i8 %_26000020, ptr%_26000019, align 1
  %_26000022 = getelementptr { { ptr }, ptr, ptr, ptr, i1, i1 }, { { ptr }, ptr, ptr, ptr, i1, i1 }* %_22000001, i32 0, i32 3
  store ptr %_4000010, ptr%_26000022, align 8
  %_22000005 = call dereferenceable_or_null(40) ptr @"_SM19java.lang.ThrowableD16fillInStackTraceL19java.lang.ThrowableEO"(ptr nonnull dereferenceable(40) %_22000001)
  br label %_23000000.0
_23000000.0:
  call ptr @"scalanative_throw"(ptr nonnull dereferenceable(40) %_22000001)
  unreachable
_26000004.0:
  call ptr @"_SM34scala.scalanative.runtime.package$D16throwNullPointernEO"(ptr null)
  unreachable
}

define void @"_SM14scala.Product2D6$init$uEO"(ptr %_1) personality ptr @__gxx_personality_v0 {
_2000000.0:
  ret void
}

define i32 @"_SM14scala.Product3D12productArityiEO"(ptr %_1) personality ptr @__gxx_personality_v0 {
_2000000.0:
  ret i32 3
}

define dereferenceable_or_null(8) ptr @"_SM14scala.Product3D14productElementiL16java.lang.ObjectEO"(ptr %_1, i32 %_2) personality ptr @__gxx_personality_v0 {
_3000000.0:
  %_28000005 = icmp ne ptr %_1, null
  br i1 %_28000005, label %_28000003.0, label %_28000004.0
_28000003.0:
  switch i32 %_2, label %_4000000.0 [
    i32 0, label %_5000000.0
    i32 1, label %_6000000.0
    i32 2, label %_7000000.0
  ]
_5000000.0:
  %_25000001 = bitcast ptr %_1 to ptr
  %_28000007 = icmp ne ptr %_25000001, null
  br i1 %_28000007, label %_28000006.0, label %_28000004.0
_28000006.0:
  %_28000008 = getelementptr { { ptr }, ptr, ptr, ptr }, { { ptr }, ptr, ptr, ptr }* %_25000001, i32 0, i32 3
  %_25000002 = load ptr, ptr %_28000008, !dereferenceable_or_null !{i64 8}
  br label %_26000000.0
_6000000.0:
  %_27000001 = bitcast ptr %_1 to ptr
  %_28000010 = icmp ne ptr %_27000001, null
  br i1 %_28000010, label %_28000009.0, label %_28000004.0
_28000009.0:
  %_28000011 = getelementptr { { ptr }, ptr, ptr, ptr }, { { ptr }, ptr, ptr, ptr }* %_27000001, i32 0, i32 2
  %_27000002 = load ptr, ptr %_28000011, !dereferenceable_or_null !{i64 8}
  br label %_26000000.0
_7000000.0:
  %_28000001 = bitcast ptr %_1 to ptr
  %_28000013 = icmp ne ptr %_28000001, null
  br i1 %_28000013, label %_28000012.0, label %_28000004.0
_28000012.0:
  %_28000014 = getelementptr { { ptr }, ptr, ptr, ptr }, { { ptr }, ptr, ptr, ptr }* %_28000001, i32 0, i32 1
  %_28000002 = load ptr, ptr %_28000014, !dereferenceable_or_null !{i64 8}
  br label %_26000000.0
_26000000.0:
  %_26000001 = phi ptr [%_28000002, %_28000012.0], [%_27000002, %_28000009.0], [%_25000002, %_28000006.0]
  ret ptr %_26000001
_4000000.0:
  %_4000003 = call dereferenceable_or_null(24) ptr @"scalanative_GC_alloc_small"(ptr @"_SM23java.lang.StringBuilderG4type", i64 24)
  %_4000004 = call dereferenceable_or_null(16) ptr @"_SM36scala.scalanative.runtime.CharArray$D5allociL35scala.scalanative.runtime.CharArrayEO"(ptr @"_SM36scala.scalanative.runtime.CharArray$G8instance", i32 32)
  %_28000017 = getelementptr { { ptr }, i32, i1, ptr }, { { ptr }, i32, i1, ptr }* %_4000003, i32 0, i32 3
  store ptr %_4000004, ptr%_28000017, align 8
  %_4000006 = call dereferenceable_or_null(24) ptr @"_SM23java.lang.StringBuilderD6appendiL23java.lang.StringBuilderEO"(ptr nonnull dereferenceable(24) %_4000003, i32 %_2)
  %_4000009 = call dereferenceable_or_null(24) ptr @"_SM23java.lang.StringBuilderD6appendL16java.lang.StringL23java.lang.StringBuilderEO"(ptr nonnull dereferenceable(24) %_4000003, ptr @"_SM7__constG3-106")
  %_4000010 = call dereferenceable_or_null(32) ptr @"_SM23java.lang.StringBuilderD8toStringL16java.lang.StringEO"(ptr nonnull dereferenceable(24) %_4000003)
  br label %_23000000.0
_23000000.0:
  %_23000001 = call dereferenceable_or_null(40) ptr @"scalanative_GC_alloc_small"(ptr @"_SM35java.lang.IndexOutOfBoundsExceptionG4type", i64 40)
  %_28000019 = getelementptr { { ptr }, ptr, ptr, ptr, i1, i1 }, { { ptr }, ptr, ptr, ptr, i1, i1 }* %_23000001, i32 0, i32 5
  %_28000020 = zext i1 true to i8
  store i8 %_28000020, ptr%_28000019, align 1
  %_28000022 = getelementptr { { ptr }, ptr, ptr, ptr, i1, i1 }, { { ptr }, ptr, ptr, ptr, i1, i1 }* %_23000001, i32 0, i32 4
  %_28000023 = zext i1 true to i8
  store i8 %_28000023, ptr%_28000022, align 1
  %_28000025 = getelementptr { { ptr }, ptr, ptr, ptr, i1, i1 }, { { ptr }, ptr, ptr, ptr, i1, i1 }* %_23000001, i32 0, i32 3
  store ptr %_4000010, ptr%_28000025, align 8
  %_23000005 = call dereferenceable_or_null(40) ptr @"_SM19java.lang.ThrowableD16fillInStackTraceL19java.lang.ThrowableEO"(ptr nonnull dereferenceable(40) %_23000001)
  br label %_24000000.0
_24000000.0:
  call ptr @"scalanative_throw"(ptr nonnull dereferenceable(40) %_23000001)
  unreachable
_28000004.0:
  call ptr @"_SM34scala.scalanative.runtime.package$D16throwNullPointernEO"(ptr null)
  unreachable
}

define void @"_SM14scala.Product3D6$init$uEO"(ptr %_1) personality ptr @__gxx_personality_v0 {
_2000000.0:
  ret void
}

define i32 @"_SM14scala.Product4D12productArityiEO"(ptr %_1) personality ptr @__gxx_personality_v0 {
_2000000.0:
  ret i32 4
}

define dereferenceable_or_null(8) ptr @"_SM14scala.Product4D14productElementiL16java.lang.ObjectEO"(ptr %_1, i32 %_2) personality ptr @__gxx_personality_v0 {
_3000000.0:
  %_30000005 = icmp ne ptr %_1, null
  br i1 %_30000005, label %_30000003.0, label %_30000004.0
_30000003.0:
  switch i32 %_2, label %_4000000.0 [
    i32 0, label %_5000000.0
    i32 1, label %_6000000.0
    i32 2, label %_7000000.0
    i32 3, label %_8000000.0
  ]
_5000000.0:
  %_26000001 = bitcast ptr %_1 to ptr
  %_30000007 = icmp ne ptr %_26000001, null
  br i1 %_30000007, label %_30000006.0, label %_30000004.0
_30000006.0:
  %_30000008 = getelementptr { { ptr }, ptr, ptr, ptr, ptr }, { { ptr }, ptr, ptr, ptr, ptr }* %_26000001, i32 0, i32 4
  %_26000002 = load ptr, ptr %_30000008, !dereferenceable_or_null !{i64 8}
  br label %_27000000.0
_6000000.0:
  %_28000001 = bitcast ptr %_1 to ptr
  %_30000010 = icmp ne ptr %_28000001, null
  br i1 %_30000010, label %_30000009.0, label %_30000004.0
_30000009.0:
  %_30000011 = getelementptr { { ptr }, ptr, ptr, ptr, ptr }, { { ptr }, ptr, ptr, ptr, ptr }* %_28000001, i32 0, i32 3
  %_28000002 = load ptr, ptr %_30000011, !dereferenceable_or_null !{i64 8}
  br label %_27000000.0
_7000000.0:
  %_29000001 = bitcast ptr %_1 to ptr
  %_30000013 = icmp ne ptr %_29000001, null
  br i1 %_30000013, label %_30000012.0, label %_30000004.0
_30000012.0:
  %_30000014 = getelementptr { { ptr }, ptr, ptr, ptr, ptr }, { { ptr }, ptr, ptr, ptr, ptr }* %_29000001, i32 0, i32 2
  %_29000002 = load ptr, ptr %_30000014, !dereferenceable_or_null !{i64 8}
  br label %_27000000.0
_8000000.0:
  %_30000001 = bitcast ptr %_1 to ptr
  %_30000016 = icmp ne ptr %_30000001, null
  br i1 %_30000016, label %_30000015.0, label %_30000004.0
_30000015.0:
  %_30000017 = getelementptr { { ptr }, ptr, ptr, ptr, ptr }, { { ptr }, ptr, ptr, ptr, ptr }* %_30000001, i32 0, i32 1
  %_30000002 = load ptr, ptr %_30000017, !dereferenceable_or_null !{i64 8}
  br label %_27000000.0
_27000000.0:
  %_27000001 = phi ptr [%_30000002, %_30000015.0], [%_29000002, %_30000012.0], [%_28000002, %_30000009.0], [%_26000002, %_30000006.0]
  ret ptr %_27000001
_4000000.0:
  %_4000003 = call dereferenceable_or_null(24) ptr @"scalanative_GC_alloc_small"(ptr @"_SM23java.lang.StringBuilderG4type", i64 24)
  %_4000004 = call dereferenceable_or_null(16) ptr @"_SM36scala.scalanative.runtime.CharArray$D5allociL35scala.scalanative.runtime.CharArrayEO"(ptr @"_SM36scala.scalanative.runtime.CharArray$G8instance", i32 32)
  %_30000020 = getelementptr { { ptr }, i32, i1, ptr }, { { ptr }, i32, i1, ptr }* %_4000003, i32 0, i32 3
  store ptr %_4000004, ptr%_30000020, align 8
  %_4000006 = call dereferenceable_or_null(24) ptr @"_SM23java.lang.StringBuilderD6appendiL23java.lang.StringBuilderEO"(ptr nonnull dereferenceable(24) %_4000003, i32 %_2)
  %_4000009 = call dereferenceable_or_null(24) ptr @"_SM23java.lang.StringBuilderD6appendL16java.lang.StringL23java.lang.StringBuilderEO"(ptr nonnull dereferenceable(24) %_4000003, ptr @"_SM7__constG3-108")
  %_4000010 = call dereferenceable_or_null(32) ptr @"_SM23java.lang.StringBuilderD8toStringL16java.lang.StringEO"(ptr nonnull dereferenceable(24) %_4000003)
  br label %_24000000.0
_24000000.0:
  %_24000001 = call dereferenceable_or_null(40) ptr @"scalanative_GC_alloc_small"(ptr @"_SM35java.lang.IndexOutOfBoundsExceptionG4type", i64 40)
  %_30000022 = getelementptr { { ptr }, ptr, ptr, ptr, i1, i1 }, { { ptr }, ptr, ptr, ptr, i1, i1 }* %_24000001, i32 0, i32 5
  %_30000023 = zext i1 true to i8
  store i8 %_30000023, ptr%_30000022, align 1
  %_30000025 = getelementptr { { ptr }, ptr, ptr, ptr, i1, i1 }, { { ptr }, ptr, ptr, ptr, i1, i1 }* %_24000001, i32 0, i32 4
  %_30000026 = zext i1 true to i8
  store i8 %_30000026, ptr%_30000025, align 1
  %_30000028 = getelementptr { { ptr }, ptr, ptr, ptr, i1, i1 }, { { ptr }, ptr, ptr, ptr, i1, i1 }* %_24000001, i32 0, i32 3
  store ptr %_4000010, ptr%_30000028, align 8
  %_24000005 = call dereferenceable_or_null(40) ptr @"_SM19java.lang.ThrowableD16fillInStackTraceL19java.lang.ThrowableEO"(ptr nonnull dereferenceable(40) %_24000001)
  br label %_25000000.0
_25000000.0:
  call ptr @"scalanative_throw"(ptr nonnull dereferenceable(40) %_24000001)
  unreachable
_30000004.0:
  call ptr @"_SM34scala.scalanative.runtime.package$D16throwNullPointernEO"(ptr null)
  unreachable
}

define void @"_SM14scala.Product4D6$init$uEO"(ptr %_1) personality ptr @__gxx_personality_v0 {
_2000000.0:
  ret void
}

define nonnull dereferenceable(32) ptr @"_SM12scala.Short$D8toStringL16java.lang.StringEO"(ptr %_1) personality ptr @__gxx_personality_v0 {
_2000000.0:
  ret ptr @"_SM7__constG3-110"
}

define i32 @"_SM12scala.Short$D9short2intsiEO"(ptr %_1, i16 %_2) personality ptr @__gxx_personality_v0 {
_3000000.0:
  %_3000002 = sext i16 %_2 to i32
  ret i32 %_3000002
}

define void @"_SM12scala.Short$RE"(ptr %_1) personality ptr @__gxx_personality_v0 {
_2000000.0:
  ret void
}

define i32 @"_SM10scala.SomeD12productArityiEO"(ptr %_1) personality ptr @__gxx_personality_v0 {
_2000000.0:
  ret i32 1
}

define nonnull dereferenceable(32) ptr @"_SM10scala.SomeD13productPrefixL16java.lang.StringEO"(ptr %_1) personality ptr @__gxx_personality_v0 {
_2000000.0:
  ret ptr @"_SM7__constG3-112"
}

define dereferenceable_or_null(8) ptr @"_SM10scala.SomeD14productElementiL16java.lang.ObjectEO"(ptr %_1, i32 %_2) personality ptr @__gxx_personality_v0 {
_3000000.0:
  %_7000004 = icmp ne ptr %_1, null
  br i1 %_7000004, label %_7000002.0, label %_7000003.0
_7000002.0:
  switch i32 %_2, label %_4000000.0 [
    i32 0, label %_5000000.0
  ]
_4000000.0:
  %_4000001 = call dereferenceable_or_null(8) ptr @"_SM21scala.runtime.StaticsD5ioobeiL16java.lang.ObjectEo"(i32 %_2)
  br label %_6000000.0
_5000000.0:
  %_7000005 = getelementptr { { ptr }, ptr }, { { ptr }, ptr }* %_1, i32 0, i32 1
  %_7000001 = load ptr, ptr %_7000005, !dereferenceable_or_null !{i64 8}
  br label %_6000000.0
_6000000.0:
  %_6000001 = phi ptr [%_7000001, %_5000000.0], [%_4000001, %_4000000.0]
  ret ptr %_6000001
_7000003.0:
  call ptr @"_SM34scala.scalanative.runtime.package$D16throwNullPointernEO"(ptr null)
  unreachable
}

define dereferenceable_or_null(8) ptr @"_SM10scala.SomeD15productIteratorL25scala.collection.IteratorEO"(ptr %_1) personality ptr @__gxx_personality_v0 {
_2000000.0:
  %_2000005 = icmp ne ptr %_1, null
  br i1 %_2000005, label %_2000003.0, label %_2000004.0
_2000003.0:
  %_2000002 = call dereferenceable_or_null(8) ptr @"_SM27scala.runtime.ScalaRunTime$D20typedProductIteratorL13scala.ProductL25scala.collection.IteratorEO"(ptr nonnull dereferenceable(8) @"_SM27scala.runtime.ScalaRunTime$G8instance", ptr dereferenceable_or_null(16) %_1)
  ret ptr %_2000002
_2000004.0:
  call ptr @"_SM34scala.scalanative.runtime.package$D16throwNullPointernEO"(ptr null)
  unreachable
}

define dereferenceable_or_null(8) ptr @"_SM10scala.SomeD3getL16java.lang.ObjectEO"(ptr %_1) personality ptr @__gxx_personality_v0 {
_2000000.0:
  %_3000004 = icmp ne ptr %_1, null
  br i1 %_3000004, label %_3000002.0, label %_3000003.0
_3000002.0:
  %_3000005 = getelementptr { { ptr }, ptr }, { { ptr }, ptr }* %_1, i32 0, i32 1
  %_3000001 = load ptr, ptr %_3000005, !dereferenceable_or_null !{i64 8}
  ret ptr %_3000001
_3000003.0:
  call ptr @"_SM34scala.scalanative.runtime.package$D16throwNullPointernEO"(ptr null)
  unreachable
}

define i1 @"_SM10scala.SomeD6equalsL16java.lang.ObjectzEO"(ptr %_1, ptr %_2) personality ptr @__gxx_personality_v0 {
_3000000.0:
  %_16000004 = icmp ne ptr %_1, null
  br i1 %_16000004, label %_16000002.0, label %_16000003.0
_16000002.0:
  %_3000002 = icmp eq ptr %_1, %_2
  br i1 %_3000002, label %_4000000.0, label %_5000000.0
_4000000.0:
  br label %_6000000.0
_5000000.0:
  br label %_7000000.0
_7000000.0:
  %_16000008 = icmp eq ptr %_2, null
  br i1 %_16000008, label %_16000005.0, label %_16000006.0
_16000005.0:
  br label %_16000007.0
_16000006.0:
  %_16000009 = load ptr, ptr %_2
  %_16000010 = icmp eq ptr %_16000009, @"_SM10scala.SomeG4type"
  br label %_16000007.0
_16000007.0:
  %_7000002 = phi i1 [%_16000010, %_16000006.0], [false, %_16000005.0]
  br i1 %_7000002, label %_8000000.0, label %_9000000.0
_8000000.0:
  br label %_10000000.0
_9000000.0:
  br label %_11000000.0
_11000000.0:
  br label %_10000000.0
_10000000.0:
  %_10000001 = phi i1 [false, %_11000000.0], [true, %_8000000.0]
  br i1 %_10000001, label %_12000000.0, label %_13000000.0
_12000000.0:
  %_16000014 = icmp eq ptr %_2, null
  br i1 %_16000014, label %_16000012.0, label %_16000011.0
_16000011.0:
  %_16000015 = load ptr, ptr %_2
  %_16000016 = icmp eq ptr %_16000015, @"_SM10scala.SomeG4type"
  br i1 %_16000016, label %_16000012.0, label %_16000013.0
_16000012.0:
  %_16000017 = getelementptr { { ptr }, ptr }, { { ptr }, ptr }* %_1, i32 0, i32 1
  %_14000001 = load ptr, ptr %_16000017, !dereferenceable_or_null !{i64 8}
  %_16000019 = icmp ne ptr %_2, null
  br i1 %_16000019, label %_16000018.0, label %_16000003.0
_16000018.0:
  %_16000020 = getelementptr { { ptr }, ptr }, { { ptr }, ptr }* %_2, i32 0, i32 1
  %_15000001 = load ptr, ptr %_16000020, !dereferenceable_or_null !{i64 8}
  %_12000002 = call i1 @"_SM26scala.runtime.BoxesRunTimeD6equalsL16java.lang.ObjectL16java.lang.ObjectzEo"(ptr dereferenceable_or_null(8) %_14000001, ptr dereferenceable_or_null(8) %_15000001)
  br label %_16000000.0
_13000000.0:
  br label %_16000000.0
_16000000.0:
  %_16000001 = phi i1 [false, %_13000000.0], [%_12000002, %_16000018.0]
  br label %_6000000.0
_6000000.0:
  %_6000001 = phi i1 [%_16000001, %_16000000.0], [true, %_4000000.0]
  ret i1 %_6000001
_16000003.0:
  call ptr @"_SM34scala.scalanative.runtime.package$D16throwNullPointernEO"(ptr null)
  unreachable
_16000013.0:
  %_16000022 = phi ptr [%_2, %_16000011.0]
  %_16000023 = phi ptr [@"_SM10scala.SomeG4type", %_16000011.0]
  %_16000024 = load ptr, ptr %_16000022
  call ptr @"_SM34scala.scalanative.runtime.package$D14throwClassCastR_R_nEO"(ptr null, ptr %_16000024, ptr %_16000023)
  unreachable
}

define i32 @"_SM10scala.SomeD8hashCodeiEO"(ptr %_1) personality ptr @__gxx_personality_v0 {
_2000000.0:
  %_2000005 = icmp ne ptr %_1, null
  br i1 %_2000005, label %_2000003.0, label %_2000004.0
_2000003.0:
  %_2000002 = call i32 @"_SM27scala.runtime.ScalaRunTime$D9_hashCodeL13scala.ProductiEO"(ptr nonnull dereferenceable(8) @"_SM27scala.runtime.ScalaRunTime$G8instance", ptr dereferenceable_or_null(16) %_1)
  ret i32 %_2000002
_2000004.0:
  call ptr @"_SM34scala.scalanative.runtime.package$D16throwNullPointernEO"(ptr null)
  unreachable
}

define dereferenceable_or_null(32) ptr @"_SM10scala.SomeD8toStringL16java.lang.StringEO"(ptr %_1) personality ptr @__gxx_personality_v0 {
_2000000.0:
  %_2000005 = icmp ne ptr %_1, null
  br i1 %_2000005, label %_2000003.0, label %_2000004.0
_2000003.0:
  %_2000002 = call dereferenceable_or_null(32) ptr @"_SM27scala.runtime.ScalaRunTime$D9_toStringL13scala.ProductL16java.lang.StringEO"(ptr nonnull dereferenceable(8) @"_SM27scala.runtime.ScalaRunTime$G8instance", ptr dereferenceable_or_null(16) %_1)
  ret ptr %_2000002
_2000004.0:
  call ptr @"_SM34scala.scalanative.runtime.package$D16throwNullPointernEO"(ptr null)
  unreachable
}

define nonnull dereferenceable(16) ptr @"_SM11scala.Some$D5applyL16java.lang.ObjectL10scala.SomeEO"(ptr %_1, ptr %_2) personality ptr @__gxx_personality_v0 {
_3000000.0:
  %_5000001 = call dereferenceable_or_null(16) ptr @"scalanative_GC_alloc_small"(ptr @"_SM10scala.SomeG4type", i64 16)
  %_5000006 = getelementptr { { ptr }, ptr }, { { ptr }, ptr }* %_5000001, i32 0, i32 1
  store ptr %_2, ptr%_5000006, align 8
  call void @"_SM29scala.collection.IterableOnceD6$init$uEO"(ptr nonnull dereferenceable(16) %_5000001)
  call void @"_SM13scala.ProductD6$init$uEO"(ptr nonnull dereferenceable(16) %_5000001)
  ret ptr %_5000001
}

define nonnull dereferenceable(32) ptr @"_SM11scala.Some$D8toStringL16java.lang.StringEO"(ptr %_1) personality ptr @__gxx_personality_v0 {
_2000000.0:
  ret ptr @"_SM7__constG3-112"
}

define void @"_SM11scala.Some$RE"(ptr %_1) personality ptr @__gxx_personality_v0 {
_2000000.0:
  ret void
}

define i32 @"_SM12scala.Tuple2D12productArityiEO"(ptr %_1) personality ptr @__gxx_personality_v0 {
_2000000.0:
  %_2000004 = icmp ne ptr %_1, null
  br i1 %_2000004, label %_2000002.0, label %_2000003.0
_2000002.0:
  %_2000001 = call i32 @"_SM14scala.Product2D12productArityiEO"(ptr dereferenceable_or_null(24) %_1)
  ret i32 %_2000001
_2000003.0:
  call ptr @"_SM34scala.scalanative.runtime.package$D16throwNullPointernEO"(ptr null)
  unreachable
}

define nonnull dereferenceable(32) ptr @"_SM12scala.Tuple2D13productPrefixL16java.lang.StringEO"(ptr %_1) personality ptr @__gxx_personality_v0 {
_2000000.0:
  ret ptr @"_SM7__constG3-114"
}

define dereferenceable_or_null(8) ptr @"_SM12scala.Tuple2D14productElementiL16java.lang.ObjectEO"(ptr %_1, i32 %_2) personality ptr @__gxx_personality_v0 {
_3000000.0:
  %_3000004 = icmp ne ptr %_1, null
  br i1 %_3000004, label %_3000002.0, label %_3000003.0
_3000002.0:
  %_3000001 = call dereferenceable_or_null(8) ptr @"_SM14scala.Product2D14productElementiL16java.lang.ObjectEO"(ptr dereferenceable_or_null(24) %_1, i32 %_2)
  ret ptr %_3000001
_3000003.0:
  call ptr @"_SM34scala.scalanative.runtime.package$D16throwNullPointernEO"(ptr null)
  unreachable
}

define dereferenceable_or_null(8) ptr @"_SM12scala.Tuple2D15productIteratorL25scala.collection.IteratorEO"(ptr %_1) personality ptr @__gxx_personality_v0 {
_2000000.0:
  %_2000005 = icmp ne ptr %_1, null
  br i1 %_2000005, label %_2000003.0, label %_2000004.0
_2000003.0:
  %_2000002 = call dereferenceable_or_null(8) ptr @"_SM27scala.runtime.ScalaRunTime$D20typedProductIteratorL13scala.ProductL25scala.collection.IteratorEO"(ptr nonnull dereferenceable(8) @"_SM27scala.runtime.ScalaRunTime$G8instance", ptr dereferenceable_or_null(24) %_1)
  ret ptr %_2000002
_2000004.0:
  call ptr @"_SM34scala.scalanative.runtime.package$D16throwNullPointernEO"(ptr null)
  unreachable
}

define i1 @"_SM12scala.Tuple2D6equalsL16java.lang.ObjectzEO"(ptr %_1, ptr %_2) personality ptr @__gxx_personality_v0 {
_3000000.0:
  %_21000004 = icmp ne ptr %_1, null
  br i1 %_21000004, label %_21000002.0, label %_21000003.0
_21000002.0:
  %_3000002 = icmp eq ptr %_1, %_2
  br i1 %_3000002, label %_4000000.0, label %_5000000.0
_4000000.0:
  br label %_6000000.0
_5000000.0:
  br label %_7000000.0
_7000000.0:
  %_21000008 = icmp eq ptr %_2, null
  br i1 %_21000008, label %_21000005.0, label %_21000006.0
_21000005.0:
  br label %_21000007.0
_21000006.0:
  %_21000009 = load ptr, ptr %_2
  %_21000010 = icmp eq ptr %_21000009, @"_SM12scala.Tuple2G4type"
  br label %_21000007.0
_21000007.0:
  %_7000002 = phi i1 [%_21000010, %_21000006.0], [false, %_21000005.0]
  br i1 %_7000002, label %_8000000.0, label %_9000000.0
_8000000.0:
  br label %_10000000.0
_9000000.0:
  br label %_11000000.0
_11000000.0:
  br label %_10000000.0
_10000000.0:
  %_10000001 = phi i1 [false, %_11000000.0], [true, %_8000000.0]
  br i1 %_10000001, label %_12000000.0, label %_13000000.0
_12000000.0:
  %_21000014 = icmp eq ptr %_2, null
  br i1 %_21000014, label %_21000012.0, label %_21000011.0
_21000011.0:
  %_21000015 = load ptr, ptr %_2
  %_21000016 = icmp eq ptr %_21000015, @"_SM12scala.Tuple2G4type"
  br i1 %_21000016, label %_21000012.0, label %_21000013.0
_21000012.0:
  %_21000017 = getelementptr { { ptr }, ptr, ptr }, { { ptr }, ptr, ptr }* %_1, i32 0, i32 1
  %_14000001 = load ptr, ptr %_21000017, !dereferenceable_or_null !{i64 8}
  %_21000019 = icmp ne ptr %_2, null
  br i1 %_21000019, label %_21000018.0, label %_21000003.0
_21000018.0:
  %_21000020 = getelementptr { { ptr }, ptr, ptr }, { { ptr }, ptr, ptr }* %_2, i32 0, i32 1
  %_15000001 = load ptr, ptr %_21000020, !dereferenceable_or_null !{i64 8}
  %_12000002 = call i1 @"_SM26scala.runtime.BoxesRunTimeD6equalsL16java.lang.ObjectL16java.lang.ObjectzEo"(ptr dereferenceable_or_null(8) %_14000001, ptr dereferenceable_or_null(8) %_15000001)
  br i1 %_12000002, label %_16000000.0, label %_17000000.0
_16000000.0:
  %_21000021 = getelementptr { { ptr }, ptr, ptr }, { { ptr }, ptr, ptr }* %_1, i32 0, i32 2
  %_18000001 = load ptr, ptr %_21000021, !dereferenceable_or_null !{i64 8}
  %_21000022 = getelementptr { { ptr }, ptr, ptr }, { { ptr }, ptr, ptr }* %_2, i32 0, i32 2
  %_19000001 = load ptr, ptr %_21000022, !dereferenceable_or_null !{i64 8}
  %_16000001 = call i1 @"_SM26scala.runtime.BoxesRunTimeD6equalsL16java.lang.ObjectL16java.lang.ObjectzEo"(ptr dereferenceable_or_null(8) %_18000001, ptr dereferenceable_or_null(8) %_19000001)
  br label %_20000000.0
_17000000.0:
  br label %_20000000.0
_20000000.0:
  %_20000001 = phi i1 [false, %_17000000.0], [%_16000001, %_16000000.0]
  br label %_21000000.0
_13000000.0:
  br label %_21000000.0
_21000000.0:
  %_21000001 = phi i1 [false, %_13000000.0], [%_20000001, %_20000000.0]
  br label %_6000000.0
_6000000.0:
  %_6000001 = phi i1 [%_21000001, %_21000000.0], [true, %_4000000.0]
  ret i1 %_6000001
_21000003.0:
  call ptr @"_SM34scala.scalanative.runtime.package$D16throwNullPointernEO"(ptr null)
  unreachable
_21000013.0:
  %_21000024 = phi ptr [%_2, %_21000011.0]
  %_21000025 = phi ptr [@"_SM12scala.Tuple2G4type", %_21000011.0]
  %_21000026 = load ptr, ptr %_21000024
  call ptr @"_SM34scala.scalanative.runtime.package$D14throwClassCastR_R_nEO"(ptr null, ptr %_21000026, ptr %_21000025)
  unreachable
}

define i32 @"_SM12scala.Tuple2D8hashCodeiEO"(ptr %_1) personality ptr @__gxx_personality_v0 {
_2000000.0:
  %_2000005 = icmp ne ptr %_1, null
  br i1 %_2000005, label %_2000003.0, label %_2000004.0
_2000003.0:
  %_2000002 = call i32 @"_SM27scala.runtime.ScalaRunTime$D9_hashCodeL13scala.ProductiEO"(ptr nonnull dereferenceable(8) @"_SM27scala.runtime.ScalaRunTime$G8instance", ptr dereferenceable_or_null(24) %_1)
  ret i32 %_2000002
_2000004.0:
  call ptr @"_SM34scala.scalanative.runtime.package$D16throwNullPointernEO"(ptr null)
  unreachable
}

define dereferenceable_or_null(32) ptr @"_SM12scala.Tuple2D8toStringL16java.lang.StringEO"(ptr %_1) personality ptr @__gxx_personality_v0 {
_2000000.0:
  %_11000004 = icmp ne ptr %_1, null
  br i1 %_11000004, label %_11000002.0, label %_11000003.0
_11000002.0:
  %_2000004 = call dereferenceable_or_null(24) ptr @"scalanative_GC_alloc_small"(ptr @"_SM23java.lang.StringBuilderG4type", i64 24)
  %_2000005 = call dereferenceable_or_null(16) ptr @"_SM36scala.scalanative.runtime.CharArray$D5allociL35scala.scalanative.runtime.CharArrayEO"(ptr @"_SM36scala.scalanative.runtime.CharArray$G8instance", i32 3)
  %_11000007 = getelementptr { { ptr }, i32, i1, ptr }, { { ptr }, i32, i1, ptr }* %_2000004, i32 0, i32 3
  store ptr %_2000005, ptr%_11000007, align 8
  %_2000007 = call dereferenceable_or_null(24) ptr @"_SM23java.lang.StringBuilderD6appendL16java.lang.StringL23java.lang.StringBuilderEO"(ptr nonnull dereferenceable(24) %_2000004, ptr @"_SM7__constG3-116")
  %_11000008 = getelementptr { { ptr }, ptr, ptr }, { { ptr }, ptr, ptr }* %_1, i32 0, i32 1
  %_10000001 = load ptr, ptr %_11000008, !dereferenceable_or_null !{i64 8}
  %_2000008 = call dereferenceable_or_null(24) ptr @"_SM23java.lang.StringBuilderD6appendL16java.lang.ObjectL23java.lang.StringBuilderEO"(ptr nonnull dereferenceable(24) %_2000004, ptr dereferenceable_or_null(8) %_10000001)
  %_2000011 = call dereferenceable_or_null(24) ptr @"_SM23java.lang.StringBuilderD6appendL16java.lang.StringL23java.lang.StringBuilderEO"(ptr nonnull dereferenceable(24) %_2000004, ptr @"_SM7__constG3-118")
  %_11000009 = getelementptr { { ptr }, ptr, ptr }, { { ptr }, ptr, ptr }* %_1, i32 0, i32 2
  %_11000001 = load ptr, ptr %_11000009, !dereferenceable_or_null !{i64 8}
  %_2000012 = call dereferenceable_or_null(24) ptr @"_SM23java.lang.StringBuilderD6appendL16java.lang.ObjectL23java.lang.StringBuilderEO"(ptr nonnull dereferenceable(24) %_2000004, ptr dereferenceable_or_null(8) %_11000001)
  %_2000015 = call dereferenceable_or_null(24) ptr @"_SM23java.lang.StringBuilderD6appendL16java.lang.StringL23java.lang.StringBuilderEO"(ptr nonnull dereferenceable(24) %_2000004, ptr @"_SM7__constG2-92")
  %_2000016 = call dereferenceable_or_null(32) ptr @"_SM23java.lang.StringBuilderD8toStringL16java.lang.StringEO"(ptr nonnull dereferenceable(24) %_2000004)
  ret ptr %_2000016
_11000003.0:
  call ptr @"_SM34scala.scalanative.runtime.package$D16throwNullPointernEO"(ptr null)
  unreachable
}

define nonnull dereferenceable(24) ptr @"_SM13scala.Tuple2$D5applyL16java.lang.ObjectL16java.lang.ObjectL12scala.Tuple2EO"(ptr %_1, ptr %_2, ptr %_3) personality ptr @__gxx_personality_v0 {
_4000000.0:
  %_5000001 = call dereferenceable_or_null(24) ptr @"scalanative_GC_alloc_small"(ptr @"_SM12scala.Tuple2G4type", i64 24)
  %_5000007 = getelementptr { { ptr }, ptr, ptr }, { { ptr }, ptr, ptr }* %_5000001, i32 0, i32 2
  store ptr %_3, ptr%_5000007, align 8
  %_5000009 = getelementptr { { ptr }, ptr, ptr }, { { ptr }, ptr, ptr }* %_5000001, i32 0, i32 1
  store ptr %_2, ptr%_5000009, align 8
  call void @"_SM13scala.ProductD6$init$uEO"(ptr nonnull dereferenceable(24) %_5000001)
  call void @"_SM14scala.Product2D6$init$uEO"(ptr nonnull dereferenceable(24) %_5000001)
  ret ptr %_5000001
}

define nonnull dereferenceable(32) ptr @"_SM13scala.Tuple2$D8toStringL16java.lang.StringEO"(ptr %_1) personality ptr @__gxx_personality_v0 {
_2000000.0:
  ret ptr @"_SM7__constG3-114"
}

define void @"_SM13scala.Tuple2$RE"(ptr %_1) personality ptr @__gxx_personality_v0 {
_2000000.0:
  ret void
}

define i32 @"_SM12scala.Tuple3D12productArityiEO"(ptr %_1) personality ptr @__gxx_personality_v0 {
_2000000.0:
  %_2000004 = icmp ne ptr %_1, null
  br i1 %_2000004, label %_2000002.0, label %_2000003.0
_2000002.0:
  %_2000001 = call i32 @"_SM14scala.Product3D12productArityiEO"(ptr dereferenceable_or_null(32) %_1)
  ret i32 %_2000001
_2000003.0:
  call ptr @"_SM34scala.scalanative.runtime.package$D16throwNullPointernEO"(ptr null)
  unreachable
}

define nonnull dereferenceable(32) ptr @"_SM12scala.Tuple3D13productPrefixL16java.lang.StringEO"(ptr %_1) personality ptr @__gxx_personality_v0 {
_2000000.0:
  ret ptr @"_SM7__constG3-120"
}

define dereferenceable_or_null(8) ptr @"_SM12scala.Tuple3D14productElementiL16java.lang.ObjectEO"(ptr %_1, i32 %_2) personality ptr @__gxx_personality_v0 {
_3000000.0:
  %_3000004 = icmp ne ptr %_1, null
  br i1 %_3000004, label %_3000002.0, label %_3000003.0
_3000002.0:
  %_3000001 = call dereferenceable_or_null(8) ptr @"_SM14scala.Product3D14productElementiL16java.lang.ObjectEO"(ptr dereferenceable_or_null(32) %_1, i32 %_2)
  ret ptr %_3000001
_3000003.0:
  call ptr @"_SM34scala.scalanative.runtime.package$D16throwNullPointernEO"(ptr null)
  unreachable
}

define dereferenceable_or_null(8) ptr @"_SM12scala.Tuple3D15productIteratorL25scala.collection.IteratorEO"(ptr %_1) personality ptr @__gxx_personality_v0 {
_2000000.0:
  %_2000005 = icmp ne ptr %_1, null
  br i1 %_2000005, label %_2000003.0, label %_2000004.0
_2000003.0:
  %_2000002 = call dereferenceable_or_null(8) ptr @"_SM27scala.runtime.ScalaRunTime$D20typedProductIteratorL13scala.ProductL25scala.collection.IteratorEO"(ptr nonnull dereferenceable(8) @"_SM27scala.runtime.ScalaRunTime$G8instance", ptr dereferenceable_or_null(32) %_1)
  ret ptr %_2000002
_2000004.0:
  call ptr @"_SM34scala.scalanative.runtime.package$D16throwNullPointernEO"(ptr null)
  unreachable
}

define i1 @"_SM12scala.Tuple3D6equalsL16java.lang.ObjectzEO"(ptr %_1, ptr %_2) personality ptr @__gxx_personality_v0 {
_3000000.0:
  %_26000004 = icmp ne ptr %_1, null
  br i1 %_26000004, label %_26000002.0, label %_26000003.0
_26000002.0:
  %_3000002 = icmp eq ptr %_1, %_2
  br i1 %_3000002, label %_4000000.0, label %_5000000.0
_4000000.0:
  br label %_6000000.0
_5000000.0:
  br label %_7000000.0
_7000000.0:
  %_26000008 = icmp eq ptr %_2, null
  br i1 %_26000008, label %_26000005.0, label %_26000006.0
_26000005.0:
  br label %_26000007.0
_26000006.0:
  %_26000009 = load ptr, ptr %_2
  %_26000010 = icmp eq ptr %_26000009, @"_SM12scala.Tuple3G4type"
  br label %_26000007.0
_26000007.0:
  %_7000002 = phi i1 [%_26000010, %_26000006.0], [false, %_26000005.0]
  br i1 %_7000002, label %_8000000.0, label %_9000000.0
_8000000.0:
  br label %_10000000.0
_9000000.0:
  br label %_11000000.0
_11000000.0:
  br label %_10000000.0
_10000000.0:
  %_10000001 = phi i1 [false, %_11000000.0], [true, %_8000000.0]
  br i1 %_10000001, label %_12000000.0, label %_13000000.0
_12000000.0:
  %_26000014 = icmp eq ptr %_2, null
  br i1 %_26000014, label %_26000012.0, label %_26000011.0
_26000011.0:
  %_26000015 = load ptr, ptr %_2
  %_26000016 = icmp eq ptr %_26000015, @"_SM12scala.Tuple3G4type"
  br i1 %_26000016, label %_26000012.0, label %_26000013.0
_26000012.0:
  %_26000017 = getelementptr { { ptr }, ptr, ptr, ptr }, { { ptr }, ptr, ptr, ptr }* %_1, i32 0, i32 3
  %_14000001 = load ptr, ptr %_26000017, !dereferenceable_or_null !{i64 8}
  %_26000019 = icmp ne ptr %_2, null
  br i1 %_26000019, label %_26000018.0, label %_26000003.0
_26000018.0:
  %_26000020 = getelementptr { { ptr }, ptr, ptr, ptr }, { { ptr }, ptr, ptr, ptr }* %_2, i32 0, i32 3
  %_15000001 = load ptr, ptr %_26000020, !dereferenceable_or_null !{i64 8}
  %_12000002 = call i1 @"_SM26scala.runtime.BoxesRunTimeD6equalsL16java.lang.ObjectL16java.lang.ObjectzEo"(ptr dereferenceable_or_null(8) %_14000001, ptr dereferenceable_or_null(8) %_15000001)
  br i1 %_12000002, label %_16000000.0, label %_17000000.0
_16000000.0:
  %_26000021 = getelementptr { { ptr }, ptr, ptr, ptr }, { { ptr }, ptr, ptr, ptr }* %_1, i32 0, i32 2
  %_18000001 = load ptr, ptr %_26000021, !dereferenceable_or_null !{i64 8}
  %_26000022 = getelementptr { { ptr }, ptr, ptr, ptr }, { { ptr }, ptr, ptr, ptr }* %_2, i32 0, i32 2
  %_19000001 = load ptr, ptr %_26000022, !dereferenceable_or_null !{i64 8}
  %_16000001 = call i1 @"_SM26scala.runtime.BoxesRunTimeD6equalsL16java.lang.ObjectL16java.lang.ObjectzEo"(ptr dereferenceable_or_null(8) %_18000001, ptr dereferenceable_or_null(8) %_19000001)
  br i1 %_16000001, label %_20000000.0, label %_21000000.0
_20000000.0:
  %_26000023 = getelementptr { { ptr }, ptr, ptr, ptr }, { { ptr }, ptr, ptr, ptr }* %_1, i32 0, i32 1
  %_22000001 = load ptr, ptr %_26000023, !dereferenceable_or_null !{i64 8}
  %_26000024 = getelementptr { { ptr }, ptr, ptr, ptr }, { { ptr }, ptr, ptr, ptr }* %_2, i32 0, i32 1
  %_23000001 = load ptr, ptr %_26000024, !dereferenceable_or_null !{i64 8}
  %_20000001 = call i1 @"_SM26scala.runtime.BoxesRunTimeD6equalsL16java.lang.ObjectL16java.lang.ObjectzEo"(ptr dereferenceable_or_null(8) %_22000001, ptr dereferenceable_or_null(8) %_23000001)
  br label %_24000000.0
_21000000.0:
  br label %_24000000.0
_24000000.0:
  %_24000001 = phi i1 [false, %_21000000.0], [%_20000001, %_20000000.0]
  br label %_25000000.0
_17000000.0:
  br label %_25000000.0
_25000000.0:
  %_25000001 = phi i1 [false, %_17000000.0], [%_24000001, %_24000000.0]
  br label %_26000000.0
_13000000.0:
  br label %_26000000.0
_26000000.0:
  %_26000001 = phi i1 [false, %_13000000.0], [%_25000001, %_25000000.0]
  br label %_6000000.0
_6000000.0:
  %_6000001 = phi i1 [%_26000001, %_26000000.0], [true, %_4000000.0]
  ret i1 %_6000001
_26000003.0:
  call ptr @"_SM34scala.scalanative.runtime.package$D16throwNullPointernEO"(ptr null)
  unreachable
_26000013.0:
  %_26000026 = phi ptr [%_2, %_26000011.0]
  %_26000027 = phi ptr [@"_SM12scala.Tuple3G4type", %_26000011.0]
  %_26000028 = load ptr, ptr %_26000026
  call ptr @"_SM34scala.scalanative.runtime.package$D14throwClassCastR_R_nEO"(ptr null, ptr %_26000028, ptr %_26000027)
  unreachable
}

define i32 @"_SM12scala.Tuple3D8hashCodeiEO"(ptr %_1) personality ptr @__gxx_personality_v0 {
_2000000.0:
  %_2000005 = icmp ne ptr %_1, null
  br i1 %_2000005, label %_2000003.0, label %_2000004.0
_2000003.0:
  %_2000002 = call i32 @"_SM27scala.runtime.ScalaRunTime$D9_hashCodeL13scala.ProductiEO"(ptr nonnull dereferenceable(8) @"_SM27scala.runtime.ScalaRunTime$G8instance", ptr dereferenceable_or_null(32) %_1)
  ret i32 %_2000002
_2000004.0:
  call ptr @"_SM34scala.scalanative.runtime.package$D16throwNullPointernEO"(ptr null)
  unreachable
}

define dereferenceable_or_null(32) ptr @"_SM12scala.Tuple3D8toStringL16java.lang.StringEO"(ptr %_1) personality ptr @__gxx_personality_v0 {
_2000000.0:
  %_12000004 = icmp ne ptr %_1, null
  br i1 %_12000004, label %_12000002.0, label %_12000003.0
_12000002.0:
  %_2000004 = call dereferenceable_or_null(24) ptr @"scalanative_GC_alloc_small"(ptr @"_SM23java.lang.StringBuilderG4type", i64 24)
  %_2000005 = call dereferenceable_or_null(16) ptr @"_SM36scala.scalanative.runtime.CharArray$D5allociL35scala.scalanative.runtime.CharArrayEO"(ptr @"_SM36scala.scalanative.runtime.CharArray$G8instance", i32 4)
  %_12000007 = getelementptr { { ptr }, i32, i1, ptr }, { { ptr }, i32, i1, ptr }* %_2000004, i32 0, i32 3
  store ptr %_2000005, ptr%_12000007, align 8
  %_2000007 = call dereferenceable_or_null(24) ptr @"_SM23java.lang.StringBuilderD6appendL16java.lang.StringL23java.lang.StringBuilderEO"(ptr nonnull dereferenceable(24) %_2000004, ptr @"_SM7__constG3-116")
  %_12000008 = getelementptr { { ptr }, ptr, ptr, ptr }, { { ptr }, ptr, ptr, ptr }* %_1, i32 0, i32 3
  %_10000001 = load ptr, ptr %_12000008, !dereferenceable_or_null !{i64 8}
  %_2000008 = call dereferenceable_or_null(24) ptr @"_SM23java.lang.StringBuilderD6appendL16java.lang.ObjectL23java.lang.StringBuilderEO"(ptr nonnull dereferenceable(24) %_2000004, ptr dereferenceable_or_null(8) %_10000001)
  %_2000011 = call dereferenceable_or_null(24) ptr @"_SM23java.lang.StringBuilderD6appendL16java.lang.StringL23java.lang.StringBuilderEO"(ptr nonnull dereferenceable(24) %_2000004, ptr @"_SM7__constG3-118")
  %_12000009 = getelementptr { { ptr }, ptr, ptr, ptr }, { { ptr }, ptr, ptr, ptr }* %_1, i32 0, i32 2
  %_11000001 = load ptr, ptr %_12000009, !dereferenceable_or_null !{i64 8}
  %_2000012 = call dereferenceable_or_null(24) ptr @"_SM23java.lang.StringBuilderD6appendL16java.lang.ObjectL23java.lang.StringBuilderEO"(ptr nonnull dereferenceable(24) %_2000004, ptr dereferenceable_or_null(8) %_11000001)
  %_2000015 = call dereferenceable_or_null(24) ptr @"_SM23java.lang.StringBuilderD6appendL16java.lang.StringL23java.lang.StringBuilderEO"(ptr nonnull dereferenceable(24) %_2000004, ptr @"_SM7__constG3-118")
  %_12000010 = getelementptr { { ptr }, ptr, ptr, ptr }, { { ptr }, ptr, ptr, ptr }* %_1, i32 0, i32 1
  %_12000001 = load ptr, ptr %_12000010, !dereferenceable_or_null !{i64 8}
  %_2000016 = call dereferenceable_or_null(24) ptr @"_SM23java.lang.StringBuilderD6appendL16java.lang.ObjectL23java.lang.StringBuilderEO"(ptr nonnull dereferenceable(24) %_2000004, ptr dereferenceable_or_null(8) %_12000001)
  %_2000019 = call dereferenceable_or_null(24) ptr @"_SM23java.lang.StringBuilderD6appendL16java.lang.StringL23java.lang.StringBuilderEO"(ptr nonnull dereferenceable(24) %_2000004, ptr @"_SM7__constG2-92")
  %_2000020 = call dereferenceable_or_null(32) ptr @"_SM23java.lang.StringBuilderD8toStringL16java.lang.StringEO"(ptr nonnull dereferenceable(24) %_2000004)
  ret ptr %_2000020
_12000003.0:
  call ptr @"_SM34scala.scalanative.runtime.package$D16throwNullPointernEO"(ptr null)
  unreachable
}

define nonnull dereferenceable(32) ptr @"_SM13scala.Tuple3$D5applyL16java.lang.ObjectL16java.lang.ObjectL16java.lang.ObjectL12scala.Tuple3EO"(ptr %_1, ptr %_2, ptr %_3, ptr %_4) personality ptr @__gxx_personality_v0 {
_5000000.0:
  %_6000001 = call dereferenceable_or_null(32) ptr @"scalanative_GC_alloc_small"(ptr @"_SM12scala.Tuple3G4type", i64 32)
  %_6000008 = getelementptr { { ptr }, ptr, ptr, ptr }, { { ptr }, ptr, ptr, ptr }* %_6000001, i32 0, i32 1
  store ptr %_4, ptr%_6000008, align 8
  %_6000010 = getelementptr { { ptr }, ptr, ptr, ptr }, { { ptr }, ptr, ptr, ptr }* %_6000001, i32 0, i32 2
  store ptr %_3, ptr%_6000010, align 8
  %_6000012 = getelementptr { { ptr }, ptr, ptr, ptr }, { { ptr }, ptr, ptr, ptr }* %_6000001, i32 0, i32 3
  store ptr %_2, ptr%_6000012, align 8
  call void @"_SM13scala.ProductD6$init$uEO"(ptr nonnull dereferenceable(32) %_6000001)
  call void @"_SM14scala.Product3D6$init$uEO"(ptr nonnull dereferenceable(32) %_6000001)
  ret ptr %_6000001
}

define nonnull dereferenceable(32) ptr @"_SM13scala.Tuple3$D8toStringL16java.lang.StringEO"(ptr %_1) personality ptr @__gxx_personality_v0 {
_2000000.0:
  ret ptr @"_SM7__constG3-120"
}

define void @"_SM13scala.Tuple3$RE"(ptr %_1) personality ptr @__gxx_personality_v0 {
_2000000.0:
  ret void
}

define i32 @"_SM12scala.Tuple4D12productArityiEO"(ptr %_1) personality ptr @__gxx_personality_v0 {
_2000000.0:
  %_2000004 = icmp ne ptr %_1, null
  br i1 %_2000004, label %_2000002.0, label %_2000003.0
_2000002.0:
  %_2000001 = call i32 @"_SM14scala.Product4D12productArityiEO"(ptr dereferenceable_or_null(40) %_1)
  ret i32 %_2000001
_2000003.0:
  call ptr @"_SM34scala.scalanative.runtime.package$D16throwNullPointernEO"(ptr null)
  unreachable
}

define nonnull dereferenceable(32) ptr @"_SM12scala.Tuple4D13productPrefixL16java.lang.StringEO"(ptr %_1) personality ptr @__gxx_personality_v0 {
_2000000.0:
  ret ptr @"_SM7__constG3-122"
}

define dereferenceable_or_null(8) ptr @"_SM12scala.Tuple4D14productElementiL16java.lang.ObjectEO"(ptr %_1, i32 %_2) personality ptr @__gxx_personality_v0 {
_3000000.0:
  %_3000004 = icmp ne ptr %_1, null
  br i1 %_3000004, label %_3000002.0, label %_3000003.0
_3000002.0:
  %_3000001 = call dereferenceable_or_null(8) ptr @"_SM14scala.Product4D14productElementiL16java.lang.ObjectEO"(ptr dereferenceable_or_null(40) %_1, i32 %_2)
  ret ptr %_3000001
_3000003.0:
  call ptr @"_SM34scala.scalanative.runtime.package$D16throwNullPointernEO"(ptr null)
  unreachable
}

define dereferenceable_or_null(8) ptr @"_SM12scala.Tuple4D15productIteratorL25scala.collection.IteratorEO"(ptr %_1) personality ptr @__gxx_personality_v0 {
_2000000.0:
  %_2000005 = icmp ne ptr %_1, null
  br i1 %_2000005, label %_2000003.0, label %_2000004.0
_2000003.0:
  %_2000002 = call dereferenceable_or_null(8) ptr @"_SM27scala.runtime.ScalaRunTime$D20typedProductIteratorL13scala.ProductL25scala.collection.IteratorEO"(ptr nonnull dereferenceable(8) @"_SM27scala.runtime.ScalaRunTime$G8instance", ptr dereferenceable_or_null(40) %_1)
  ret ptr %_2000002
_2000004.0:
  call ptr @"_SM34scala.scalanative.runtime.package$D16throwNullPointernEO"(ptr null)
  unreachable
}

define i1 @"_SM12scala.Tuple4D6equalsL16java.lang.ObjectzEO"(ptr %_1, ptr %_2) personality ptr @__gxx_personality_v0 {
_3000000.0:
  %_31000004 = icmp ne ptr %_1, null
  br i1 %_31000004, label %_31000002.0, label %_31000003.0
_31000002.0:
  %_3000002 = icmp eq ptr %_1, %_2
  br i1 %_3000002, label %_4000000.0, label %_5000000.0
_4000000.0:
  br label %_6000000.0
_5000000.0:
  br label %_7000000.0
_7000000.0:
  %_31000008 = icmp eq ptr %_2, null
  br i1 %_31000008, label %_31000005.0, label %_31000006.0
_31000005.0:
  br label %_31000007.0
_31000006.0:
  %_31000009 = load ptr, ptr %_2
  %_31000010 = icmp eq ptr %_31000009, @"_SM12scala.Tuple4G4type"
  br label %_31000007.0
_31000007.0:
  %_7000002 = phi i1 [%_31000010, %_31000006.0], [false, %_31000005.0]
  br i1 %_7000002, label %_8000000.0, label %_9000000.0
_8000000.0:
  br label %_10000000.0
_9000000.0:
  br label %_11000000.0
_11000000.0:
  br label %_10000000.0
_10000000.0:
  %_10000001 = phi i1 [false, %_11000000.0], [true, %_8000000.0]
  br i1 %_10000001, label %_12000000.0, label %_13000000.0
_12000000.0:
  %_31000014 = icmp eq ptr %_2, null
  br i1 %_31000014, label %_31000012.0, label %_31000011.0
_31000011.0:
  %_31000015 = load ptr, ptr %_2
  %_31000016 = icmp eq ptr %_31000015, @"_SM12scala.Tuple4G4type"
  br i1 %_31000016, label %_31000012.0, label %_31000013.0
_31000012.0:
  %_31000017 = getelementptr { { ptr }, ptr, ptr, ptr, ptr }, { { ptr }, ptr, ptr, ptr, ptr }* %_1, i32 0, i32 4
  %_14000001 = load ptr, ptr %_31000017, !dereferenceable_or_null !{i64 8}
  %_31000019 = icmp ne ptr %_2, null
  br i1 %_31000019, label %_31000018.0, label %_31000003.0
_31000018.0:
  %_31000020 = getelementptr { { ptr }, ptr, ptr, ptr, ptr }, { { ptr }, ptr, ptr, ptr, ptr }* %_2, i32 0, i32 4
  %_15000001 = load ptr, ptr %_31000020, !dereferenceable_or_null !{i64 8}
  %_12000002 = call i1 @"_SM26scala.runtime.BoxesRunTimeD6equalsL16java.lang.ObjectL16java.lang.ObjectzEo"(ptr dereferenceable_or_null(8) %_14000001, ptr dereferenceable_or_null(8) %_15000001)
  br i1 %_12000002, label %_16000000.0, label %_17000000.0
_16000000.0:
  %_31000021 = getelementptr { { ptr }, ptr, ptr, ptr, ptr }, { { ptr }, ptr, ptr, ptr, ptr }* %_1, i32 0, i32 3
  %_18000001 = load ptr, ptr %_31000021, !dereferenceable_or_null !{i64 8}
  %_31000022 = getelementptr { { ptr }, ptr, ptr, ptr, ptr }, { { ptr }, ptr, ptr, ptr, ptr }* %_2, i32 0, i32 3
  %_19000001 = load ptr, ptr %_31000022, !dereferenceable_or_null !{i64 8}
  %_16000001 = call i1 @"_SM26scala.runtime.BoxesRunTimeD6equalsL16java.lang.ObjectL16java.lang.ObjectzEo"(ptr dereferenceable_or_null(8) %_18000001, ptr dereferenceable_or_null(8) %_19000001)
  br label %_20000000.0
_17000000.0:
  br label %_20000000.0
_20000000.0:
  %_20000001 = phi i1 [false, %_17000000.0], [%_16000001, %_16000000.0]
  br i1 %_20000001, label %_21000000.0, label %_22000000.0
_21000000.0:
  %_31000023 = getelementptr { { ptr }, ptr, ptr, ptr, ptr }, { { ptr }, ptr, ptr, ptr, ptr }* %_1, i32 0, i32 2
  %_23000001 = load ptr, ptr %_31000023, !dereferenceable_or_null !{i64 8}
  %_31000024 = getelementptr { { ptr }, ptr, ptr, ptr, ptr }, { { ptr }, ptr, ptr, ptr, ptr }* %_2, i32 0, i32 2
  %_24000001 = load ptr, ptr %_31000024, !dereferenceable_or_null !{i64 8}
  %_21000001 = call i1 @"_SM26scala.runtime.BoxesRunTimeD6equalsL16java.lang.ObjectL16java.lang.ObjectzEo"(ptr dereferenceable_or_null(8) %_23000001, ptr dereferenceable_or_null(8) %_24000001)
  br i1 %_21000001, label %_25000000.0, label %_26000000.0
_25000000.0:
  %_31000025 = getelementptr { { ptr }, ptr, ptr, ptr, ptr }, { { ptr }, ptr, ptr, ptr, ptr }* %_1, i32 0, i32 1
  %_27000001 = load ptr, ptr %_31000025, !dereferenceable_or_null !{i64 8}
  %_31000026 = getelementptr { { ptr }, ptr, ptr, ptr, ptr }, { { ptr }, ptr, ptr, ptr, ptr }* %_2, i32 0, i32 1
  %_28000001 = load ptr, ptr %_31000026, !dereferenceable_or_null !{i64 8}
  %_25000001 = call i1 @"_SM26scala.runtime.BoxesRunTimeD6equalsL16java.lang.ObjectL16java.lang.ObjectzEo"(ptr dereferenceable_or_null(8) %_27000001, ptr dereferenceable_or_null(8) %_28000001)
  br label %_29000000.0
_26000000.0:
  br label %_29000000.0
_29000000.0:
  %_29000001 = phi i1 [false, %_26000000.0], [%_25000001, %_25000000.0]
  br label %_30000000.0
_22000000.0:
  br label %_30000000.0
_30000000.0:
  %_30000001 = phi i1 [false, %_22000000.0], [%_29000001, %_29000000.0]
  br label %_31000000.0
_13000000.0:
  br label %_31000000.0
_31000000.0:
  %_31000001 = phi i1 [false, %_13000000.0], [%_30000001, %_30000000.0]
  br label %_6000000.0
_6000000.0:
  %_6000001 = phi i1 [%_31000001, %_31000000.0], [true, %_4000000.0]
  ret i1 %_6000001
_31000003.0:
  call ptr @"_SM34scala.scalanative.runtime.package$D16throwNullPointernEO"(ptr null)
  unreachable
_31000013.0:
  %_31000028 = phi ptr [%_2, %_31000011.0]
  %_31000029 = phi ptr [@"_SM12scala.Tuple4G4type", %_31000011.0]
  %_31000030 = load ptr, ptr %_31000028
  call ptr @"_SM34scala.scalanative.runtime.package$D14throwClassCastR_R_nEO"(ptr null, ptr %_31000030, ptr %_31000029)
  unreachable
}

define i32 @"_SM12scala.Tuple4D8hashCodeiEO"(ptr %_1) personality ptr @__gxx_personality_v0 {
_2000000.0:
  %_2000005 = icmp ne ptr %_1, null
  br i1 %_2000005, label %_2000003.0, label %_2000004.0
_2000003.0:
  %_2000002 = call i32 @"_SM27scala.runtime.ScalaRunTime$D9_hashCodeL13scala.ProductiEO"(ptr nonnull dereferenceable(8) @"_SM27scala.runtime.ScalaRunTime$G8instance", ptr dereferenceable_or_null(40) %_1)
  ret i32 %_2000002
_2000004.0:
  call ptr @"_SM34scala.scalanative.runtime.package$D16throwNullPointernEO"(ptr null)
  unreachable
}

define dereferenceable_or_null(32) ptr @"_SM12scala.Tuple4D8toStringL16java.lang.StringEO"(ptr %_1) personality ptr @__gxx_personality_v0 {
_2000000.0:
  %_13000004 = icmp ne ptr %_1, null
  br i1 %_13000004, label %_13000002.0, label %_13000003.0
_13000002.0:
  %_2000004 = call dereferenceable_or_null(24) ptr @"scalanative_GC_alloc_small"(ptr @"_SM23java.lang.StringBuilderG4type", i64 24)
  %_2000005 = call dereferenceable_or_null(16) ptr @"_SM36scala.scalanative.runtime.CharArray$D5allociL35scala.scalanative.runtime.CharArrayEO"(ptr @"_SM36scala.scalanative.runtime.CharArray$G8instance", i32 5)
  %_13000007 = getelementptr { { ptr }, i32, i1, ptr }, { { ptr }, i32, i1, ptr }* %_2000004, i32 0, i32 3
  store ptr %_2000005, ptr%_13000007, align 8
  %_2000007 = call dereferenceable_or_null(24) ptr @"_SM23java.lang.StringBuilderD6appendL16java.lang.StringL23java.lang.StringBuilderEO"(ptr nonnull dereferenceable(24) %_2000004, ptr @"_SM7__constG3-116")
  %_13000008 = getelementptr { { ptr }, ptr, ptr, ptr, ptr }, { { ptr }, ptr, ptr, ptr, ptr }* %_1, i32 0, i32 4
  %_10000001 = load ptr, ptr %_13000008, !dereferenceable_or_null !{i64 8}
  %_2000008 = call dereferenceable_or_null(24) ptr @"_SM23java.lang.StringBuilderD6appendL16java.lang.ObjectL23java.lang.StringBuilderEO"(ptr nonnull dereferenceable(24) %_2000004, ptr dereferenceable_or_null(8) %_10000001)
  %_2000011 = call dereferenceable_or_null(24) ptr @"_SM23java.lang.StringBuilderD6appendL16java.lang.StringL23java.lang.StringBuilderEO"(ptr nonnull dereferenceable(24) %_2000004, ptr @"_SM7__constG3-118")
  %_13000009 = getelementptr { { ptr }, ptr, ptr, ptr, ptr }, { { ptr }, ptr, ptr, ptr, ptr }* %_1, i32 0, i32 3
  %_11000001 = load ptr, ptr %_13000009, !dereferenceable_or_null !{i64 8}
  %_2000012 = call dereferenceable_or_null(24) ptr @"_SM23java.lang.StringBuilderD6appendL16java.lang.ObjectL23java.lang.StringBuilderEO"(ptr nonnull dereferenceable(24) %_2000004, ptr dereferenceable_or_null(8) %_11000001)
  %_2000015 = call dereferenceable_or_null(24) ptr @"_SM23java.lang.StringBuilderD6appendL16java.lang.StringL23java.lang.StringBuilderEO"(ptr nonnull dereferenceable(24) %_2000004, ptr @"_SM7__constG3-118")
  %_13000010 = getelementptr { { ptr }, ptr, ptr, ptr, ptr }, { { ptr }, ptr, ptr, ptr, ptr }* %_1, i32 0, i32 2
  %_12000001 = load ptr, ptr %_13000010, !dereferenceable_or_null !{i64 8}
  %_2000016 = call dereferenceable_or_null(24) ptr @"_SM23java.lang.StringBuilderD6appendL16java.lang.ObjectL23java.lang.StringBuilderEO"(ptr nonnull dereferenceable(24) %_2000004, ptr dereferenceable_or_null(8) %_12000001)
  %_2000019 = call dereferenceable_or_null(24) ptr @"_SM23java.lang.StringBuilderD6appendL16java.lang.StringL23java.lang.StringBuilderEO"(ptr nonnull dereferenceable(24) %_2000004, ptr @"_SM7__constG3-118")
  %_13000011 = getelementptr { { ptr }, ptr, ptr, ptr, ptr }, { { ptr }, ptr, ptr, ptr, ptr }* %_1, i32 0, i32 1
  %_13000001 = load ptr, ptr %_13000011, !dereferenceable_or_null !{i64 8}
  %_2000020 = call dereferenceable_or_null(24) ptr @"_SM23java.lang.StringBuilderD6appendL16java.lang.ObjectL23java.lang.StringBuilderEO"(ptr nonnull dereferenceable(24) %_2000004, ptr dereferenceable_or_null(8) %_13000001)
  %_2000023 = call dereferenceable_or_null(24) ptr @"_SM23java.lang.StringBuilderD6appendL16java.lang.StringL23java.lang.StringBuilderEO"(ptr nonnull dereferenceable(24) %_2000004, ptr @"_SM7__constG2-92")
  %_2000024 = call dereferenceable_or_null(32) ptr @"_SM23java.lang.StringBuilderD8toStringL16java.lang.StringEO"(ptr nonnull dereferenceable(24) %_2000004)
  ret ptr %_2000024
_13000003.0:
  call ptr @"_SM34scala.scalanative.runtime.package$D16throwNullPointernEO"(ptr null)
  unreachable
}

define nonnull dereferenceable(40) ptr @"_SM13scala.Tuple4$D5applyL16java.lang.ObjectL16java.lang.ObjectL16java.lang.ObjectL16java.lang.ObjectL12scala.Tuple4EO"(ptr %_1, ptr %_2, ptr %_3, ptr %_4, ptr %_5) personality ptr @__gxx_personality_v0 {
_6000000.0:
  %_7000001 = call dereferenceable_or_null(40) ptr @"scalanative_GC_alloc_small"(ptr @"_SM12scala.Tuple4G4type", i64 40)
  %_7000009 = getelementptr { { ptr }, ptr, ptr, ptr, ptr }, { { ptr }, ptr, ptr, ptr, ptr }* %_7000001, i32 0, i32 1
  store ptr %_5, ptr%_7000009, align 8
  %_7000011 = getelementptr { { ptr }, ptr, ptr, ptr, ptr }, { { ptr }, ptr, ptr, ptr, ptr }* %_7000001, i32 0, i32 2
  store ptr %_4, ptr%_7000011, align 8
  %_7000013 = getelementptr { { ptr }, ptr, ptr, ptr, ptr }, { { ptr }, ptr, ptr, ptr, ptr }* %_7000001, i32 0, i32 3
  store ptr %_3, ptr%_7000013, align 8
  %_7000015 = getelementptr { { ptr }, ptr, ptr, ptr, ptr }, { { ptr }, ptr, ptr, ptr, ptr }* %_7000001, i32 0, i32 4
  store ptr %_2, ptr%_7000015, align 8
  call void @"_SM13scala.ProductD6$init$uEO"(ptr nonnull dereferenceable(40) %_7000001)
  call void @"_SM14scala.Product4D6$init$uEO"(ptr nonnull dereferenceable(40) %_7000001)
  ret ptr %_7000001
}

define nonnull dereferenceable(32) ptr @"_SM13scala.Tuple4$D8toStringL16java.lang.StringEO"(ptr %_1) personality ptr @__gxx_personality_v0 {
_2000000.0:
  ret ptr @"_SM7__constG3-122"
}

define void @"_SM13scala.Tuple4$RE"(ptr %_1) personality ptr @__gxx_personality_v0 {
_2000000.0:
  ret void
}

define dereferenceable_or_null(16) ptr @"_SM14scala.package$D14Nil$lzycomputeL31scala.collection.immutable.Nil$EPT14scala.package$"(ptr %_1) personality ptr @__gxx_personality_v0 {
_2.0:
  call void @"_SM33scala.scalanative.runtime.packageD12enterMonitorL16java.lang.ObjectuEo"(ptr dereferenceable_or_null(24) %_1)
  br label %_3.0
_3.0:
  %_42 = icmp ne ptr %_1, null
  br i1 %_42, label %_39.0, label %_40.0
_39.0:
  %_44 = getelementptr { { ptr }, ptr, i32 }, { { ptr }, ptr, i32 }* %_1, i32 0, i32 2
  %_12 = load i32, ptr %_44
  %_14 = and i32 %_12, 128
  %_16 = icmp eq i32 %_14, 0
  br i1 %_16, label %_7.0, label %_8.0
_7.0:
  %_18 = invoke dereferenceable_or_null(16) ptr @"_SM31scala.collection.immutable.Nil$G4load"() to label %_7.1 unwind label %_51.landingpad
_7.1:
  %_55 = getelementptr { { ptr }, ptr, i32 }, { { ptr }, ptr, i32 }* %_1, i32 0, i32 1
  store ptr %_18, ptr%_55, align 8
  %_60 = getelementptr { { ptr }, ptr, i32 }, { { ptr }, ptr, i32 }* %_1, i32 0, i32 2
  %_22 = load i32, ptr %_60
  %_24 = or i32 %_22, 128
  %_67 = getelementptr { { ptr }, ptr, i32 }, { { ptr }, ptr, i32 }* %_1, i32 0, i32 2
  store i32 %_24, ptr%_67, align 4
  br label %_9.0
_8.0:
  br label %_9.0
_9.0:
  br label %_29.0
_4.0:
  %_27 = phi ptr [%_25, %_64.0], [%_23, %_62.0], [%_21, %_58.0], [%_19, %_52.0], [%_17, %_50.0], [%_15, %_48.0], [%_13, %_46.0], [%_11, %_38.0]
  br label %_31.0
_29.0:
  call void @"_SM33scala.scalanative.runtime.packageD11exitMonitorL16java.lang.ObjectuEo"(ptr dereferenceable_or_null(24) %_1)
  br label %_5.0
_31.0:
  call void @"_SM33scala.scalanative.runtime.packageD11exitMonitorL16java.lang.ObjectuEo"(ptr dereferenceable_or_null(24) %_1)
  %_74 = icmp ne ptr %_27, null
  br i1 %_74, label %_72.0, label %_73.0
_72.0:
  call ptr @"scalanative_throw"(ptr dereferenceable_or_null(8) %_27)
  unreachable
_5.0:
  %_76 = getelementptr { { ptr }, ptr, i32 }, { { ptr }, ptr, i32 }* %_1, i32 0, i32 1
  %_36 = load ptr, ptr %_76, !dereferenceable_or_null !{i64 16}
  ret ptr %_36
_40.0:
  invoke ptr @"_SM34scala.scalanative.runtime.package$D16throwNullPointernEO"(ptr null) to label %_40.1 unwind label %_77.landingpad
_40.1:
  unreachable
_73.0:
  call ptr @"_SM34scala.scalanative.runtime.package$D16throwNullPointernEO"(ptr null)
  unreachable
_38.0:
  %_11 = phi ptr [%_41, %_41.landingpad.succ], [%_77, %_77.landingpad.succ], [%_43, %_43.landingpad.succ], [%_45, %_45.landingpad.succ]
  br label %_4.0
_46.0:
  %_13 = phi ptr [%_47, %_47.landingpad.succ]
  br label %_4.0
_48.0:
  %_15 = phi ptr [%_49, %_49.landingpad.succ]
  br label %_4.0
_50.0:
  %_17 = phi ptr [%_51, %_51.landingpad.succ]
  br label %_4.0
_52.0:
  %_19 = phi ptr [%_54, %_54.landingpad.succ], [%_56, %_56.landingpad.succ]
  br label %_4.0
_58.0:
  %_21 = phi ptr [%_59, %_59.landingpad.succ], [%_61, %_61.landingpad.succ]
  br label %_4.0
_62.0:
  %_23 = phi ptr [%_63, %_63.landingpad.succ]
  br label %_4.0
_64.0:
  %_25 = phi ptr [%_66, %_66.landingpad.succ], [%_68, %_68.landingpad.succ]
  br label %_4.0
_41.landingpad:
  %_95 = landingpad { ptr, i32 } catch ptr @_ZTIN11scalanative16ExceptionWrapperE
  %_96 = extractvalue { ptr, i32 } %_95, 0
  %_97 = extractvalue { ptr, i32 } %_95, 1
  %_98 = call i32 @llvm.eh.typeid.for(ptr @_ZTIN11scalanative16ExceptionWrapperE)
  %_99 = icmp eq i32 %_97, %_98
  br i1 %_99, label %_41.landingpad.succ, label %_41.landingpad.fail
_41.landingpad.succ:
  %_100 = call ptr @__cxa_begin_catch(ptr %_96)
  %_102 = getelementptr ptr, ptr %_100, i32 1
  %_41 = load ptr, ptr %_102
  call void @__cxa_end_catch()br label %_38.0
_41.landingpad.fail:
  resume { ptr, i32 } %_95
_43.landingpad:
  %_103 = landingpad { ptr, i32 } catch ptr @_ZTIN11scalanative16ExceptionWrapperE
  %_104 = extractvalue { ptr, i32 } %_103, 0
  %_105 = extractvalue { ptr, i32 } %_103, 1
  %_106 = call i32 @llvm.eh.typeid.for(ptr @_ZTIN11scalanative16ExceptionWrapperE)
  %_107 = icmp eq i32 %_105, %_106
  br i1 %_107, label %_43.landingpad.succ, label %_43.landingpad.fail
_43.landingpad.succ:
  %_108 = call ptr @__cxa_begin_catch(ptr %_104)
  %_110 = getelementptr ptr, ptr %_108, i32 1
  %_43 = load ptr, ptr %_110
  call void @__cxa_end_catch()br label %_38.0
_43.landingpad.fail:
  resume { ptr, i32 } %_103
_45.landingpad:
  %_111 = landingpad { ptr, i32 } catch ptr @_ZTIN11scalanative16ExceptionWrapperE
  %_112 = extractvalue { ptr, i32 } %_111, 0
  %_113 = extractvalue { ptr, i32 } %_111, 1
  %_114 = call i32 @llvm.eh.typeid.for(ptr @_ZTIN11scalanative16ExceptionWrapperE)
  %_115 = icmp eq i32 %_113, %_114
  br i1 %_115, label %_45.landingpad.succ, label %_45.landingpad.fail
_45.landingpad.succ:
  %_116 = call ptr @__cxa_begin_catch(ptr %_112)
  %_118 = getelementptr ptr, ptr %_116, i32 1
  %_45 = load ptr, ptr %_118
  call void @__cxa_end_catch()br label %_38.0
_45.landingpad.fail:
  resume { ptr, i32 } %_111
_47.landingpad:
  %_119 = landingpad { ptr, i32 } catch ptr @_ZTIN11scalanative16ExceptionWrapperE
  %_120 = extractvalue { ptr, i32 } %_119, 0
  %_121 = extractvalue { ptr, i32 } %_119, 1
  %_122 = call i32 @llvm.eh.typeid.for(ptr @_ZTIN11scalanative16ExceptionWrapperE)
  %_123 = icmp eq i32 %_121, %_122
  br i1 %_123, label %_47.landingpad.succ, label %_47.landingpad.fail
_47.landingpad.succ:
  %_124 = call ptr @__cxa_begin_catch(ptr %_120)
  %_126 = getelementptr ptr, ptr %_124, i32 1
  %_47 = load ptr, ptr %_126
  call void @__cxa_end_catch()br label %_46.0
_47.landingpad.fail:
  resume { ptr, i32 } %_119
_49.landingpad:
  %_127 = landingpad { ptr, i32 } catch ptr @_ZTIN11scalanative16ExceptionWrapperE
  %_128 = extractvalue { ptr, i32 } %_127, 0
  %_129 = extractvalue { ptr, i32 } %_127, 1
  %_130 = call i32 @llvm.eh.typeid.for(ptr @_ZTIN11scalanative16ExceptionWrapperE)
  %_131 = icmp eq i32 %_129, %_130
  br i1 %_131, label %_49.landingpad.succ, label %_49.landingpad.fail
_49.landingpad.succ:
  %_132 = call ptr @__cxa_begin_catch(ptr %_128)
  %_134 = getelementptr ptr, ptr %_132, i32 1
  %_49 = load ptr, ptr %_134
  call void @__cxa_end_catch()br label %_48.0
_49.landingpad.fail:
  resume { ptr, i32 } %_127
_51.landingpad:
  %_135 = landingpad { ptr, i32 } catch ptr @_ZTIN11scalanative16ExceptionWrapperE
  %_136 = extractvalue { ptr, i32 } %_135, 0
  %_137 = extractvalue { ptr, i32 } %_135, 1
  %_138 = call i32 @llvm.eh.typeid.for(ptr @_ZTIN11scalanative16ExceptionWrapperE)
  %_139 = icmp eq i32 %_137, %_138
  br i1 %_139, label %_51.landingpad.succ, label %_51.landingpad.fail
_51.landingpad.succ:
  %_140 = call ptr @__cxa_begin_catch(ptr %_136)
  %_142 = getelementptr ptr, ptr %_140, i32 1
  %_51 = load ptr, ptr %_142
  call void @__cxa_end_catch()br label %_50.0
_51.landingpad.fail:
  resume { ptr, i32 } %_135
_54.landingpad:
  %_143 = landingpad { ptr, i32 } catch ptr @_ZTIN11scalanative16ExceptionWrapperE
  %_144 = extractvalue { ptr, i32 } %_143, 0
  %_145 = extractvalue { ptr, i32 } %_143, 1
  %_146 = call i32 @llvm.eh.typeid.for(ptr @_ZTIN11scalanative16ExceptionWrapperE)
  %_147 = icmp eq i32 %_145, %_146
  br i1 %_147, label %_54.landingpad.succ, label %_54.landingpad.fail
_54.landingpad.succ:
  %_148 = call ptr @__cxa_begin_catch(ptr %_144)
  %_150 = getelementptr ptr, ptr %_148, i32 1
  %_54 = load ptr, ptr %_150
  call void @__cxa_end_catch()br label %_52.0
_54.landingpad.fail:
  resume { ptr, i32 } %_143
_56.landingpad:
  %_151 = landingpad { ptr, i32 } catch ptr @_ZTIN11scalanative16ExceptionWrapperE
  %_152 = extractvalue { ptr, i32 } %_151, 0
  %_153 = extractvalue { ptr, i32 } %_151, 1
  %_154 = call i32 @llvm.eh.typeid.for(ptr @_ZTIN11scalanative16ExceptionWrapperE)
  %_155 = icmp eq i32 %_153, %_154
  br i1 %_155, label %_56.landingpad.succ, label %_56.landingpad.fail
_56.landingpad.succ:
  %_156 = call ptr @__cxa_begin_catch(ptr %_152)
  %_158 = getelementptr ptr, ptr %_156, i32 1
  %_56 = load ptr, ptr %_158
  call void @__cxa_end_catch()br label %_52.0
_56.landingpad.fail:
  resume { ptr, i32 } %_151
_59.landingpad:
  %_159 = landingpad { ptr, i32 } catch ptr @_ZTIN11scalanative16ExceptionWrapperE
  %_160 = extractvalue { ptr, i32 } %_159, 0
  %_161 = extractvalue { ptr, i32 } %_159, 1
  %_162 = call i32 @llvm.eh.typeid.for(ptr @_ZTIN11scalanative16ExceptionWrapperE)
  %_163 = icmp eq i32 %_161, %_162
  br i1 %_163, label %_59.landingpad.succ, label %_59.landingpad.fail
_59.landingpad.succ:
  %_164 = call ptr @__cxa_begin_catch(ptr %_160)
  %_166 = getelementptr ptr, ptr %_164, i32 1
  %_59 = load ptr, ptr %_166
  call void @__cxa_end_catch()br label %_58.0
_59.landingpad.fail:
  resume { ptr, i32 } %_159
_61.landingpad:
  %_167 = landingpad { ptr, i32 } catch ptr @_ZTIN11scalanative16ExceptionWrapperE
  %_168 = extractvalue { ptr, i32 } %_167, 0
  %_169 = extractvalue { ptr, i32 } %_167, 1
  %_170 = call i32 @llvm.eh.typeid.for(ptr @_ZTIN11scalanative16ExceptionWrapperE)
  %_171 = icmp eq i32 %_169, %_170
  br i1 %_171, label %_61.landingpad.succ, label %_61.landingpad.fail
_61.landingpad.succ:
  %_172 = call ptr @__cxa_begin_catch(ptr %_168)
  %_174 = getelementptr ptr, ptr %_172, i32 1
  %_61 = load ptr, ptr %_174
  call void @__cxa_end_catch()br label %_58.0
_61.landingpad.fail:
  resume { ptr, i32 } %_167
_63.landingpad:
  %_175 = landingpad { ptr, i32 } catch ptr @_ZTIN11scalanative16ExceptionWrapperE
  %_176 = extractvalue { ptr, i32 } %_175, 0
  %_177 = extractvalue { ptr, i32 } %_175, 1
  %_178 = call i32 @llvm.eh.typeid.for(ptr @_ZTIN11scalanative16ExceptionWrapperE)
  %_179 = icmp eq i32 %_177, %_178
  br i1 %_179, label %_63.landingpad.succ, label %_63.landingpad.fail
_63.landingpad.succ:
  %_180 = call ptr @__cxa_begin_catch(ptr %_176)
  %_182 = getelementptr ptr, ptr %_180, i32 1
  %_63 = load ptr, ptr %_182
  call void @__cxa_end_catch()br label %_62.0
_63.landingpad.fail:
  resume { ptr, i32 } %_175
_66.landingpad:
  %_183 = landingpad { ptr, i32 } catch ptr @_ZTIN11scalanative16ExceptionWrapperE
  %_184 = extractvalue { ptr, i32 } %_183, 0
  %_185 = extractvalue { ptr, i32 } %_183, 1
  %_186 = call i32 @llvm.eh.typeid.for(ptr @_ZTIN11scalanative16ExceptionWrapperE)
  %_187 = icmp eq i32 %_185, %_186
  br i1 %_187, label %_66.landingpad.succ, label %_66.landingpad.fail
_66.landingpad.succ:
  %_188 = call ptr @__cxa_begin_catch(ptr %_184)
  %_190 = getelementptr ptr, ptr %_188, i32 1
  %_66 = load ptr, ptr %_190
  call void @__cxa_end_catch()br label %_64.0
_66.landingpad.fail:
  resume { ptr, i32 } %_183
_68.landingpad:
  %_191 = landingpad { ptr, i32 } catch ptr @_ZTIN11scalanative16ExceptionWrapperE
  %_192 = extractvalue { ptr, i32 } %_191, 0
  %_193 = extractvalue { ptr, i32 } %_191, 1
  %_194 = call i32 @llvm.eh.typeid.for(ptr @_ZTIN11scalanative16ExceptionWrapperE)
  %_195 = icmp eq i32 %_193, %_194
  br i1 %_195, label %_68.landingpad.succ, label %_68.landingpad.fail
_68.landingpad.succ:
  %_196 = call ptr @__cxa_begin_catch(ptr %_192)
  %_198 = getelementptr ptr, ptr %_196, i32 1
  %_68 = load ptr, ptr %_198
  call void @__cxa_end_catch()br label %_64.0
_68.landingpad.fail:
  resume { ptr, i32 } %_191
_77.landingpad:
  %_199 = landingpad { ptr, i32 } catch ptr @_ZTIN11scalanative16ExceptionWrapperE
  %_200 = extractvalue { ptr, i32 } %_199, 0
  %_201 = extractvalue { ptr, i32 } %_199, 1
  %_202 = call i32 @llvm.eh.typeid.for(ptr @_ZTIN11scalanative16ExceptionWrapperE)
  %_203 = icmp eq i32 %_201, %_202
  br i1 %_203, label %_77.landingpad.succ, label %_77.landingpad.fail
_77.landingpad.succ:
  %_204 = call ptr @__cxa_begin_catch(ptr %_200)
  %_206 = getelementptr ptr, ptr %_204, i32 1
  %_77 = load ptr, ptr %_206
  call void @__cxa_end_catch()br label %_38.0
_77.landingpad.fail:
  resume { ptr, i32 } %_199
}

define dereferenceable_or_null(24) ptr @"_SM14scala.package$G4load"() noinline personality ptr @__gxx_personality_v0 {
_1.0:
  %_4 = getelementptr ptr, ptr @"__modules", i32 117
  %_5 = load ptr, ptr %_4, !dereferenceable_or_null !{i64 24}
  %_6 = icmp ne ptr %_5, null
  br i1 %_6, label %_2.0, label %_3.0
_2.0:
  ret ptr %_5
_3.0:
  %_7 = call dereferenceable_or_null(24) ptr @"scalanative_GC_alloc_small"(ptr @"_SM14scala.package$G4type", i64 24)
  store ptr %_7, ptr%_4, align 8
  call void @"_SM14scala.package$RE"(ptr dereferenceable_or_null(24) %_7)
  ret ptr %_7
}

define void @"_SM14scala.package$RE"(ptr %_1) personality ptr @__gxx_personality_v0 {
_2000000.0:
  ret void
}