declare i32 @llvm.eh.typeid.for(ptr)
declare i32 @__gxx_personality_v0(...)
declare ptr @__cxa_begin_catch(ptr)
declare void @__cxa_end_catch()
@_ZTIN11scalanative16ExceptionWrapperE = external constant { ptr, ptr, ptr }

@"_SM7__constG1-0" = private unnamed_addr constant { ptr, i32, i32, [22 x i16] } { ptr @"_SM35scala.scalanative.runtime.CharArrayG4type", i32 22, i32 2, [22 x i16] [ i16 106, i16 97, i16 118, i16 97, i16 46, i16 105, i16 111, i16 46, i16 66, i16 117, i16 102, i16 102, i16 101, i16 114, i16 101, i16 100, i16 82, i16 101, i16 97, i16 100, i16 101, i16 114 ] }
@"_SM7__constG1-1" = private unnamed_addr constant { ptr, ptr, i32, i32, i32 } { ptr @"_SM16java.lang.StringG4type", ptr @"_SM7__constG1-0", i32 0, i32 22, i32 -958046306 }
@"_SM7__constG1-2" = private unnamed_addr constant [4 x i32] [ i32 8, i32 16, i32 24, i32 -1 ]
@"_SM7__constG1-3" = private unnamed_addr constant { ptr, i32, i32, [17 x i16] } { ptr @"_SM35scala.scalanative.runtime.CharArrayG4type", i32 17, i32 2, [17 x i16] [ i16 106, i16 97, i16 118, i16 97, i16 46, i16 105, i16 111, i16 46, i16 67, i16 108, i16 111, i16 115, i16 101, i16 97, i16 98, i16 108, i16 101 ] }
@"_SM7__constG1-4" = private unnamed_addr constant { ptr, ptr, i32, i32, i32 } { ptr @"_SM16java.lang.StringG4type", ptr @"_SM7__constG1-3", i32 0, i32 17, i32 -1321137994 }
@"_SM7__constG1-5" = private unnamed_addr constant { ptr, i32, i32, [12 x i16] } { ptr @"_SM35scala.scalanative.runtime.CharArrayG4type", i32 12, i32 2, [12 x i16] [ i16 106, i16 97, i16 118, i16 97, i16 46, i16 105, i16 111, i16 46, i16 70, i16 105, i16 108, i16 101 ] }
@"_SM7__constG1-6" = private unnamed_addr constant { ptr, ptr, i32, i32, i32 } { ptr @"_SM16java.lang.StringG4type", ptr @"_SM7__constG1-5", i32 0, i32 12, i32 2130072984 }
@"_SM7__constG1-7" = private unnamed_addr constant [1 x i32] [ i32 -1 ]
@"_SM7__constG1-8" = private unnamed_addr constant { ptr, i32, i32, [22 x i16] } { ptr @"_SM35scala.scalanative.runtime.CharArrayG4type", i32 22, i32 2, [22 x i16] [ i16 106, i16 97, i16 118, i16 97, i16 46, i16 105, i16 111, i16 46, i16 70, i16 105, i16 108, i16 101, i16 68, i16 101, i16 115, i16 99, i16 114, i16 105, i16 112, i16 116, i16 111, i16 114 ] }
@"_SM7__constG1-9" = private unnamed_addr constant { ptr, ptr, i32, i32, i32 } { ptr @"_SM16java.lang.StringG4type", ptr @"_SM7__constG1-8", i32 0, i32 22, i32 1691412263 }
@"_SM7__constG2-10" = private unnamed_addr constant { ptr, i32, i32, [23 x i16] } { ptr @"_SM35scala.scalanative.runtime.CharArrayG4type", i32 23, i32 2, [23 x i16] [ i16 106, i16 97, i16 118, i16 97, i16 46, i16 105, i16 111, i16 46, i16 70, i16 105, i16 108, i16 101, i16 68, i16 101, i16 115, i16 99, i16 114, i16 105, i16 112, i16 116, i16 111, i16 114, i16 36 ] }
@"_SM7__constG2-11" = private unnamed_addr constant { ptr, ptr, i32, i32, i32 } { ptr @"_SM16java.lang.StringG4type", ptr @"_SM7__constG2-10", i32 0, i32 23, i32 894172637 }
@"_SM7__constG2-12" = private unnamed_addr constant { ptr, i32, i32, [34 x i16] } { ptr @"_SM35scala.scalanative.runtime.CharArrayG4type", i32 34, i32 2, [34 x i16] [ i16 106, i16 97, i16 118, i16 97, i16 46, i16 105, i16 111, i16 46, i16 70, i16 105, i16 108, i16 101, i16 68, i16 101, i16 115, i16 99, i16 114, i16 105, i16 112, i16 116, i16 111, i16 114, i16 36, i16 70, i16 105, i16 108, i16 101, i16 72, i16 97, i16 110, i16 100, i16 108, i16 101, i16 36 ] }
@"_SM7__constG2-13" = private unnamed_addr constant { ptr, ptr, i32, i32, i32 } { ptr @"_SM16java.lang.StringG4type", ptr @"_SM7__constG2-12", i32 0, i32 34, i32 1350656963 }
@"_SM7__constG2-14" = private unnamed_addr constant { ptr, i32, i32, [23 x i16] } { ptr @"_SM35scala.scalanative.runtime.CharArrayG4type", i32 23, i32 2, [23 x i16] [ i16 106, i16 97, i16 118, i16 97, i16 46, i16 105, i16 111, i16 46, i16 70, i16 105, i16 108, i16 101, i16 73, i16 110, i16 112, i16 117, i16 116, i16 83, i16 116, i16 114, i16 101, i16 97, i16 109 ] }
@"_SM7__constG2-15" = private unnamed_addr constant { ptr, ptr, i32, i32, i32 } { ptr @"_SM16java.lang.StringG4type", ptr @"_SM7__constG2-14", i32 0, i32 23, i32 -1982236878 }
@"_SM7__constG2-16" = private unnamed_addr constant [3 x i32] [ i32 8, i32 16, i32 -1 ]
@"_SM7__constG2-17" = private unnamed_addr constant { ptr, i32, i32, [24 x i16] } { ptr @"_SM35scala.scalanative.runtime.CharArrayG4type", i32 24, i32 2, [24 x i16] [ i16 106, i16 97, i16 118, i16 97, i16 46, i16 105, i16 111, i16 46, i16 70, i16 105, i16 108, i16 101, i16 79, i16 117, i16 116, i16 112, i16 117, i16 116, i16 83, i16 116, i16 114, i16 101, i16 97, i16 109 ] }
@"_SM7__constG2-18" = private unnamed_addr constant { ptr, ptr, i32, i32, i32 } { ptr @"_SM16java.lang.StringG4type", ptr @"_SM7__constG2-17", i32 0, i32 24, i32 -554642023 }
@"_SM7__constG2-19" = private unnamed_addr constant { ptr, i32, i32, [26 x i16] } { ptr @"_SM35scala.scalanative.runtime.CharArrayG4type", i32 26, i32 2, [26 x i16] [ i16 106, i16 97, i16 118, i16 97, i16 46, i16 105, i16 111, i16 46, i16 70, i16 105, i16 108, i16 116, i16 101, i16 114, i16 79, i16 117, i16 116, i16 112, i16 117, i16 116, i16 83, i16 116, i16 114, i16 101, i16 97, i16 109 ] }
@"_SM7__constG2-20" = private unnamed_addr constant { ptr, ptr, i32, i32, i32 } { ptr @"_SM16java.lang.StringG4type", ptr @"_SM7__constG2-19", i32 0, i32 26, i32 -440436075 }
@"_SM7__constG2-21" = private unnamed_addr constant [2 x i32] [ i32 8, i32 -1 ]
@"_SM7__constG2-22" = private unnamed_addr constant { ptr, i32, i32, [17 x i16] } { ptr @"_SM35scala.scalanative.runtime.CharArrayG4type", i32 17, i32 2, [17 x i16] [ i16 106, i16 97, i16 118, i16 97, i16 46, i16 105, i16 111, i16 46, i16 70, i16 108, i16 117, i16 115, i16 104, i16 97, i16 98, i16 108, i16 101 ] }
@"_SM7__constG2-23" = private unnamed_addr constant { ptr, ptr, i32, i32, i32 } { ptr @"_SM16java.lang.StringG4type", ptr @"_SM7__constG2-22", i32 0, i32 17, i32 -1415708734 }
@"_SM7__constG2-24" = private unnamed_addr constant { ptr, i32, i32, [19 x i16] } { ptr @"_SM35scala.scalanative.runtime.CharArrayG4type", i32 19, i32 2, [19 x i16] [ i16 106, i16 97, i16 118, i16 97, i16 46, i16 105, i16 111, i16 46, i16 73, i16 79, i16 69, i16 120, i16 99, i16 101, i16 112, i16 116, i16 105, i16 111, i16 110 ] }
@"_SM7__constG2-25" = private unnamed_addr constant { ptr, ptr, i32, i32, i32 } { ptr @"_SM16java.lang.StringG4type", ptr @"_SM7__constG2-24", i32 0, i32 19, i32 -2010664371 }
@"_SM7__constG2-26" = private unnamed_addr constant { ptr, i32, i32, [19 x i16] } { ptr @"_SM35scala.scalanative.runtime.CharArrayG4type", i32 19, i32 2, [19 x i16] [ i16 106, i16 97, i16 118, i16 97, i16 46, i16 105, i16 111, i16 46, i16 73, i16 110, i16 112, i16 117, i16 116, i16 83, i16 116, i16 114, i16 101, i16 97, i16 109 ] }
@"_SM7__constG2-27" = private unnamed_addr constant { ptr, ptr, i32, i32, i32 } { ptr @"_SM16java.lang.StringG4type", ptr @"_SM7__constG2-26", i32 0, i32 19, i32 833723470 }
@"_SM7__constG2-28" = private unnamed_addr constant { ptr, i32, i32, [25 x i16] } { ptr @"_SM35scala.scalanative.runtime.CharArrayG4type", i32 25, i32 2, [25 x i16] [ i16 106, i16 97, i16 118, i16 97, i16 46, i16 105, i16 111, i16 46, i16 73, i16 110, i16 112, i16 117, i16 116, i16 83, i16 116, i16 114, i16 101, i16 97, i16 109, i16 82, i16 101, i16 97, i16 100, i16 101, i16 114 ] }
@"_SM7__constG2-29" = private unnamed_addr constant { ptr, ptr, i32, i32, i32 } { ptr @"_SM16java.lang.StringG4type", ptr @"_SM7__constG2-28", i32 0, i32 25, i32 1692200625 }
@"_SM7__constG2-30" = private unnamed_addr constant [6 x i32] [ i32 8, i32 16, i32 24, i32 32, i32 40, i32 -1 ]
@"_SM7__constG2-31" = private unnamed_addr constant { ptr, i32, i32, [26 x i16] } { ptr @"_SM35scala.scalanative.runtime.CharArrayG4type", i32 26, i32 2, [26 x i16] [ i16 106, i16 97, i16 118, i16 97, i16 46, i16 105, i16 111, i16 46, i16 73, i16 110, i16 112, i16 117, i16 116, i16 83, i16 116, i16 114, i16 101, i16 97, i16 109, i16 82, i16 101, i16 97, i16 100, i16 101, i16 114, i16 36 ] }
@"_SM7__constG2-32" = private unnamed_addr constant { ptr, ptr, i32, i32, i32 } { ptr @"_SM16java.lang.StringG4type", ptr @"_SM7__constG2-31", i32 0, i32 26, i32 918611859 }
@"_SM7__constG2-33" = private unnamed_addr constant { ptr, i32, i32, [20 x i16] } { ptr @"_SM35scala.scalanative.runtime.CharArrayG4type", i32 20, i32 2, [20 x i16] [ i16 106, i16 97, i16 118, i16 97, i16 46, i16 105, i16 111, i16 46, i16 79, i16 117, i16 116, i16 112, i16 117, i16 116, i16 83, i16 116, i16 114, i16 101, i16 97, i16 109 ] }
@"_SM7__constG2-34" = private unnamed_addr constant { ptr, ptr, i32, i32, i32 } { ptr @"_SM16java.lang.StringG4type", ptr @"_SM7__constG2-33", i32 0, i32 20, i32 840782845 }
@"_SM7__constG2-35" = private unnamed_addr constant { ptr, i32, i32, [26 x i16] } { ptr @"_SM35scala.scalanative.runtime.CharArrayG4type", i32 26, i32 2, [26 x i16] [ i16 106, i16 97, i16 118, i16 97, i16 46, i16 105, i16 111, i16 46, i16 79, i16 117, i16 116, i16 112, i16 117, i16 116, i16 83, i16 116, i16 114, i16 101, i16 97, i16 109, i16 87, i16 114, i16 105, i16 116, i16 101, i16 114 ] }
@"_SM7__constG2-36" = private unnamed_addr constant { ptr, ptr, i32, i32, i32 } { ptr @"_SM16java.lang.StringG4type", ptr @"_SM7__constG2-35", i32 0, i32 26, i32 -267832624 }
@"_SM7__constG2-37" = private unnamed_addr constant [6 x i32] [ i32 8, i32 16, i32 24, i32 40, i32 48, i32 -1 ]
@"_SM7__constG2-38" = private unnamed_addr constant { ptr, i32, i32, [19 x i16] } { ptr @"_SM35scala.scalanative.runtime.CharArrayG4type", i32 19, i32 2, [19 x i16] [ i16 106, i16 97, i16 118, i16 97, i16 46, i16 105, i16 111, i16 46, i16 80, i16 114, i16 105, i16 110, i16 116, i16 83, i16 116, i16 114, i16 101, i16 97, i16 109 ] }
@"_SM7__constG2-39" = private unnamed_addr constant { ptr, ptr, i32, i32, i32 } { ptr @"_SM16java.lang.StringG4type", ptr @"_SM7__constG2-38", i32 0, i32 19, i32 806420721 }
@"_SM7__constG2-40" = private unnamed_addr constant { ptr, i32, i32, [29 x i16] } { ptr @"_SM35scala.scalanative.runtime.CharArrayG4type", i32 29, i32 2, [29 x i16] [ i16 106, i16 97, i16 118, i16 97, i16 46, i16 105, i16 111, i16 46, i16 80, i16 114, i16 105, i16 110, i16 116, i16 83, i16 116, i16 114, i16 101, i16 97, i16 109, i16 36, i16 36, i16 76, i16 97, i16 109, i16 98, i16 100, i16 97, i16 36, i16 49 ] }
@"_SM7__constG2-41" = private unnamed_addr constant { ptr, ptr, i32, i32, i32 } { ptr @"_SM16java.lang.StringG4type", ptr @"_SM7__constG2-40", i32 0, i32 29, i32 263893733 }
@"_SM7__constG2-42" = private unnamed_addr constant { ptr, i32, i32, [29 x i16] } { ptr @"_SM35scala.scalanative.runtime.CharArrayG4type", i32 29, i32 2, [29 x i16] [ i16 106, i16 97, i16 118, i16 97, i16 46, i16 105, i16 111, i16 46, i16 80, i16 114, i16 105, i16 110, i16 116, i16 83, i16 116, i16 114, i16 101, i16 97, i16 109, i16 36, i16 36, i16 76, i16 97, i16 109, i16 98, i16 100, i16 97, i16 36, i16 52 ] }
@"_SM7__constG2-43" = private unnamed_addr constant { ptr, ptr, i32, i32, i32 } { ptr @"_SM16java.lang.StringG4type", ptr @"_SM7__constG2-42", i32 0, i32 29, i32 263893736 }
@"_SM7__constG2-44" = private unnamed_addr constant [3 x i32] [ i32 16, i32 24, i32 -1 ]
@"_SM7__constG2-45" = private unnamed_addr constant { ptr, i32, i32, [29 x i16] } { ptr @"_SM35scala.scalanative.runtime.CharArrayG4type", i32 29, i32 2, [29 x i16] [ i16 106, i16 97, i16 118, i16 97, i16 46, i16 105, i16 111, i16 46, i16 80, i16 114, i16 105, i16 110, i16 116, i16 83, i16 116, i16 114, i16 101, i16 97, i16 109, i16 36, i16 36, i16 76, i16 97, i16 109, i16 98, i16 100, i16 97, i16 36, i16 53 ] }
@"_SM7__constG2-46" = private unnamed_addr constant { ptr, ptr, i32, i32, i32 } { ptr @"_SM16java.lang.StringG4type", ptr @"_SM7__constG2-45", i32 0, i32 29, i32 263893737 }
@"_SM7__constG2-47" = private unnamed_addr constant { ptr, i32, i32, [29 x i16] } { ptr @"_SM35scala.scalanative.runtime.CharArrayG4type", i32 29, i32 2, [29 x i16] [ i16 106, i16 97, i16 118, i16 97, i16 46, i16 105, i16 111, i16 46, i16 80, i16 114, i16 105, i16 110, i16 116, i16 83, i16 116, i16 114, i16 101, i16 97, i16 109, i16 36, i16 36, i16 76, i16 97, i16 109, i16 98, i16 100, i16 97, i16 36, i16 55 ] }
@"_SM7__constG2-48" = private unnamed_addr constant { ptr, ptr, i32, i32, i32 } { ptr @"_SM16java.lang.StringG4type", ptr @"_SM7__constG2-47", i32 0, i32 29, i32 263893739 }
@"_SM7__constG2-49" = private unnamed_addr constant { ptr, i32, i32, [14 x i16] } { ptr @"_SM35scala.scalanative.runtime.CharArrayG4type", i32 14, i32 2, [14 x i16] [ i16 106, i16 97, i16 118, i16 97, i16 46, i16 105, i16 111, i16 46, i16 82, i16 101, i16 97, i16 100, i16 101, i16 114 ] }
@"_SM7__constG2-50" = private unnamed_addr constant { ptr, ptr, i32, i32, i32 } { ptr @"_SM16java.lang.StringG4type", ptr @"_SM7__constG2-49", i32 0, i32 14, i32 -1359732257 }
@"_SM7__constG2-51" = private unnamed_addr constant { ptr, i32, i32, [20 x i16] } { ptr @"_SM35scala.scalanative.runtime.CharArrayG4type", i32 20, i32 2, [20 x i16] [ i16 106, i16 97, i16 118, i16 97, i16 46, i16 105, i16 111, i16 46, i16 83, i16 101, i16 114, i16 105, i16 97, i16 108, i16 105, i16 122, i16 97, i16 98, i16 108, i16 101 ] }
@"_SM7__constG2-52" = private unnamed_addr constant { ptr, ptr, i32, i32, i32 } { ptr @"_SM16java.lang.StringG4type", ptr @"_SM7__constG2-51", i32 0, i32 20, i32 1832181019 }
@"_SM7__constG2-53" = private unnamed_addr constant { ptr, i32, i32, [14 x i16] } { ptr @"_SM35scala.scalanative.runtime.CharArrayG4type", i32 14, i32 2, [14 x i16] [ i16 106, i16 97, i16 118, i16 97, i16 46, i16 105, i16 111, i16 46, i16 87, i16 114, i16 105, i16 116, i16 101, i16 114 ] }
@"_SM7__constG2-54" = private unnamed_addr constant { ptr, ptr, i32, i32, i32 } { ptr @"_SM16java.lang.StringG4type", ptr @"_SM7__constG2-53", i32 0, i32 14, i32 -1204327025 }
@"_SM7__constG2-55" = private unnamed_addr constant { ptr, i32, i32, [15 x i16] } { ptr @"_SM35scala.scalanative.runtime.CharArrayG4type", i32 15, i32 2, [15 x i16] [ i16 70, i16 105, i16 108, i16 101, i16 68, i16 101, i16 115, i16 99, i16 114, i16 105, i16 112, i16 116, i16 111, i16 114, i16 40 ] }
@"_SM7__constG2-56" = private unnamed_addr constant { ptr, ptr, i32, i32, i32 } { ptr @"_SM16java.lang.StringG4type", ptr @"_SM7__constG2-55", i32 0, i32 15, i32 -621609123 }
@"_SM7__constG2-57" = private unnamed_addr constant { ptr, i32, i32, [11 x i16] } { ptr @"_SM35scala.scalanative.runtime.CharArrayG4type", i32 11, i32 2, [11 x i16] [ i16 44, i16 32, i16 114, i16 101, i16 97, i16 100, i16 79, i16 110, i16 108, i16 121, i16 61 ] }
@"_SM7__constG2-58" = private unnamed_addr constant { ptr, ptr, i32, i32, i32 } { ptr @"_SM16java.lang.StringG4type", ptr @"_SM7__constG2-57", i32 0, i32 11, i32 -583338201 }
@"_SM7__constG2-59" = private unnamed_addr constant { ptr, i32, i32, [1 x i16] } { ptr @"_SM35scala.scalanative.runtime.CharArrayG4type", i32 1, i32 2, [1 x i16] [ i16 41 ] }
@"_SM7__constG2-60" = private unnamed_addr constant { ptr, ptr, i32, i32, i32 } { ptr @"_SM16java.lang.StringG4type", ptr @"_SM7__constG2-59", i32 0, i32 1, i32 41 }
@"_SM7__constG2-61" = private unnamed_addr constant { ptr, i32, i32, [14 x i16] } { ptr @"_SM35scala.scalanative.runtime.CharArrayG4type", i32 14, i32 2, [14 x i16] [ i16 67, i16 108, i16 111, i16 115, i16 101, i16 100, i16 32, i16 119, i16 114, i16 105, i16 116, i16 101, i16 114, i16 46 ] }
@"_SM7__constG2-62" = private unnamed_addr constant { ptr, ptr, i32, i32, i32 } { ptr @"_SM16java.lang.StringG4type", ptr @"_SM7__constG2-61", i32 0, i32 14, i32 -1669593209 }
@"_SM7__constG2-63" = private unnamed_addr constant { ptr, i32, i32, [19 x i16] } { ptr @"_SM35scala.scalanative.runtime.CharArrayG4type", i32 19, i32 2, [19 x i16] [ i16 115, i16 104, i16 111, i16 117, i16 108, i16 100, i16 32, i16 110, i16 111, i16 116, i16 32, i16 103, i16 101, i16 116, i16 32, i16 104, i16 101, i16 114, i16 101 ] }
@"_SM7__constG2-64" = private unnamed_addr constant { ptr, ptr, i32, i32, i32 } { ptr @"_SM16java.lang.StringG4type", ptr @"_SM7__constG2-63", i32 0, i32 19, i32 -849617292 }
@"_SM7__constG2-65" = private unnamed_addr constant { ptr, i32, i32, [0 x i16] } { ptr @"_SM35scala.scalanative.runtime.CharArrayG4type", i32 0, i32 2, [0 x i16] [  ] }
@"_SM7__constG2-66" = private unnamed_addr constant { ptr, ptr, i32, i32, i32 } { ptr @"_SM16java.lang.StringG4type", ptr @"_SM7__constG2-65", i32 0, i32 0, i32 0 }
@"_SM7__constG2-67" = private unnamed_addr constant { ptr, i32, i32, [4 x i16] } { ptr @"_SM35scala.scalanative.runtime.CharArrayG4type", i32 4, i32 2, [4 x i16] [ i16 110, i16 117, i16 108, i16 108 ] }
@"_SM7__constG2-68" = private unnamed_addr constant { ptr, ptr, i32, i32, i32 } { ptr @"_SM16java.lang.StringG4type", ptr @"_SM7__constG2-67", i32 0, i32 4, i32 3392903 }

declare dereferenceable_or_null(48) ptr @"_SM20java.nio.CharBuffer$D4wrapL22java.lang.CharSequenceL19java.nio.CharBufferEO"(ptr, ptr)
@"_SM36scala.scalanative.runtime.CharArray$G8instance" = external global { ptr }
@"_SM18java.util.Objects$G8instance" = external global { ptr }

declare dereferenceable_or_null(32) ptr @"_SM23java.lang.StringBuilderD8toStringL16java.lang.StringEO"(ptr)

declare i1 @"_SM28java.nio.charset.CoderResultD10isOverflowzEO"(ptr) inlinehint

declare i1 @"_SM15java.nio.BufferD12hasRemainingzEO"(ptr) inlinehint

declare dereferenceable_or_null(8) ptr @"_SM18java.util.Objects$D14requireNonNullL16java.lang.ObjectL16java.lang.ObjectEO"(ptr, ptr) inlinehint
@"_SM19java.lang.ThrowableG4type" = external global { { ptr, i32, i32, ptr }, i32, i32, ptr, [4 x ptr] }

declare ptr @"_SM28java.nio.charset.CoderResultD14throwExceptionuEO"(ptr)
@"_SM36scala.scalanative.runtime.BoxedUnit$G8instance" = external global { ptr }

declare ptr @"_SM34scala.scalanative.runtime.package$D16throwNullPointernEO"(ptr) noinline

declare dereferenceable_or_null(56) ptr @"_SM31java.nio.charset.CharsetEncoderD16onMalformedInputL34java.nio.charset.CodingErrorActionL31java.nio.charset.CharsetEncoderEO"(ptr, ptr)
@"_SM24java.nio.charset.CharsetG4type" = external global { { ptr, i32, i32, ptr }, i32, i32, ptr, [3 x ptr] }

declare dereferenceable_or_null(16) ptr @"_SM36scala.scalanative.runtime.CharArray$D5allociL35scala.scalanative.runtime.CharArrayEO"(ptr, i32) inlinehint

declare dereferenceable_or_null(16) ptr @"_SM19java.nio.ByteBufferD5arrayLAb_EO"(ptr) inlinehint
@"_SM23scala.runtime.LazyVals$G8instance" = external global { ptr }

declare dereferenceable_or_null(56) ptr @"_SM31java.nio.charset.CharsetEncoderD21onUnmappableCharacterL34java.nio.charset.CodingErrorActionL31java.nio.charset.CharsetEncoderEO"(ptr, ptr)
@"_SM35scala.scalanative.runtime.CharArrayG4type" = external global { { ptr, i32, i32, ptr }, i32, i32, ptr, [8 x ptr] }

declare i64 @"_SM23scala.runtime.LazyVals$D5STATEjijEO"(ptr, i64, i32)

declare dereferenceable_or_null(24) ptr @"_SM23java.lang.StringBuilderD6appendzL23java.lang.StringBuilderEO"(ptr, i1)

declare dereferenceable_or_null(24) ptr @"_SM23java.lang.StringBuilderD6appendiL23java.lang.StringBuilderEO"(ptr, i32)
@"_SM35scala.scalanative.runtime.LazyVals$G8instance" = external global { ptr }

declare void @"_SM35scala.scalanative.runtime.LazyVals$D7setFlagR_iiuEO"(ptr, ptr, i32, i32) inlinehint

declare void @"_SM33scala.scalanative.runtime.packageD12enterMonitorL16java.lang.ObjectuEo"(ptr) inlinehint
@"_SM23java.lang.StringBuilderG4type" = external global { { ptr, i32, i32, ptr }, i32, i32, ptr, [3 x ptr] }

declare dereferenceable_or_null(40) ptr @"_SM19java.lang.ThrowableD16fillInStackTraceL19java.lang.ThrowableEO"(ptr)

declare dereferenceable_or_null(32) ptr @"_SM35java.nio.charset.CodingErrorAction$G4load"() noinline

declare dereferenceable_or_null(56) ptr @"_SM19java.nio.ByteBufferD5clearL19java.nio.ByteBufferEO"(ptr) inlinehint

declare dereferenceable_or_null(32) ptr @"_SM16java.lang.StringD7valueOfL16java.lang.ObjectL16java.lang.StringEo"(ptr) inlinehint

declare i1 @"_SM16java.lang.ObjectD6equalsL16java.lang.ObjectzEO"(ptr, ptr) inlinehint
@"_SM25java.nio.charset.Charset$G8instance" = external global { ptr }
@"_SM16java.lang.StringG4type" = external global { { ptr, i32, i32, ptr }, i32, i32, ptr, [3 x ptr] }

declare dereferenceable_or_null(24) ptr @"_SM23java.lang.StringBuilderD6appendL16java.lang.StringL23java.lang.StringBuilderEO"(ptr, ptr)

declare dereferenceable_or_null(56) ptr @"_SM19java.nio.ByteBufferD3putL19java.nio.ByteBufferL19java.nio.ByteBufferEO"(ptr, ptr) noinline

declare dereferenceable_or_null(16) ptr @"_SM31java.nio.charset.CharsetEncoderD6encodeL19java.nio.CharBufferL19java.nio.ByteBufferzL28java.nio.charset.CoderResultEO"(ptr, ptr, ptr, i1)

declare i32 @"_SM16java.lang.ObjectD8hashCodeiEO"(ptr) inlinehint

declare dereferenceable_or_null(32) ptr @"_SM19java.lang.ThrowableD8toStringL16java.lang.StringEO"(ptr)

declare ptr @"_SM34scala.scalanative.runtime.package$D14throwClassCastR_R_nEO"(ptr, ptr, ptr) noinline

declare dereferenceable_or_null(56) ptr @"_SM20java.nio.ByteBuffer$D8allocateiL19java.nio.ByteBufferEO"(ptr, i32)

declare dereferenceable_or_null(40) ptr @"_SM25java.nio.charset.Charset$D14defaultCharsetL24java.nio.charset.CharsetEO"(ptr)

declare i32 @"_SM33java.nio.channels.FileChannelImplD5writeLAb_iiiEO"(ptr, ptr, i32, i32)

declare nonnull dereferenceable(16) ptr @"_SM16java.lang.StringD11toCharArrayLAc_EO"(ptr)

declare ptr @"scalanative_throw"(ptr)
@"__modules" = external global [229 x ptr]

declare i32 @"scalanative_stderr_fileno"()

declare nonnull dereferenceable(32) ptr @"_SM17java.lang.System$D13lineSeparatorL16java.lang.StringEO"(ptr)
@"_SM15java.lang.ClassG4type" = external global { { ptr, i32, i32, ptr }, i32, i32, ptr, [3 x ptr] }

declare i32 @"_SM15java.nio.BufferD8capacityiEO"(ptr)
@"_SM20java.nio.ByteBuffer$G8instance" = external global { ptr }

declare nonnull dereferenceable(56) ptr @"_SM17niocharset.UTF_8$D10newEncoderL31java.nio.charset.CharsetEncoderEO"(ptr)

declare i1 @"_SM35scala.scalanative.runtime.LazyVals$D3CASR_jiizEO"(ptr, ptr, i64, i32, i32) inlinehint

declare i32 @"scalanative_stdin_fileno"()

declare void @"_SM33scala.scalanative.runtime.packageD11exitMonitorL16java.lang.ObjectuEo"(ptr) inlinehint

declare i32 @"scalanative_stdout_fileno"()

declare void @"_SM15scala.Function0D12apply$mcV$spuEO"(ptr)

declare dereferenceable_or_null(32) ptr @"_SM19java.lang.ThrowableD10getMessageL16java.lang.StringEO"(ptr)

declare dereferenceable_or_null(32) ptr @"_SM16java.lang.ObjectD8toStringL16java.lang.StringEO"(ptr) inlinehint
@"_SM17java.lang.System$G8instance" = external global { ptr }

declare ptr @"_SM35scala.scalanative.runtime.LazyVals$D17wait4NotificationR_jiuEO"(ptr, ptr, i64, i32)

declare i32 @"_SM15java.nio.BufferD8positioniEO"(ptr)

declare i64 @"_SM35scala.scalanative.runtime.LazyVals$D3getR_jEO"(ptr, ptr) alwaysinline

declare i32 @"_SM19java.nio.ByteBufferD11arrayOffsetiEO"(ptr) inlinehint
@"_SM24java.lang.AssertionErrorG4type" = external global { { ptr, i32, i32, ptr }, i32, i32, ptr, [4 x ptr] }

declare i1 @"_SM28java.nio.charset.CoderResultD11isUnderflowzEO"(ptr) inlinehint

declare dereferenceable_or_null(48) ptr @"_SM20java.nio.CharBuffer$D4wrapLAc_iiL19java.nio.CharBufferEO"(ptr, ptr, i32, i32)

declare i1 @"_SM16java.lang.StringD6equalsL16java.lang.ObjectzEO"(ptr, ptr)

declare dereferenceable_or_null(48) ptr @"_SM20java.nio.CharBuffer$D8allocateiL19java.nio.CharBufferEO"(ptr, i32)

declare dereferenceable_or_null(56) ptr @"_SM19java.nio.ByteBufferD4flipL19java.nio.ByteBufferEO"(ptr) inlinehint
@"_SM20java.nio.CharBuffer$G8instance" = external global { ptr }

declare ptr @"scalanative_GC_alloc_small"(ptr, i64)

declare dereferenceable_or_null(32) ptr @"_SM16java.lang.StringD8toStringL16java.lang.StringEO"(ptr)
@"_SM22java.io.BufferedReaderG4type" = hidden global { { ptr, i32, i32, ptr }, i32, i32, ptr, [3 x ptr] } { { ptr, i32, i32, ptr } { ptr @"_SM15java.lang.ClassG4type", i32 327, i32 -1, ptr @"_SM7__constG1-1" }, i32 32, i32 327, ptr @"_SM7__constG1-2", [3 x ptr] [ ptr @"_SM16java.lang.ObjectD8hashCodeiEO", ptr @"_SM16java.lang.ObjectD8toStringL16java.lang.StringEO", ptr @"_SM16java.lang.ObjectD6equalsL16java.lang.ObjectzEO" ] }
@"_SM17java.io.CloseableG4type" = hidden global { ptr, i32, i32, ptr } { ptr @"_SM15java.lang.ClassG4type", i32 -11, i32 -1, ptr @"_SM7__constG1-4" }
@"_SM12java.io.FileG4type" = hidden global { { ptr, i32, i32, ptr }, i32, i32, ptr, [3 x ptr] } { { ptr, i32, i32, ptr } { ptr @"_SM15java.lang.ClassG4type", i32 173, i32 -1, ptr @"_SM7__constG1-6" }, i32 8, i32 173, ptr @"_SM7__constG1-7", [3 x ptr] [ ptr @"_SM16java.lang.ObjectD8hashCodeiEO", ptr @"_SM16java.lang.ObjectD8toStringL16java.lang.StringEO", ptr @"_SM16java.lang.ObjectD6equalsL16java.lang.ObjectzEO" ] }
@"_SM22java.io.FileDescriptorG4type" = hidden global { { ptr, i32, i32, ptr }, i32, i32, ptr, [3 x ptr] } { { ptr, i32, i32, ptr } { ptr @"_SM15java.lang.ClassG4type", i32 198, i32 -1, ptr @"_SM7__constG1-9" }, i32 24, i32 198, ptr @"_SM7__constG1-7", [3 x ptr] [ ptr @"_SM16java.lang.ObjectD8hashCodeiEO", ptr @"_SM22java.io.FileDescriptorD8toStringL16java.lang.StringEO", ptr @"_SM16java.lang.ObjectD6equalsL16java.lang.ObjectzEO" ] }
@"_SM23java.io.FileDescriptor$G4type" = hidden global { { ptr, i32, i32, ptr }, i32, i32, ptr, [3 x ptr] } { { ptr, i32, i32, ptr } { ptr @"_SM15java.lang.ClassG4type", i32 153, i32 -1, ptr @"_SM7__constG2-11" }, i32 32, i32 153, ptr @"_SM7__constG1-2", [3 x ptr] [ ptr @"_SM16java.lang.ObjectD8hashCodeiEO", ptr @"_SM16java.lang.ObjectD8toStringL16java.lang.StringEO", ptr @"_SM16java.lang.ObjectD6equalsL16java.lang.ObjectzEO" ] }
@"_SM34java.io.FileDescriptor$FileHandle$G4type" = hidden global { { ptr, i32, i32, ptr }, i32, i32, ptr, [3 x ptr] } { { ptr, i32, i32, ptr } { ptr @"_SM15java.lang.ClassG4type", i32 134, i32 -1, ptr @"_SM7__constG2-13" }, i32 8, i32 134, ptr @"_SM7__constG1-7", [3 x ptr] [ ptr @"_SM16java.lang.ObjectD8hashCodeiEO", ptr @"_SM16java.lang.ObjectD8toStringL16java.lang.StringEO", ptr @"_SM16java.lang.ObjectD6equalsL16java.lang.ObjectzEO" ] }
@"_SM34java.io.FileDescriptor$FileHandle$G8instance" = hidden global { ptr } { ptr @"_SM34java.io.FileDescriptor$FileHandle$G4type" }
@"_SM23java.io.FileInputStreamG4type" = hidden global { { ptr, i32, i32, ptr }, i32, i32, ptr, [3 x ptr] } { { ptr, i32, i32, ptr } { ptr @"_SM15java.lang.ClassG4type", i32 116, i32 -1, ptr @"_SM7__constG2-15" }, i32 24, i32 116, ptr @"_SM7__constG2-16", [3 x ptr] [ ptr @"_SM16java.lang.ObjectD8hashCodeiEO", ptr @"_SM16java.lang.ObjectD8toStringL16java.lang.StringEO", ptr @"_SM16java.lang.ObjectD6equalsL16java.lang.ObjectzEO" ] }
@"_SM24java.io.FileOutputStreamG4type" = hidden global { { ptr, i32, i32, ptr }, i32, i32, ptr, [5 x ptr] } { { ptr, i32, i32, ptr } { ptr @"_SM15java.lang.ClassG4type", i32 559, i32 -1, ptr @"_SM7__constG2-18" }, i32 24, i32 559, ptr @"_SM7__constG2-16", [5 x ptr] [ ptr @"_SM16java.lang.ObjectD8hashCodeiEO", ptr @"_SM16java.lang.ObjectD8toStringL16java.lang.StringEO", ptr @"_SM16java.lang.ObjectD6equalsL16java.lang.ObjectzEO", ptr @"_SM20java.io.OutputStreamD5flushuEO", ptr @"_SM24java.io.FileOutputStreamD5writeLAb_iiuEO" ] }
@"_SM26java.io.FilterOutputStreamG4type" = hidden global { { ptr, i32, i32, ptr }, i32, i32, ptr, [5 x ptr] } { { ptr, i32, i32, ptr } { ptr @"_SM15java.lang.ClassG4type", i32 557, i32 -1, ptr @"_SM7__constG2-20" }, i32 16, i32 558, ptr @"_SM7__constG2-21", [5 x ptr] [ ptr @"_SM16java.lang.ObjectD8hashCodeiEO", ptr @"_SM16java.lang.ObjectD8toStringL16java.lang.StringEO", ptr @"_SM16java.lang.ObjectD6equalsL16java.lang.ObjectzEO", ptr @"_SM20java.io.OutputStreamD5flushuEO", ptr null ] }
@"_SM17java.io.FlushableG4type" = hidden global { ptr, i32, i32, ptr } { ptr @"_SM15java.lang.ClassG4type", i32 -12, i32 -1, ptr @"_SM7__constG2-23" }
@"_SM19java.io.IOExceptionG4type" = hidden global { { ptr, i32, i32, ptr }, i32, i32, ptr, [4 x ptr] } { { ptr, i32, i32, ptr } { ptr @"_SM15java.lang.ClassG4type", i32 456, i32 -1, ptr @"_SM7__constG2-25" }, i32 40, i32 465, ptr @"_SM7__constG1-2", [4 x ptr] [ ptr @"_SM16java.lang.ObjectD8hashCodeiEO", ptr @"_SM19java.lang.ThrowableD8toStringL16java.lang.StringEO", ptr @"_SM16java.lang.ObjectD6equalsL16java.lang.ObjectzEO", ptr @"_SM19java.lang.ThrowableD10getMessageL16java.lang.StringEO" ] }
@"_SM19java.io.InputStreamG4type" = hidden global { { ptr, i32, i32, ptr }, i32, i32, ptr, [3 x ptr] } { { ptr, i32, i32, ptr } { ptr @"_SM15java.lang.ClassG4type", i32 115, i32 -1, ptr @"_SM7__constG2-27" }, i32 8, i32 116, ptr @"_SM7__constG1-7", [3 x ptr] [ ptr @"_SM16java.lang.ObjectD8hashCodeiEO", ptr @"_SM16java.lang.ObjectD8toStringL16java.lang.StringEO", ptr @"_SM16java.lang.ObjectD6equalsL16java.lang.ObjectzEO" ] }
@"_SM25java.io.InputStreamReaderG4type" = hidden global { { ptr, i32, i32, ptr }, i32, i32, ptr, [3 x ptr] } { { ptr, i32, i32, ptr } { ptr @"_SM15java.lang.ClassG4type", i32 326, i32 -1, ptr @"_SM7__constG2-29" }, i32 48, i32 326, ptr @"_SM7__constG2-30", [3 x ptr] [ ptr @"_SM16java.lang.ObjectD8hashCodeiEO", ptr @"_SM16java.lang.ObjectD8toStringL16java.lang.StringEO", ptr @"_SM16java.lang.ObjectD6equalsL16java.lang.ObjectzEO" ] }
@"_SM26java.io.InputStreamReader$G4type" = hidden global { { ptr, i32, i32, ptr }, i32, i32, ptr, [3 x ptr] } { { ptr, i32, i32, ptr } { ptr @"_SM15java.lang.ClassG4type", i32 102, i32 -1, ptr @"_SM7__constG2-32" }, i32 16, i32 102, ptr @"_SM7__constG2-21", [3 x ptr] [ ptr @"_SM16java.lang.ObjectD8hashCodeiEO", ptr @"_SM16java.lang.ObjectD8toStringL16java.lang.StringEO", ptr @"_SM16java.lang.ObjectD6equalsL16java.lang.ObjectzEO" ] }
@"_SM20java.io.OutputStreamG4type" = hidden global { { ptr, i32, i32, ptr }, i32, i32, ptr, [5 x ptr] } { { ptr, i32, i32, ptr } { ptr @"_SM15java.lang.ClassG4type", i32 556, i32 -1, ptr @"_SM7__constG2-34" }, i32 8, i32 559, ptr @"_SM7__constG1-7", [5 x ptr] [ ptr @"_SM16java.lang.ObjectD8hashCodeiEO", ptr @"_SM16java.lang.ObjectD8toStringL16java.lang.StringEO", ptr @"_SM16java.lang.ObjectD6equalsL16java.lang.ObjectzEO", ptr @"_SM20java.io.OutputStreamD5flushuEO", ptr null ] }
@"_SM26java.io.OutputStreamWriterG4type" = hidden global { { ptr, i32, i32, ptr }, i32, i32, ptr, [3 x ptr] } { { ptr, i32, i32, ptr } { ptr @"_SM15java.lang.ClassG4type", i32 150, i32 27, ptr @"_SM7__constG2-36" }, i32 56, i32 150, ptr @"_SM7__constG2-37", [3 x ptr] [ ptr @"_SM16java.lang.ObjectD8hashCodeiEO", ptr @"_SM16java.lang.ObjectD8toStringL16java.lang.StringEO", ptr @"_SM16java.lang.ObjectD6equalsL16java.lang.ObjectzEO" ] }
@"_SM19java.io.PrintStreamG4type" = hidden global { { ptr, i32, i32, ptr }, i32, i32, ptr, [5 x ptr] } { { ptr, i32, i32, ptr } { ptr @"_SM15java.lang.ClassG4type", i32 558, i32 160, ptr @"_SM7__constG2-39" }, i32 48, i32 558, ptr @"_SM7__constG1-2", [5 x ptr] [ ptr @"_SM16java.lang.ObjectD8hashCodeiEO", ptr @"_SM16java.lang.ObjectD8toStringL16java.lang.StringEO", ptr @"_SM16java.lang.ObjectD6equalsL16java.lang.ObjectzEO", ptr @"_SM19java.io.PrintStreamD5flushuEO", ptr @"_SM19java.io.PrintStreamD5writeLAb_iiuEO" ] }
@"_SM29java.io.PrintStream$$Lambda$1G4type" = hidden global { { ptr, i32, i32, ptr }, i32, i32, ptr, [3 x ptr] } { { ptr, i32, i32, ptr } { ptr @"_SM15java.lang.ClassG4type", i32 53, i32 1, ptr @"_SM7__constG2-41" }, i32 16, i32 53, ptr @"_SM7__constG2-21", [3 x ptr] [ ptr @"_SM16java.lang.ObjectD8hashCodeiEO", ptr @"_SM16java.lang.ObjectD8toStringL16java.lang.StringEO", ptr @"_SM16java.lang.ObjectD6equalsL16java.lang.ObjectzEO" ] }
@"_SM29java.io.PrintStream$$Lambda$4G4type" = hidden global { { ptr, i32, i32, ptr }, i32, i32, ptr, [3 x ptr] } { { ptr, i32, i32, ptr } { ptr @"_SM15java.lang.ClassG4type", i32 635, i32 202, ptr @"_SM7__constG2-43" }, i32 32, i32 635, ptr @"_SM7__constG2-44", [3 x ptr] [ ptr @"_SM16java.lang.ObjectD8hashCodeiEO", ptr @"_SM16java.lang.ObjectD8toStringL16java.lang.StringEO", ptr @"_SM16java.lang.ObjectD6equalsL16java.lang.ObjectzEO" ] }
@"_SM29java.io.PrintStream$$Lambda$5G4type" = hidden global { { ptr, i32, i32, ptr }, i32, i32, ptr, [3 x ptr] } { { ptr, i32, i32, ptr } { ptr @"_SM15java.lang.ClassG4type", i32 88, i32 8, ptr @"_SM7__constG2-46" }, i32 24, i32 88, ptr @"_SM7__constG2-16", [3 x ptr] [ ptr @"_SM16java.lang.ObjectD8hashCodeiEO", ptr @"_SM16java.lang.ObjectD8toStringL16java.lang.StringEO", ptr @"_SM16java.lang.ObjectD6equalsL16java.lang.ObjectzEO" ] }
@"_SM29java.io.PrintStream$$Lambda$7G4type" = hidden global { { ptr, i32, i32, ptr }, i32, i32, ptr, [3 x ptr] } { { ptr, i32, i32, ptr } { ptr @"_SM15java.lang.ClassG4type", i32 188, i32 36, ptr @"_SM7__constG2-48" }, i32 16, i32 188, ptr @"_SM7__constG2-21", [3 x ptr] [ ptr @"_SM16java.lang.ObjectD8hashCodeiEO", ptr @"_SM16java.lang.ObjectD8toStringL16java.lang.StringEO", ptr @"_SM16java.lang.ObjectD6equalsL16java.lang.ObjectzEO" ] }
@"_SM14java.io.ReaderG4type" = hidden global { { ptr, i32, i32, ptr }, i32, i32, ptr, [3 x ptr] } { { ptr, i32, i32, ptr } { ptr @"_SM15java.lang.ClassG4type", i32 325, i32 -1, ptr @"_SM7__constG2-50" }, i32 16, i32 327, ptr @"_SM7__constG2-21", [3 x ptr] [ ptr @"_SM16java.lang.ObjectD8hashCodeiEO", ptr @"_SM16java.lang.ObjectD8toStringL16java.lang.StringEO", ptr @"_SM16java.lang.ObjectD6equalsL16java.lang.ObjectzEO" ] }
@"_SM20java.io.SerializableG4type" = hidden global { ptr, i32, i32, ptr } { ptr @"_SM15java.lang.ClassG4type", i32 -21, i32 -1, ptr @"_SM7__constG2-52" }
@"_SM14java.io.WriterG4type" = hidden global { { ptr, i32, i32, ptr }, i32, i32, ptr, [3 x ptr] } { { ptr, i32, i32, ptr } { ptr @"_SM15java.lang.ClassG4type", i32 149, i32 -1, ptr @"_SM7__constG2-54" }, i32 16, i32 150, ptr @"_SM7__constG2-21", [3 x ptr] [ ptr @"_SM16java.lang.ObjectD8hashCodeiEO", ptr @"_SM16java.lang.ObjectD8toStringL16java.lang.StringEO", ptr @"_SM16java.lang.ObjectD6equalsL16java.lang.ObjectzEO" ] }

define dereferenceable_or_null(32) ptr @"_SM22java.io.FileDescriptorD8toStringL16java.lang.StringEO"(ptr %_1) personality ptr @__gxx_personality_v0 {
_2000000.0:
  %_11000004 = icmp ne ptr %_1, null
  br i1 %_11000004, label %_11000002.0, label %_11000003.0
_11000002.0:
  %_2000004 = call dereferenceable_or_null(24) ptr @"scalanative_GC_alloc_small"(ptr @"_SM23java.lang.StringBuilderG4type", i64 24)
  %_2000005 = call dereferenceable_or_null(16) ptr @"_SM36scala.scalanative.runtime.CharArray$D5allociL35scala.scalanative.runtime.CharArrayEO"(ptr @"_SM36scala.scalanative.runtime.CharArray$G8instance", i32 27)
  %_11000007 = getelementptr { { ptr }, i32, i1, ptr }, { { ptr }, i32, i1, ptr }* %_2000004, i32 0, i32 3
  store ptr %_2000005, ptr%_11000007, align 8
  %_2000007 = call dereferenceable_or_null(24) ptr @"_SM23java.lang.StringBuilderD6appendL16java.lang.StringL23java.lang.StringBuilderEO"(ptr nonnull dereferenceable(24) %_2000004, ptr @"_SM7__constG2-56")
  %_11000008 = getelementptr { { ptr }, i64, i1 }, { { ptr }, i64, i1 }* %_1, i32 0, i32 1
  %_11000001 = load i64, ptr %_11000008
  %_2000008 = trunc i64 %_11000001 to i32
  %_2000009 = call dereferenceable_or_null(24) ptr @"_SM23java.lang.StringBuilderD6appendiL23java.lang.StringBuilderEO"(ptr nonnull dereferenceable(24) %_2000004, i32 %_2000008)
  %_2000012 = call dereferenceable_or_null(24) ptr @"_SM23java.lang.StringBuilderD6appendL16java.lang.StringL23java.lang.StringBuilderEO"(ptr nonnull dereferenceable(24) %_2000004, ptr @"_SM7__constG2-58")
  %_11000009 = getelementptr { { ptr }, i64, i1 }, { { ptr }, i64, i1 }* %_1, i32 0, i32 2
  %_11000010 = load i8, ptr %_11000009
  %_2000013 = trunc i8 %_11000010 to i1
  %_2000014 = call dereferenceable_or_null(24) ptr @"_SM23java.lang.StringBuilderD6appendzL23java.lang.StringBuilderEO"(ptr nonnull dereferenceable(24) %_2000004, i1 %_2000013)
  %_2000017 = call dereferenceable_or_null(24) ptr @"_SM23java.lang.StringBuilderD6appendL16java.lang.StringL23java.lang.StringBuilderEO"(ptr nonnull dereferenceable(24) %_2000004, ptr @"_SM7__constG2-60")
  %_2000018 = call dereferenceable_or_null(32) ptr @"_SM23java.lang.StringBuilderD8toStringL16java.lang.StringEO"(ptr nonnull dereferenceable(24) %_2000004)
  ret ptr %_2000018
_11000003.0:
  call ptr @"_SM34scala.scalanative.runtime.package$D16throwNullPointernEO"(ptr null)
  unreachable
}

define dereferenceable_or_null(32) ptr @"_SM23java.io.FileDescriptor$G4load"() noinline personality ptr @__gxx_personality_v0 {
_1.0:
  %_4 = getelementptr ptr, ptr @"__modules", i32 44
  %_5 = load ptr, ptr %_4, !dereferenceable_or_null !{i64 32}
  %_6 = icmp ne ptr %_5, null
  br i1 %_6, label %_2.0, label %_3.0
_2.0:
  ret ptr %_5
_3.0:
  %_7 = call dereferenceable_or_null(32) ptr @"scalanative_GC_alloc_small"(ptr @"_SM23java.io.FileDescriptor$G4type", i64 32)
  store ptr %_7, ptr%_4, align 8
  call void @"_SM23java.io.FileDescriptor$RE"(ptr dereferenceable_or_null(32) %_7)
  ret ptr %_7
}

define void @"_SM23java.io.FileDescriptor$RE"(ptr %_1) personality ptr @__gxx_personality_v0 {
_2000000.0:
  %_2000001 = call dereferenceable_or_null(32) ptr @"_SM23java.io.FileDescriptor$G4load"()
  br label %_4000000.0
_4000000.0:
  %_4000003 = call i32 @"scalanative_stdin_fileno"()
  %_4000004 = call i64 @"_SM34java.io.FileDescriptor$FileHandle$D5applyijEO"(ptr nonnull dereferenceable(8) @"_SM34java.io.FileDescriptor$FileHandle$G8instance", i32 %_4000003)
  br label %_5000000.0
_5000000.0:
  %_5000002 = call dereferenceable_or_null(24) ptr @"scalanative_GC_alloc_small"(ptr @"_SM22java.io.FileDescriptorG4type", i64 24)
  %_13000006 = getelementptr { { ptr }, i64, i1 }, { { ptr }, i64, i1 }* %_5000002, i32 0, i32 1
  store i64 %_4000004, ptr%_13000006, align 8
  %_13000008 = getelementptr { { ptr }, ptr, ptr, ptr }, { { ptr }, ptr, ptr, ptr }* %_2000001, i32 0, i32 3
  store ptr %_5000002, ptr%_13000008, align 8
  br label %_8000000.0
_8000000.0:
  %_8000001 = call i32 @"scalanative_stdout_fileno"()
  %_8000002 = call i64 @"_SM34java.io.FileDescriptor$FileHandle$D5applyijEO"(ptr nonnull dereferenceable(8) @"_SM34java.io.FileDescriptor$FileHandle$G8instance", i32 %_8000001)
  br label %_9000000.0
_9000000.0:
  %_9000002 = call dereferenceable_or_null(24) ptr @"scalanative_GC_alloc_small"(ptr @"_SM22java.io.FileDescriptorG4type", i64 24)
  %_13000010 = getelementptr { { ptr }, i64, i1 }, { { ptr }, i64, i1 }* %_9000002, i32 0, i32 1
  store i64 %_8000002, ptr%_13000010, align 8
  %_13000012 = getelementptr { { ptr }, ptr, ptr, ptr }, { { ptr }, ptr, ptr, ptr }* %_2000001, i32 0, i32 2
  store ptr %_9000002, ptr%_13000012, align 8
  br label %_12000000.0
_12000000.0:
  %_12000001 = call i32 @"scalanative_stderr_fileno"()
  %_12000002 = call i64 @"_SM34java.io.FileDescriptor$FileHandle$D5applyijEO"(ptr nonnull dereferenceable(8) @"_SM34java.io.FileDescriptor$FileHandle$G8instance", i32 %_12000001)
  br label %_13000000.0
_13000000.0:
  %_13000002 = call dereferenceable_or_null(24) ptr @"scalanative_GC_alloc_small"(ptr @"_SM22java.io.FileDescriptorG4type", i64 24)
  %_13000014 = getelementptr { { ptr }, i64, i1 }, { { ptr }, i64, i1 }* %_13000002, i32 0, i32 1
  store i64 %_12000002, ptr%_13000014, align 8
  %_13000016 = getelementptr { { ptr }, ptr, ptr, ptr }, { { ptr }, ptr, ptr, ptr }* %_2000001, i32 0, i32 1
  store ptr %_13000002, ptr%_13000016, align 8
  ret void
}

define i64 @"_SM34java.io.FileDescriptor$FileHandle$D5applyijEO"(ptr %_1, i32 %_2) personality ptr @__gxx_personality_v0 {
_3000000.0:
  %_3000002 = sext i32 %_2 to i64
  ret i64 %_3000002
}

define void @"_SM34java.io.FileDescriptor$FileHandle$RE"(ptr %_1) personality ptr @__gxx_personality_v0 {
_2000000.0:
  ret void
}

define void @"_SM24java.io.FileOutputStreamD5writeLAb_iiuEO"(ptr %_1, ptr %_2, i32 %_3, i32 %_4) personality ptr @__gxx_personality_v0 {
_5000000.0:
  %_5000005 = icmp ne ptr %_1, null
  br i1 %_5000005, label %_5000003.0, label %_5000004.0
_5000003.0:
  %_5000006 = getelementptr { { ptr }, ptr, ptr }, { { ptr }, ptr, ptr }* %_1, i32 0, i32 2
  %_5000001 = load ptr, ptr %_5000006, !dereferenceable_or_null !{i64 40}
  %_5000002 = call i32 @"_SM33java.nio.channels.FileChannelImplD5writeLAb_iiiEO"(ptr dereferenceable_or_null(40) %_5000001, ptr dereferenceable_or_null(16) %_2, i32 %_3, i32 %_4)
  ret void
_5000004.0:
  call ptr @"_SM34scala.scalanative.runtime.package$D16throwNullPointernEO"(ptr null)
  unreachable
}

define dereferenceable_or_null(16) ptr @"_SM26java.io.InputStreamReader$G4load"() noinline personality ptr @__gxx_personality_v0 {
_1.0:
  %_4 = getelementptr ptr, ptr @"__modules", i32 20
  %_5 = load ptr, ptr %_4, !dereferenceable_or_null !{i64 16}
  %_6 = icmp ne ptr %_5, null
  br i1 %_6, label %_2.0, label %_3.0
_2.0:
  ret ptr %_5
_3.0:
  %_7 = call dereferenceable_or_null(16) ptr @"scalanative_GC_alloc_small"(ptr @"_SM26java.io.InputStreamReader$G4type", i64 16)
  store ptr %_7, ptr%_4, align 8
  call void @"_SM26java.io.InputStreamReader$RE"(ptr dereferenceable_or_null(16) %_7)
  ret ptr %_7
}

define void @"_SM26java.io.InputStreamReader$RE"(ptr %_1) personality ptr @__gxx_personality_v0 {
_2000000.0:
  %_2000001 = call dereferenceable_or_null(16) ptr @"_SM26java.io.InputStreamReader$G4load"()
  %_2000003 = call dereferenceable_or_null(48) ptr @"_SM20java.nio.CharBuffer$D8allocateiL19java.nio.CharBufferEO"(ptr nonnull dereferenceable(8) @"_SM20java.nio.CharBuffer$G8instance", i32 0)
  %_2000006 = getelementptr { { ptr }, ptr }, { { ptr }, ptr }* %_2000001, i32 0, i32 1
  store ptr %_2000003, ptr%_2000006, align 8
  ret void
}

define void @"_SM20java.io.OutputStreamD5flushuEO"(ptr %_1) personality ptr @__gxx_personality_v0 {
_2000000.0:
  ret void
}

define void @"_SM26java.io.OutputStreamWriterD10ensureOpenuEPT26java.io.OutputStreamWriter"(ptr %_1) personality ptr @__gxx_personality_v0 {
_2000000.0:
  %_13000003 = icmp ne ptr %_1, null
  br i1 %_13000003, label %_13000001.0, label %_13000002.0
_13000001.0:
  %_13000004 = getelementptr { { ptr }, ptr, ptr, ptr, i1, ptr, ptr }, { { ptr }, ptr, ptr, ptr, i1, ptr, ptr }* %_1, i32 0, i32 4
  %_13000005 = load i8, ptr %_13000004
  %_2000001 = trunc i8 %_13000005 to i1
  br i1 %_2000001, label %_3000000.0, label %_4000000.0
_4000000.0:
  br label %_13000000.0
_13000000.0:
  ret void
_3000000.0:
  br label %_11000000.0
_11000000.0:
  %_11000001 = call dereferenceable_or_null(40) ptr @"scalanative_GC_alloc_small"(ptr @"_SM19java.io.IOExceptionG4type", i64 40)
  %_13000007 = getelementptr { { ptr }, ptr, ptr, ptr, i1, i1 }, { { ptr }, ptr, ptr, ptr, i1, i1 }* %_11000001, i32 0, i32 5
  %_13000008 = zext i1 true to i8
  store i8 %_13000008, ptr%_13000007, align 1
  %_13000010 = getelementptr { { ptr }, ptr, ptr, ptr, i1, i1 }, { { ptr }, ptr, ptr, ptr, i1, i1 }* %_11000001, i32 0, i32 4
  %_13000011 = zext i1 true to i8
  store i8 %_13000011, ptr%_13000010, align 1
  %_13000013 = getelementptr { { ptr }, ptr, ptr, ptr, i1, i1 }, { { ptr }, ptr, ptr, ptr, i1, i1 }* %_11000001, i32 0, i32 3
  store ptr @"_SM7__constG2-62", ptr%_13000013, align 8
  %_11000005 = call dereferenceable_or_null(40) ptr @"_SM19java.lang.ThrowableD16fillInStackTraceL19java.lang.ThrowableEO"(ptr nonnull dereferenceable(40) %_11000001)
  br label %_12000000.0
_12000000.0:
  call ptr @"scalanative_throw"(ptr nonnull dereferenceable(40) %_11000001)
  unreachable
_13000002.0:
  call ptr @"_SM34scala.scalanative.runtime.package$D16throwNullPointernEO"(ptr null)
  unreachable
}

define void @"_SM26java.io.OutputStreamWriterD11flushBufferuEO"(ptr %_1) personality ptr @__gxx_personality_v0 {
_2000000.0:
  %_3000004 = icmp ne ptr %_1, null
  br i1 %_3000004, label %_3000002.0, label %_3000003.0
_3000002.0:
  call void @"_SM26java.io.OutputStreamWriterD10ensureOpenuEPT26java.io.OutputStreamWriter"(ptr dereferenceable_or_null(56) %_1)
  %_3000006 = getelementptr { { ptr }, ptr, ptr, ptr, i1, ptr, ptr }, { { ptr }, ptr, ptr, ptr, i1, ptr, ptr }* %_1, i32 0, i32 3
  %_3000001 = load ptr, ptr %_3000006, !dereferenceable_or_null !{i64 8}
  %_3000007 = getelementptr { { ptr }, ptr, ptr, ptr, i1, ptr, ptr }, { { ptr }, ptr, ptr, ptr, i1, ptr, ptr }* %_1, i32 0, i32 2
  %_2000002 = load ptr, ptr %_3000007, !dereferenceable_or_null !{i64 56}
  %_2000003 = call dereferenceable_or_null(16) ptr @"_SM19java.nio.ByteBufferD5arrayLAb_EO"(ptr dereferenceable_or_null(56) %_2000002)
  %_3000008 = getelementptr { { ptr }, ptr, ptr, ptr, i1, ptr, ptr }, { { ptr }, ptr, ptr, ptr, i1, ptr, ptr }* %_1, i32 0, i32 2
  %_2000004 = load ptr, ptr %_3000008, !dereferenceable_or_null !{i64 56}
  %_2000005 = call i32 @"_SM19java.nio.ByteBufferD11arrayOffsetiEO"(ptr dereferenceable_or_null(56) %_2000004)
  %_3000009 = getelementptr { { ptr }, ptr, ptr, ptr, i1, ptr, ptr }, { { ptr }, ptr, ptr, ptr, i1, ptr, ptr }* %_1, i32 0, i32 2
  %_2000006 = load ptr, ptr %_3000009, !dereferenceable_or_null !{i64 56}
  %_2000007 = call i32 @"_SM15java.nio.BufferD8positioniEO"(ptr dereferenceable_or_null(56) %_2000006)
  %_3000011 = icmp ne ptr %_3000001, null
  br i1 %_3000011, label %_3000010.0, label %_3000003.0
_3000010.0:
  %_3000012 = load ptr, ptr %_3000001
  %_3000013 = getelementptr { { ptr, i32, i32, ptr }, i32, i32, ptr, [5 x ptr] }, { { ptr, i32, i32, ptr }, i32, i32, ptr, [5 x ptr] }* %_3000012, i32 0, i32 4, i32 4
  %_2000009 = load ptr, ptr %_3000013
  call void %_2000009(ptr dereferenceable_or_null(8) %_3000001, ptr dereferenceable_or_null(16) %_2000003, i32 %_2000005, i32 %_2000007)
  %_3000015 = getelementptr { { ptr }, ptr, ptr, ptr, i1, ptr, ptr }, { { ptr }, ptr, ptr, ptr, i1, ptr, ptr }* %_1, i32 0, i32 2
  %_2000011 = load ptr, ptr %_3000015, !dereferenceable_or_null !{i64 56}
  %_2000012 = call dereferenceable_or_null(56) ptr @"_SM19java.nio.ByteBufferD5clearL19java.nio.ByteBufferEO"(ptr dereferenceable_or_null(56) %_2000011)
  ret void
_3000003.0:
  call ptr @"_SM34scala.scalanative.runtime.package$D16throwNullPointernEO"(ptr null)
  unreachable
}

define void @"_SM26java.io.OutputStreamWriterD12loopEncode$1L19java.nio.CharBufferuEPT26java.io.OutputStreamWriter"(ptr %_1, ptr %_2) inlinehint personality ptr @__gxx_personality_v0 {
_3000000.0:
  %_21000003 = icmp ne ptr %_1, null
  br i1 %_21000003, label %_21000001.0, label %_21000002.0
_21000001.0:
  br label %_4000000.0
_4000000.0:
  br label %_5000000.0
_5000000.0:
  br label %_6000000.0
_6000000.0:
  %_21000004 = getelementptr { { ptr }, ptr, ptr, ptr, i1, ptr, ptr }, { { ptr }, ptr, ptr, ptr, i1, ptr, ptr }* %_1, i32 0, i32 5
  %_7000001 = load ptr, ptr %_21000004, !dereferenceable_or_null !{i64 56}
  %_21000005 = getelementptr { { ptr }, ptr, ptr, ptr, i1, ptr, ptr }, { { ptr }, ptr, ptr, ptr, i1, ptr, ptr }* %_1, i32 0, i32 2
  %_6000001 = load ptr, ptr %_21000005, !dereferenceable_or_null !{i64 56}
  %_6000002 = call dereferenceable_or_null(16) ptr @"_SM31java.nio.charset.CharsetEncoderD6encodeL19java.nio.CharBufferL19java.nio.ByteBufferzL28java.nio.charset.CoderResultEO"(ptr dereferenceable_or_null(56) %_7000001, ptr dereferenceable_or_null(48) %_2, ptr dereferenceable_or_null(56) %_6000001, i1 false)
  %_6000003 = call i1 @"_SM28java.nio.charset.CoderResultD11isUnderflowzEO"(ptr dereferenceable_or_null(16) %_6000002)
  br i1 %_6000003, label %_8000000.0, label %_9000000.0
_8000000.0:
  br label %_10000000.0
_9000000.0:
  %_9000001 = call i1 @"_SM28java.nio.charset.CoderResultD10isOverflowzEO"(ptr dereferenceable_or_null(16) %_6000002)
  br i1 %_9000001, label %_11000000.0, label %_12000000.0
_11000000.0:
  call void @"_SM26java.io.OutputStreamWriterD16makeRoomInOutBufuEPT26java.io.OutputStreamWriter"(ptr dereferenceable_or_null(56) %_1)
  br label %_13000000.0
_10000000.0:
  ret void
_13000000.0:
  br label %_4000000.0
_12000000.0:
  call void @"_SM28java.nio.charset.CoderResultD14throwExceptionuEO"(ptr dereferenceable_or_null(16) %_6000002)
  %_14000001 = call dereferenceable_or_null(32) ptr @"_SM16java.lang.StringD8toStringL16java.lang.StringEO"(ptr @"_SM7__constG2-64")
  br label %_20000000.0
_20000000.0:
  %_20000001 = call dereferenceable_or_null(40) ptr @"scalanative_GC_alloc_small"(ptr @"_SM24java.lang.AssertionErrorG4type", i64 40)
  %_21000009 = getelementptr { { ptr }, ptr, ptr, ptr, i1, i1 }, { { ptr }, ptr, ptr, ptr, i1, i1 }* %_20000001, i32 0, i32 5
  %_21000010 = zext i1 true to i8
  store i8 %_21000010, ptr%_21000009, align 1
  %_21000012 = getelementptr { { ptr }, ptr, ptr, ptr, i1, i1 }, { { ptr }, ptr, ptr, ptr, i1, i1 }* %_20000001, i32 0, i32 4
  %_21000013 = zext i1 true to i8
  store i8 %_21000013, ptr%_21000012, align 1
  %_21000015 = getelementptr { { ptr }, ptr, ptr, ptr, i1, i1 }, { { ptr }, ptr, ptr, ptr, i1, i1 }* %_20000001, i32 0, i32 3
  store ptr %_14000001, ptr%_21000015, align 8
  %_20000005 = call dereferenceable_or_null(40) ptr @"_SM19java.lang.ThrowableD16fillInStackTraceL19java.lang.ThrowableEO"(ptr nonnull dereferenceable(40) %_20000001)
  br label %_21000000.0
_21000000.0:
  call ptr @"scalanative_throw"(ptr nonnull dereferenceable(40) %_20000001)
  unreachable
_21000002.0:
  call ptr @"_SM34scala.scalanative.runtime.package$D16throwNullPointernEO"(ptr null)
  unreachable
}

define void @"_SM26java.io.OutputStreamWriterD16makeRoomInOutBufuEPT26java.io.OutputStreamWriter"(ptr %_1) personality ptr @__gxx_personality_v0 {
_2000000.0:
  %_5000003 = icmp ne ptr %_1, null
  br i1 %_5000003, label %_5000001.0, label %_5000002.0
_5000001.0:
  %_5000004 = getelementptr { { ptr }, ptr, ptr, ptr, i1, ptr, ptr }, { { ptr }, ptr, ptr, ptr, i1, ptr, ptr }* %_1, i32 0, i32 2
  %_2000001 = load ptr, ptr %_5000004, !dereferenceable_or_null !{i64 56}
  %_2000002 = call i32 @"_SM15java.nio.BufferD8positioniEO"(ptr dereferenceable_or_null(56) %_2000001)
  %_2000004 = icmp ne i32 %_2000002, 0
  br i1 %_2000004, label %_3000000.0, label %_4000000.0
_3000000.0:
  call void @"_SM26java.io.OutputStreamWriterD11flushBufferuEO"(ptr dereferenceable_or_null(56) %_1)
  br label %_5000000.0
_4000000.0:
  %_5000006 = getelementptr { { ptr }, ptr, ptr, ptr, i1, ptr, ptr }, { { ptr }, ptr, ptr, ptr, i1, ptr, ptr }* %_1, i32 0, i32 2
  %_4000001 = load ptr, ptr %_5000006, !dereferenceable_or_null !{i64 56}
  %_4000002 = call dereferenceable_or_null(56) ptr @"_SM19java.nio.ByteBufferD4flipL19java.nio.ByteBufferEO"(ptr dereferenceable_or_null(56) %_4000001)
  %_5000007 = getelementptr { { ptr }, ptr, ptr, ptr, i1, ptr, ptr }, { { ptr }, ptr, ptr, ptr, i1, ptr, ptr }* %_1, i32 0, i32 2
  %_4000004 = load ptr, ptr %_5000007, !dereferenceable_or_null !{i64 56}
  %_4000005 = call i32 @"_SM15java.nio.BufferD8capacityiEO"(ptr dereferenceable_or_null(56) %_4000004)
  %_5000008 = and i32 1, 31
  %_4000007 = shl i32 %_4000005, %_5000008
  %_4000008 = call dereferenceable_or_null(56) ptr @"_SM20java.nio.ByteBuffer$D8allocateiL19java.nio.ByteBufferEO"(ptr nonnull dereferenceable(8) @"_SM20java.nio.ByteBuffer$G8instance", i32 %_4000007)
  %_5000009 = getelementptr { { ptr }, ptr, ptr, ptr, i1, ptr, ptr }, { { ptr }, ptr, ptr, ptr, i1, ptr, ptr }* %_1, i32 0, i32 2
  %_4000009 = load ptr, ptr %_5000009, !dereferenceable_or_null !{i64 56}
  %_4000010 = call dereferenceable_or_null(56) ptr @"_SM19java.nio.ByteBufferD3putL19java.nio.ByteBufferL19java.nio.ByteBufferEO"(ptr dereferenceable_or_null(56) %_4000008, ptr dereferenceable_or_null(56) %_4000009)
  %_5000011 = getelementptr { { ptr }, ptr, ptr, ptr, i1, ptr, ptr }, { { ptr }, ptr, ptr, ptr, i1, ptr, ptr }* %_1, i32 0, i32 2
  store ptr %_4000008, ptr%_5000011, align 8
  br label %_5000000.0
_5000000.0:
  ret void
_5000002.0:
  call ptr @"_SM34scala.scalanative.runtime.package$D16throwNullPointernEO"(ptr null)
  unreachable
}

define void @"_SM26java.io.OutputStreamWriterD5writeLAc_iiuEO"(ptr %_1, ptr %_2, i32 %_3, i32 %_4) personality ptr @__gxx_personality_v0 {
_5000000.0:
  %_5000006 = icmp ne ptr %_1, null
  br i1 %_5000006, label %_5000004.0, label %_5000005.0
_5000004.0:
  %_5000002 = call dereferenceable_or_null(48) ptr @"_SM20java.nio.CharBuffer$D4wrapLAc_iiL19java.nio.CharBufferEO"(ptr nonnull dereferenceable(8) @"_SM20java.nio.CharBuffer$G8instance", ptr dereferenceable_or_null(16) %_2, i32 %_3, i32 %_4)
  call void @"_SM26java.io.OutputStreamWriterD9writeImplL19java.nio.CharBufferuEPT26java.io.OutputStreamWriter"(ptr dereferenceable_or_null(56) %_1, ptr dereferenceable_or_null(48) %_5000002)
  ret void
_5000005.0:
  call ptr @"_SM34scala.scalanative.runtime.package$D16throwNullPointernEO"(ptr null)
  unreachable
}

define void @"_SM26java.io.OutputStreamWriterD9writeImplL19java.nio.CharBufferuEPT26java.io.OutputStreamWriter"(ptr %_1, ptr %_2) personality ptr @__gxx_personality_v0 {
_3000000.0:
  %_19000003 = icmp ne ptr %_1, null
  br i1 %_19000003, label %_19000001.0, label %_19000002.0
_19000001.0:
  call void @"_SM26java.io.OutputStreamWriterD10ensureOpenuEPT26java.io.OutputStreamWriter"(ptr dereferenceable_or_null(56) %_1)
  %_19000005 = getelementptr { { ptr }, ptr, ptr, ptr, i1, ptr, ptr }, { { ptr }, ptr, ptr, ptr, i1, ptr, ptr }* %_1, i32 0, i32 6
  %_3000002 = load ptr, ptr %_19000005, !dereferenceable_or_null !{i64 32}
  %_3000004 = icmp eq ptr %_3000002, null
  br i1 %_3000004, label %_4000000.0, label %_5000000.0
_4000000.0:
  %_4000004 = icmp eq ptr @"_SM7__constG2-66", null
  br label %_6000000.0
_5000000.0:
  %_5000003 = call i1 @"_SM16java.lang.StringD6equalsL16java.lang.ObjectzEO"(ptr dereferenceable_or_null(32) %_3000002, ptr @"_SM7__constG2-66")
  br label %_6000000.0
_6000000.0:
  %_6000001 = phi i1 [%_5000003, %_5000000.0], [%_4000004, %_4000000.0]
  %_6000003 = xor i1 %_6000001, true
  br i1 %_6000003, label %_7000000.0, label %_8000000.0
_7000000.0:
  %_19000006 = getelementptr { { ptr }, ptr, ptr, ptr, i1, ptr, ptr }, { { ptr }, ptr, ptr, ptr, i1, ptr, ptr }* %_1, i32 0, i32 6
  %_7000003 = load ptr, ptr %_19000006, !dereferenceable_or_null !{i64 32}
  %_7000004 = call dereferenceable_or_null(24) ptr @"scalanative_GC_alloc_small"(ptr @"_SM23java.lang.StringBuilderG4type", i64 24)
  %_7000005 = call dereferenceable_or_null(16) ptr @"_SM36scala.scalanative.runtime.CharArray$D5allociL35scala.scalanative.runtime.CharArrayEO"(ptr @"_SM36scala.scalanative.runtime.CharArray$G8instance", i32 0)
  %_19000009 = getelementptr { { ptr }, i32, i1, ptr }, { { ptr }, i32, i1, ptr }* %_7000004, i32 0, i32 3
  store ptr %_7000005, ptr%_19000009, align 8
  %_7000007 = call dereferenceable_or_null(24) ptr @"_SM23java.lang.StringBuilderD6appendL16java.lang.StringL23java.lang.StringBuilderEO"(ptr nonnull dereferenceable(24) %_7000004, ptr dereferenceable_or_null(32) %_7000003)
  %_19000011 = icmp ne ptr %_2, null
  br i1 %_19000011, label %_19000010.0, label %_19000002.0
_19000010.0:
  %_19000012 = load ptr, ptr %_2
  %_19000013 = getelementptr { { ptr, i32, i32, ptr }, i32, i32, ptr, [18 x ptr] }, { { ptr, i32, i32, ptr }, i32, i32, ptr, [18 x ptr] }* %_19000012, i32 0, i32 4, i32 1
  %_7000009 = load ptr, ptr %_19000013
  %_7000010 = call dereferenceable_or_null(32) ptr %_7000009(ptr dereferenceable_or_null(48) %_2)
  %_7000011 = call dereferenceable_or_null(24) ptr @"_SM23java.lang.StringBuilderD6appendL16java.lang.StringL23java.lang.StringBuilderEO"(ptr nonnull dereferenceable(24) %_7000004, ptr dereferenceable_or_null(32) %_7000010)
  %_7000012 = call dereferenceable_or_null(32) ptr @"_SM23java.lang.StringBuilderD8toStringL16java.lang.StringEO"(ptr nonnull dereferenceable(24) %_7000004)
  %_7000013 = call dereferenceable_or_null(48) ptr @"_SM20java.nio.CharBuffer$D4wrapL22java.lang.CharSequenceL19java.nio.CharBufferEO"(ptr nonnull dereferenceable(8) @"_SM20java.nio.CharBuffer$G8instance", ptr dereferenceable_or_null(32) %_7000012)
  %_19000015 = getelementptr { { ptr }, ptr, ptr, ptr, i1, ptr, ptr }, { { ptr }, ptr, ptr, ptr, i1, ptr, ptr }* %_1, i32 0, i32 6
  store ptr @"_SM7__constG2-66", ptr%_19000015, align 8
  br label %_16000000.0
_8000000.0:
  br label %_16000000.0
_16000000.0:
  %_16000001 = phi ptr [%_2, %_8000000.0], [%_7000013, %_19000010.0]
  call void @"_SM26java.io.OutputStreamWriterD12loopEncode$1L19java.nio.CharBufferuEPT26java.io.OutputStreamWriter"(ptr dereferenceable_or_null(56) %_1, ptr dereferenceable_or_null(48) %_16000001)
  %_16000003 = call i1 @"_SM15java.nio.BufferD12hasRemainingzEO"(ptr dereferenceable_or_null(48) %_16000001)
  br i1 %_16000003, label %_17000000.0, label %_18000000.0
_17000000.0:
  %_19000018 = icmp ne ptr %_16000001, null
  br i1 %_19000018, label %_19000017.0, label %_19000002.0
_19000017.0:
  %_19000019 = load ptr, ptr %_16000001
  %_19000020 = getelementptr { { ptr, i32, i32, ptr }, i32, i32, ptr, [18 x ptr] }, { { ptr, i32, i32, ptr }, i32, i32, ptr, [18 x ptr] }* %_19000019, i32 0, i32 4, i32 1
  %_17000002 = load ptr, ptr %_19000020
  %_17000003 = call dereferenceable_or_null(32) ptr %_17000002(ptr dereferenceable_or_null(48) %_16000001)
  %_19000022 = getelementptr { { ptr }, ptr, ptr, ptr, i1, ptr, ptr }, { { ptr }, ptr, ptr, ptr, i1, ptr, ptr }* %_1, i32 0, i32 6
  store ptr %_17000003, ptr%_19000022, align 8
  br label %_19000000.0
_18000000.0:
  br label %_19000000.0
_19000000.0:
  ret void
_19000002.0:
  call ptr @"_SM34scala.scalanative.runtime.package$D16throwNullPointernEO"(ptr null)
  unreachable
}

define void @"_SM26java.io.OutputStreamWriterRL20java.io.OutputStreamL24java.nio.charset.CharsetE"(ptr %_1, ptr %_2, ptr %_3) personality ptr @__gxx_personality_v0 {
_4000000.0:
  %_11000004 = icmp ne ptr %_1, null
  br i1 %_11000004, label %_11000002.0, label %_11000003.0
_11000002.0:
  %_4000002 = call dereferenceable_or_null(8) ptr @"_SM18java.util.Objects$D14requireNonNullL16java.lang.ObjectL16java.lang.ObjectEO"(ptr nonnull dereferenceable(8) @"_SM18java.util.Objects$G8instance", ptr dereferenceable_or_null(40) %_3)
  %_11000008 = icmp eq ptr %_4000002, null
  br i1 %_11000008, label %_11000006.0, label %_11000005.0
_11000005.0:
  %_11000009 = load ptr, ptr %_4000002
  %_11000010 = getelementptr { ptr, i32, i32, ptr }, { ptr, i32, i32, ptr }* %_11000009, i32 0, i32 1
  %_11000011 = load i32, ptr %_11000010
  %_11000012 = icmp sle i32 482, %_11000011
  %_11000013 = icmp sle i32 %_11000011, 483
  %_11000014 = and i1 %_11000012, %_11000013
  br i1 %_11000014, label %_11000006.0, label %_11000007.0
_11000006.0:
  %_4000004 = call dereferenceable_or_null(56) ptr @"_SM17niocharset.UTF_8$D10newEncoderL31java.nio.charset.CharsetEncoderEO"(ptr dereferenceable_or_null(40) %_4000002)
  %_4000005 = call dereferenceable_or_null(32) ptr @"_SM35java.nio.charset.CodingErrorAction$G4load"()
  %_11000015 = getelementptr { { ptr }, ptr, ptr, ptr }, { { ptr }, ptr, ptr, ptr }* %_4000005, i32 0, i32 3
  %_5000001 = load ptr, ptr %_11000015, !dereferenceable_or_null !{i64 16}
  %_4000006 = call dereferenceable_or_null(56) ptr @"_SM31java.nio.charset.CharsetEncoderD16onMalformedInputL34java.nio.charset.CodingErrorActionL31java.nio.charset.CharsetEncoderEO"(ptr dereferenceable_or_null(56) %_4000004, ptr dereferenceable_or_null(16) %_5000001)
  %_11000016 = getelementptr { { ptr }, ptr, ptr, ptr }, { { ptr }, ptr, ptr, ptr }* %_4000005, i32 0, i32 3
  %_6000001 = load ptr, ptr %_11000016, !dereferenceable_or_null !{i64 16}
  %_4000007 = call dereferenceable_or_null(56) ptr @"_SM31java.nio.charset.CharsetEncoderD21onUnmappableCharacterL34java.nio.charset.CodingErrorActionL31java.nio.charset.CharsetEncoderEO"(ptr dereferenceable_or_null(56) %_4000006, ptr dereferenceable_or_null(16) %_6000001)
  %_11000018 = getelementptr { { ptr }, ptr, ptr, ptr, i1, ptr, ptr }, { { ptr }, ptr, ptr, ptr, i1, ptr, ptr }* %_1, i32 0, i32 3
  store ptr %_2, ptr%_11000018, align 8
  %_11000020 = getelementptr { { ptr }, ptr, ptr, ptr, i1, ptr, ptr }, { { ptr }, ptr, ptr, ptr, i1, ptr, ptr }* %_1, i32 0, i32 5
  store ptr %_4000007, ptr%_11000020, align 8
  %_11000022 = getelementptr { { ptr }, ptr }, { { ptr }, ptr }* %_1, i32 0, i32 1
  store ptr %_1, ptr%_11000022, align 8
  %_11000023 = getelementptr { { ptr }, ptr, ptr, ptr, i1, ptr, ptr }, { { ptr }, ptr, ptr, ptr, i1, ptr, ptr }* %_1, i32 0, i32 3
  %_10000001 = load ptr, ptr %_11000023, !dereferenceable_or_null !{i64 8}
  %_7000003 = call dereferenceable_or_null(8) ptr @"_SM18java.util.Objects$D14requireNonNullL16java.lang.ObjectL16java.lang.ObjectEO"(ptr nonnull dereferenceable(8) @"_SM18java.util.Objects$G8instance", ptr dereferenceable_or_null(8) %_10000001)
  %_11000024 = getelementptr { { ptr }, ptr, ptr, ptr, i1, ptr, ptr }, { { ptr }, ptr, ptr, ptr, i1, ptr, ptr }* %_1, i32 0, i32 5
  %_11000001 = load ptr, ptr %_11000024, !dereferenceable_or_null !{i64 56}
  %_7000004 = call dereferenceable_or_null(8) ptr @"_SM18java.util.Objects$D14requireNonNullL16java.lang.ObjectL16java.lang.ObjectEO"(ptr nonnull dereferenceable(8) @"_SM18java.util.Objects$G8instance", ptr dereferenceable_or_null(56) %_11000001)
  %_11000026 = getelementptr { { ptr }, ptr, ptr, ptr, i1, ptr, ptr }, { { ptr }, ptr, ptr, ptr, i1, ptr, ptr }* %_1, i32 0, i32 4
  %_11000027 = zext i1 false to i8
  store i8 %_11000027, ptr%_11000026, align 1
  %_11000029 = getelementptr { { ptr }, ptr, ptr, ptr, i1, ptr, ptr }, { { ptr }, ptr, ptr, ptr, i1, ptr, ptr }* %_1, i32 0, i32 6
  store ptr @"_SM7__constG2-66", ptr%_11000029, align 8
  %_7000010 = call dereferenceable_or_null(56) ptr @"_SM20java.nio.ByteBuffer$D8allocateiL19java.nio.ByteBufferEO"(ptr nonnull dereferenceable(8) @"_SM20java.nio.ByteBuffer$G8instance", i32 4096)
  %_11000031 = getelementptr { { ptr }, ptr, ptr, ptr, i1, ptr, ptr }, { { ptr }, ptr, ptr, ptr, i1, ptr, ptr }* %_1, i32 0, i32 2
  store ptr %_7000010, ptr%_11000031, align 8
  ret void
_11000003.0:
  call ptr @"_SM34scala.scalanative.runtime.package$D16throwNullPointernEO"(ptr null)
  unreachable
_11000007.0:
  %_11000033 = phi ptr [%_4000002, %_11000005.0]
  %_11000034 = phi ptr [@"_SM24java.nio.charset.CharsetG4type", %_11000005.0]
  %_11000035 = load ptr, ptr %_11000033
  call ptr @"_SM34scala.scalanative.runtime.package$D14throwClassCastR_R_nEO"(ptr null, ptr %_11000035, ptr %_11000034)
  unreachable
}

define void @"_SM19java.io.PrintStreamD11printStringL16java.lang.StringuEPT19java.io.PrintStream"(ptr %_2, ptr %_1) personality ptr @__gxx_personality_v0 {
_3.0:
  call void @"_SM33scala.scalanative.runtime.packageD12enterMonitorL16java.lang.ObjectuEo"(ptr dereferenceable_or_null(48) %_2)
  br label %_4.0
_4.0:
  %_9 = invoke dereferenceable_or_null(24) ptr @"scalanative_GC_alloc_small"(ptr @"_SM29java.io.PrintStream$$Lambda$5G4type", i64 24) to label %_4.1 unwind label %_25.landingpad
_4.1:
  invoke void @"_SM29java.io.PrintStream$$Lambda$5RL19java.io.PrintStreamL16java.lang.StringE"(ptr nonnull dereferenceable(24) %_9, ptr dereferenceable_or_null(48) %_2, ptr dereferenceable_or_null(32) %_1) to label %_4.2 unwind label %_28.landingpad
_4.2:
  %_34 = icmp ne ptr %_2, null
  br i1 %_34, label %_31.0, label %_32.0
_31.0:
  invoke void @"_SM19java.io.PrintStreamD29ensureOpenAndTrapIOExceptionsL15scala.Function0uEPT19java.io.PrintStream"(ptr dereferenceable_or_null(48) %_2, ptr nonnull dereferenceable(24) %_9) to label %_31.1 unwind label %_38.landingpad
_31.1:
  br label %_19.0
_5.0:
  %_17 = phi ptr [%_14, %_36.0], [%_12, %_30.0], [%_10, %_26.0], [%_8, %_24.0]
  br label %_21.0
_19.0:
  call void @"_SM33scala.scalanative.runtime.packageD11exitMonitorL16java.lang.ObjectuEo"(ptr dereferenceable_or_null(48) %_2)
  br label %_6.0
_21.0:
  call void @"_SM33scala.scalanative.runtime.packageD11exitMonitorL16java.lang.ObjectuEo"(ptr dereferenceable_or_null(48) %_2)
  %_44 = icmp ne ptr %_17, null
  br i1 %_44, label %_42.0, label %_43.0
_42.0:
  call ptr @"scalanative_throw"(ptr dereferenceable_or_null(8) %_17)
  unreachable
_6.0:
  ret void
_32.0:
  invoke ptr @"_SM34scala.scalanative.runtime.package$D16throwNullPointernEO"(ptr null) to label %_32.1 unwind label %_46.landingpad
_32.1:
  unreachable
_43.0:
  call ptr @"_SM34scala.scalanative.runtime.package$D16throwNullPointernEO"(ptr null)
  unreachable
_24.0:
  %_8 = phi ptr [%_25, %_25.landingpad.succ]
  br label %_5.0
_26.0:
  %_10 = phi ptr [%_28, %_28.landingpad.succ]
  br label %_5.0
_30.0:
  %_12 = phi ptr [%_33, %_33.landingpad.succ], [%_46, %_46.landingpad.succ], [%_35, %_35.landingpad.succ]
  br label %_5.0
_36.0:
  %_14 = phi ptr [%_38, %_38.landingpad.succ]
  br label %_5.0
_25.landingpad:
  %_51 = landingpad { ptr, i32 } catch ptr @_ZTIN11scalanative16ExceptionWrapperE
  %_52 = extractvalue { ptr, i32 } %_51, 0
  %_53 = extractvalue { ptr, i32 } %_51, 1
  %_54 = call i32 @llvm.eh.typeid.for(ptr @_ZTIN11scalanative16ExceptionWrapperE)
  %_55 = icmp eq i32 %_53, %_54
  br i1 %_55, label %_25.landingpad.succ, label %_25.landingpad.fail
_25.landingpad.succ:
  %_56 = call ptr @__cxa_begin_catch(ptr %_52)
  %_58 = getelementptr ptr, ptr %_56, i32 1
  %_25 = load ptr, ptr %_58
  call void @__cxa_end_catch()br label %_24.0
_25.landingpad.fail:
  resume { ptr, i32 } %_51
_28.landingpad:
  %_59 = landingpad { ptr, i32 } catch ptr @_ZTIN11scalanative16ExceptionWrapperE
  %_60 = extractvalue { ptr, i32 } %_59, 0
  %_61 = extractvalue { ptr, i32 } %_59, 1
  %_62 = call i32 @llvm.eh.typeid.for(ptr @_ZTIN11scalanative16ExceptionWrapperE)
  %_63 = icmp eq i32 %_61, %_62
  br i1 %_63, label %_28.landingpad.succ, label %_28.landingpad.fail
_28.landingpad.succ:
  %_64 = call ptr @__cxa_begin_catch(ptr %_60)
  %_66 = getelementptr ptr, ptr %_64, i32 1
  %_28 = load ptr, ptr %_66
  call void @__cxa_end_catch()br label %_26.0
_28.landingpad.fail:
  resume { ptr, i32 } %_59
_33.landingpad:
  %_67 = landingpad { ptr, i32 } catch ptr @_ZTIN11scalanative16ExceptionWrapperE
  %_68 = extractvalue { ptr, i32 } %_67, 0
  %_69 = extractvalue { ptr, i32 } %_67, 1
  %_70 = call i32 @llvm.eh.typeid.for(ptr @_ZTIN11scalanative16ExceptionWrapperE)
  %_71 = icmp eq i32 %_69, %_70
  br i1 %_71, label %_33.landingpad.succ, label %_33.landingpad.fail
_33.landingpad.succ:
  %_72 = call ptr @__cxa_begin_catch(ptr %_68)
  %_74 = getelementptr ptr, ptr %_72, i32 1
  %_33 = load ptr, ptr %_74
  call void @__cxa_end_catch()br label %_30.0
_33.landingpad.fail:
  resume { ptr, i32 } %_67
_35.landingpad:
  %_75 = landingpad { ptr, i32 } catch ptr @_ZTIN11scalanative16ExceptionWrapperE
  %_76 = extractvalue { ptr, i32 } %_75, 0
  %_77 = extractvalue { ptr, i32 } %_75, 1
  %_78 = call i32 @llvm.eh.typeid.for(ptr @_ZTIN11scalanative16ExceptionWrapperE)
  %_79 = icmp eq i32 %_77, %_78
  br i1 %_79, label %_35.landingpad.succ, label %_35.landingpad.fail
_35.landingpad.succ:
  %_80 = call ptr @__cxa_begin_catch(ptr %_76)
  %_82 = getelementptr ptr, ptr %_80, i32 1
  %_35 = load ptr, ptr %_82
  call void @__cxa_end_catch()br label %_30.0
_35.landingpad.fail:
  resume { ptr, i32 } %_75
_38.landingpad:
  %_83 = landingpad { ptr, i32 } catch ptr @_ZTIN11scalanative16ExceptionWrapperE
  %_84 = extractvalue { ptr, i32 } %_83, 0
  %_85 = extractvalue { ptr, i32 } %_83, 1
  %_86 = call i32 @llvm.eh.typeid.for(ptr @_ZTIN11scalanative16ExceptionWrapperE)
  %_87 = icmp eq i32 %_85, %_86
  br i1 %_87, label %_38.landingpad.succ, label %_38.landingpad.fail
_38.landingpad.succ:
  %_88 = call ptr @__cxa_begin_catch(ptr %_84)
  %_90 = getelementptr ptr, ptr %_88, i32 1
  %_38 = load ptr, ptr %_90
  call void @__cxa_end_catch()br label %_36.0
_38.landingpad.fail:
  resume { ptr, i32 } %_83
_46.landingpad:
  %_91 = landingpad { ptr, i32 } catch ptr @_ZTIN11scalanative16ExceptionWrapperE
  %_92 = extractvalue { ptr, i32 } %_91, 0
  %_93 = extractvalue { ptr, i32 } %_91, 1
  %_94 = call i32 @llvm.eh.typeid.for(ptr @_ZTIN11scalanative16ExceptionWrapperE)
  %_95 = icmp eq i32 %_93, %_94
  br i1 %_95, label %_46.landingpad.succ, label %_46.landingpad.fail
_46.landingpad.succ:
  %_96 = call ptr @__cxa_begin_catch(ptr %_92)
  %_98 = getelementptr ptr, ptr %_96, i32 1
  %_46 = load ptr, ptr %_98
  call void @__cxa_end_catch()br label %_30.0
_46.landingpad.fail:
  resume { ptr, i32 } %_91
}

define void @"_SM19java.io.PrintStreamD16flush$$anonfun$1uEPT19java.io.PrintStream"(ptr %_1) personality ptr @__gxx_personality_v0 {
_2000000.0:
  %_3000004 = icmp ne ptr %_1, null
  br i1 %_3000004, label %_3000002.0, label %_3000003.0
_3000002.0:
  %_3000005 = getelementptr { { ptr }, ptr }, { { ptr }, ptr }* %_1, i32 0, i32 1
  %_3000001 = load ptr, ptr %_3000005, !dereferenceable_or_null !{i64 8}
  %_3000007 = icmp ne ptr %_3000001, null
  br i1 %_3000007, label %_3000006.0, label %_3000003.0
_3000006.0:
  %_3000008 = load ptr, ptr %_3000001
  %_3000009 = getelementptr { { ptr, i32, i32, ptr }, i32, i32, ptr, [5 x ptr] }, { { ptr, i32, i32, ptr }, i32, i32, ptr, [5 x ptr] }* %_3000008, i32 0, i32 4, i32 3
  %_2000002 = load ptr, ptr %_3000009
  call void %_2000002(ptr dereferenceable_or_null(8) %_3000001)
  ret void
_3000003.0:
  call ptr @"_SM34scala.scalanative.runtime.package$D16throwNullPointernEO"(ptr null)
  unreachable
}

define void @"_SM19java.io.PrintStreamD16trapIOExceptionsL15scala.Function0uEPT19java.io.PrintStream"(ptr %_2, ptr %_1) inlinehint personality ptr @__gxx_personality_v0 {
_3.0:
  br label %_5.0
_5.0:
  %_24 = icmp ne ptr %_1, null
  br i1 %_24, label %_21.0, label %_22.0
_21.0:
  invoke void @"_SM15scala.Function0D12apply$mcV$spuEO"(ptr dereferenceable_or_null(8) %_1) to label %_21.1 unwind label %_28.landingpad
_21.1:
  br label %_6.0
_4.0:
  %_7 = phi ptr [%_11, %_26.0], [%_9, %_20.0]
  %_33 = icmp eq ptr %_7, null
  br i1 %_33, label %_30.0, label %_31.0
_30.0:
  br label %_32.0
_31.0:
  %_34 = load ptr, ptr %_7
  %_35 = getelementptr { ptr, i32, i32, ptr }, { ptr, i32, i32, ptr }* %_34, i32 0, i32 1
  %_36 = load i32, ptr %_35
  %_37 = icmp sle i32 456, %_36
  %_38 = icmp sle i32 %_36, 465
  %_39 = and i1 %_37, %_38
  br label %_32.0
_32.0:
  %_13 = phi i1 [%_39, %_31.0], [false, %_30.0]
  br i1 %_13, label %_14.0, label %_15.0
_14.0:
  %_42 = icmp ne ptr %_2, null
  br i1 %_42, label %_40.0, label %_41.0
_40.0:
  call void @"_SM19java.io.PrintStreamD8setErroruEO"(ptr dereferenceable_or_null(48) %_2)
  br label %_6.0
_15.0:
  %_45 = icmp ne ptr %_7, null
  br i1 %_45, label %_44.0, label %_41.0
_44.0:
  call ptr @"scalanative_throw"(ptr dereferenceable_or_null(8) %_7)
  unreachable
_6.0:
  ret void
_22.0:
  invoke ptr @"_SM34scala.scalanative.runtime.package$D16throwNullPointernEO"(ptr null) to label %_22.1 unwind label %_47.landingpad
_22.1:
  unreachable
_41.0:
  call ptr @"_SM34scala.scalanative.runtime.package$D16throwNullPointernEO"(ptr null)
  unreachable
_20.0:
  %_9 = phi ptr [%_23, %_23.landingpad.succ], [%_47, %_47.landingpad.succ], [%_25, %_25.landingpad.succ]
  br label %_4.0
_26.0:
  %_11 = phi ptr [%_28, %_28.landingpad.succ]
  br label %_4.0
_23.landingpad:
  %_56 = landingpad { ptr, i32 } catch ptr @_ZTIN11scalanative16ExceptionWrapperE
  %_57 = extractvalue { ptr, i32 } %_56, 0
  %_58 = extractvalue { ptr, i32 } %_56, 1
  %_59 = call i32 @llvm.eh.typeid.for(ptr @_ZTIN11scalanative16ExceptionWrapperE)
  %_60 = icmp eq i32 %_58, %_59
  br i1 %_60, label %_23.landingpad.succ, label %_23.landingpad.fail
_23.landingpad.succ:
  %_61 = call ptr @__cxa_begin_catch(ptr %_57)
  %_63 = getelementptr ptr, ptr %_61, i32 1
  %_23 = load ptr, ptr %_63
  call void @__cxa_end_catch()br label %_20.0
_23.landingpad.fail:
  resume { ptr, i32 } %_56
_25.landingpad:
  %_64 = landingpad { ptr, i32 } catch ptr @_ZTIN11scalanative16ExceptionWrapperE
  %_65 = extractvalue { ptr, i32 } %_64, 0
  %_66 = extractvalue { ptr, i32 } %_64, 1
  %_67 = call i32 @llvm.eh.typeid.for(ptr @_ZTIN11scalanative16ExceptionWrapperE)
  %_68 = icmp eq i32 %_66, %_67
  br i1 %_68, label %_25.landingpad.succ, label %_25.landingpad.fail
_25.landingpad.succ:
  %_69 = call ptr @__cxa_begin_catch(ptr %_65)
  %_71 = getelementptr ptr, ptr %_69, i32 1
  %_25 = load ptr, ptr %_71
  call void @__cxa_end_catch()br label %_20.0
_25.landingpad.fail:
  resume { ptr, i32 } %_64
_28.landingpad:
  %_72 = landingpad { ptr, i32 } catch ptr @_ZTIN11scalanative16ExceptionWrapperE
  %_73 = extractvalue { ptr, i32 } %_72, 0
  %_74 = extractvalue { ptr, i32 } %_72, 1
  %_75 = call i32 @llvm.eh.typeid.for(ptr @_ZTIN11scalanative16ExceptionWrapperE)
  %_76 = icmp eq i32 %_74, %_75
  br i1 %_76, label %_28.landingpad.succ, label %_28.landingpad.fail
_28.landingpad.succ:
  %_77 = call ptr @__cxa_begin_catch(ptr %_73)
  %_79 = getelementptr ptr, ptr %_77, i32 1
  %_28 = load ptr, ptr %_79
  call void @__cxa_end_catch()br label %_26.0
_28.landingpad.fail:
  resume { ptr, i32 } %_72
_47.landingpad:
  %_80 = landingpad { ptr, i32 } catch ptr @_ZTIN11scalanative16ExceptionWrapperE
  %_81 = extractvalue { ptr, i32 } %_80, 0
  %_82 = extractvalue { ptr, i32 } %_80, 1
  %_83 = call i32 @llvm.eh.typeid.for(ptr @_ZTIN11scalanative16ExceptionWrapperE)
  %_84 = icmp eq i32 %_82, %_83
  br i1 %_84, label %_47.landingpad.succ, label %_47.landingpad.fail
_47.landingpad.succ:
  %_85 = call ptr @__cxa_begin_catch(ptr %_81)
  %_87 = getelementptr ptr, ptr %_85, i32 1
  %_47 = load ptr, ptr %_87
  call void @__cxa_end_catch()br label %_20.0
_47.landingpad.fail:
  resume { ptr, i32 } %_80
}

define void @"_SM19java.io.PrintStreamD16write$$anonfun$2LAb_iiuEPT19java.io.PrintStream"(ptr %_1, ptr %_2, i32 %_3, i32 %_4) personality ptr @__gxx_personality_v0 {
_5000000.0:
  %_9000003 = icmp ne ptr %_1, null
  br i1 %_9000003, label %_9000001.0, label %_9000002.0
_9000001.0:
  %_9000004 = getelementptr { { ptr }, ptr }, { { ptr }, ptr }* %_1, i32 0, i32 1
  %_6000001 = load ptr, ptr %_9000004, !dereferenceable_or_null !{i64 8}
  %_9000006 = icmp ne ptr %_6000001, null
  br i1 %_9000006, label %_9000005.0, label %_9000002.0
_9000005.0:
  %_9000007 = load ptr, ptr %_6000001
  %_9000008 = getelementptr { { ptr, i32, i32, ptr }, i32, i32, ptr, [5 x ptr] }, { { ptr, i32, i32, ptr }, i32, i32, ptr, [5 x ptr] }* %_9000007, i32 0, i32 4, i32 4
  %_5000002 = load ptr, ptr %_9000008
  call void %_5000002(ptr dereferenceable_or_null(8) %_6000001, ptr dereferenceable_or_null(16) %_2, i32 %_3, i32 %_4)
  %_9000010 = getelementptr { { ptr }, ptr, ptr, ptr, i64, i1, i1, i1 }, { { ptr }, ptr, ptr, ptr, i64, i1, i1, i1 }* %_1, i32 0, i32 5
  %_9000011 = load i8, ptr %_9000010
  %_5000004 = trunc i8 %_9000011 to i1
  br i1 %_5000004, label %_7000000.0, label %_8000000.0
_7000000.0:
  call void @"_SM19java.io.PrintStreamD5flushuEO"(ptr dereferenceable_or_null(48) %_1)
  br label %_9000000.0
_8000000.0:
  br label %_9000000.0
_9000000.0:
  ret void
_9000002.0:
  call ptr @"_SM34scala.scalanative.runtime.package$D16throwNullPointernEO"(ptr null)
  unreachable
}

define void @"_SM19java.io.PrintStreamD18println$$anonfun$1uEPT19java.io.PrintStream"(ptr %_1) personality ptr @__gxx_personality_v0 {
_2000000.0:
  %_5000003 = icmp ne ptr %_1, null
  br i1 %_5000003, label %_5000001.0, label %_5000002.0
_5000001.0:
  %_2000001 = call dereferenceable_or_null(56) ptr @"_SM19java.io.PrintStreamD7encoderL26java.io.OutputStreamWriterEPT19java.io.PrintStream"(ptr dereferenceable_or_null(48) %_1)
  %_2000003 = call dereferenceable_or_null(32) ptr @"_SM17java.lang.System$D13lineSeparatorL16java.lang.StringEO"(ptr nonnull dereferenceable(8) @"_SM17java.lang.System$G8instance")
  call void @"_SM14java.io.WriterD5writeL16java.lang.StringuEO"(ptr dereferenceable_or_null(56) %_2000001, ptr dereferenceable_or_null(32) %_2000003)
  %_2000005 = call dereferenceable_or_null(56) ptr @"_SM19java.io.PrintStreamD7encoderL26java.io.OutputStreamWriterEPT19java.io.PrintStream"(ptr dereferenceable_or_null(48) %_1)
  call void @"_SM26java.io.OutputStreamWriterD11flushBufferuEO"(ptr dereferenceable_or_null(56) %_2000005)
  %_5000006 = getelementptr { { ptr }, ptr, ptr, ptr, i64, i1, i1, i1 }, { { ptr }, ptr, ptr, ptr, i64, i1, i1, i1 }* %_1, i32 0, i32 5
  %_5000007 = load i8, ptr %_5000006
  %_2000007 = trunc i8 %_5000007 to i1
  br i1 %_2000007, label %_3000000.0, label %_4000000.0
_3000000.0:
  call void @"_SM19java.io.PrintStreamD5flushuEO"(ptr dereferenceable_or_null(48) %_1)
  br label %_5000000.0
_4000000.0:
  br label %_5000000.0
_5000000.0:
  ret void
_5000002.0:
  call ptr @"_SM34scala.scalanative.runtime.package$D16throwNullPointernEO"(ptr null)
  unreachable
}

define void @"_SM19java.io.PrintStreamD22printString$$anonfun$1L16java.lang.StringuEPT19java.io.PrintStream"(ptr %_1, ptr %_2) personality ptr @__gxx_personality_v0 {
_3000000.0:
  %_3000007 = icmp ne ptr %_1, null
  br i1 %_3000007, label %_3000005.0, label %_3000006.0
_3000005.0:
  %_3000001 = call dereferenceable_or_null(56) ptr @"_SM19java.io.PrintStreamD7encoderL26java.io.OutputStreamWriterEPT19java.io.PrintStream"(ptr dereferenceable_or_null(48) %_1)
  call void @"_SM14java.io.WriterD5writeL16java.lang.StringuEO"(ptr dereferenceable_or_null(56) %_3000001, ptr dereferenceable_or_null(32) %_2)
  %_3000003 = call dereferenceable_or_null(56) ptr @"_SM19java.io.PrintStreamD7encoderL26java.io.OutputStreamWriterEPT19java.io.PrintStream"(ptr dereferenceable_or_null(48) %_1)
  call void @"_SM26java.io.OutputStreamWriterD11flushBufferuEO"(ptr dereferenceable_or_null(56) %_3000003)
  ret void
_3000006.0:
  call ptr @"_SM34scala.scalanative.runtime.package$D16throwNullPointernEO"(ptr null)
  unreachable
}

define void @"_SM19java.io.PrintStreamD29ensureOpenAndTrapIOExceptionsL15scala.Function0uEPT19java.io.PrintStream"(ptr %_1, ptr %_2) inlinehint personality ptr @__gxx_personality_v0 {
_3000000.0:
  %_6000003 = icmp ne ptr %_1, null
  br i1 %_6000003, label %_6000001.0, label %_6000002.0
_6000001.0:
  %_6000004 = getelementptr { { ptr }, ptr, ptr, ptr, i64, i1, i1, i1 }, { { ptr }, ptr, ptr, ptr, i64, i1, i1, i1 }* %_1, i32 0, i32 7
  %_6000005 = load i8, ptr %_6000004
  %_3000001 = trunc i8 %_6000005 to i1
  br i1 %_3000001, label %_4000000.0, label %_5000000.0
_4000000.0:
  call void @"_SM19java.io.PrintStreamD8setErroruEO"(ptr dereferenceable_or_null(48) %_1)
  br label %_6000000.0
_5000000.0:
  call void @"_SM19java.io.PrintStreamD16trapIOExceptionsL15scala.Function0uEPT19java.io.PrintStream"(ptr dereferenceable_or_null(48) %_1, ptr dereferenceable_or_null(8) %_2)
  br label %_6000000.0
_6000000.0:
  ret void
_6000002.0:
  call ptr @"_SM34scala.scalanative.runtime.package$D16throwNullPointernEO"(ptr null)
  unreachable
}

define void @"_SM19java.io.PrintStreamD5flushuEO"(ptr %_1) personality ptr @__gxx_personality_v0 {
_2.0:
  call void @"_SM33scala.scalanative.runtime.packageD12enterMonitorL16java.lang.ObjectuEo"(ptr dereferenceable_or_null(48) %_1)
  br label %_3.0
_3.0:
  %_8 = invoke dereferenceable_or_null(16) ptr @"scalanative_GC_alloc_small"(ptr @"_SM29java.io.PrintStream$$Lambda$1G4type", i64 16) to label %_3.1 unwind label %_24.landingpad
_3.1:
  invoke void @"_SM29java.io.PrintStream$$Lambda$1RL19java.io.PrintStreamE"(ptr nonnull dereferenceable(16) %_8, ptr dereferenceable_or_null(48) %_1) to label %_3.2 unwind label %_27.landingpad
_3.2:
  %_33 = icmp ne ptr %_1, null
  br i1 %_33, label %_30.0, label %_31.0
_30.0:
  invoke void @"_SM19java.io.PrintStreamD29ensureOpenAndTrapIOExceptionsL15scala.Function0uEPT19java.io.PrintStream"(ptr dereferenceable_or_null(48) %_1, ptr nonnull dereferenceable(16) %_8) to label %_30.1 unwind label %_37.landingpad
_30.1:
  br label %_18.0
_4.0:
  %_16 = phi ptr [%_13, %_35.0], [%_11, %_29.0], [%_9, %_25.0], [%_7, %_23.0]
  br label %_20.0
_18.0:
  call void @"_SM33scala.scalanative.runtime.packageD11exitMonitorL16java.lang.ObjectuEo"(ptr dereferenceable_or_null(48) %_1)
  br label %_5.0
_20.0:
  call void @"_SM33scala.scalanative.runtime.packageD11exitMonitorL16java.lang.ObjectuEo"(ptr dereferenceable_or_null(48) %_1)
  %_43 = icmp ne ptr %_16, null
  br i1 %_43, label %_41.0, label %_42.0
_41.0:
  call ptr @"scalanative_throw"(ptr dereferenceable_or_null(8) %_16)
  unreachable
_5.0:
  ret void
_31.0:
  invoke ptr @"_SM34scala.scalanative.runtime.package$D16throwNullPointernEO"(ptr null) to label %_31.1 unwind label %_45.landingpad
_31.1:
  unreachable
_42.0:
  call ptr @"_SM34scala.scalanative.runtime.package$D16throwNullPointernEO"(ptr null)
  unreachable
_23.0:
  %_7 = phi ptr [%_24, %_24.landingpad.succ]
  br label %_4.0
_25.0:
  %_9 = phi ptr [%_27, %_27.landingpad.succ]
  br label %_4.0
_29.0:
  %_11 = phi ptr [%_32, %_32.landingpad.succ], [%_45, %_45.landingpad.succ], [%_34, %_34.landingpad.succ]
  br label %_4.0
_35.0:
  %_13 = phi ptr [%_37, %_37.landingpad.succ]
  br label %_4.0
_24.landingpad:
  %_50 = landingpad { ptr, i32 } catch ptr @_ZTIN11scalanative16ExceptionWrapperE
  %_51 = extractvalue { ptr, i32 } %_50, 0
  %_52 = extractvalue { ptr, i32 } %_50, 1
  %_53 = call i32 @llvm.eh.typeid.for(ptr @_ZTIN11scalanative16ExceptionWrapperE)
  %_54 = icmp eq i32 %_52, %_53
  br i1 %_54, label %_24.landingpad.succ, label %_24.landingpad.fail
_24.landingpad.succ:
  %_55 = call ptr @__cxa_begin_catch(ptr %_51)
  %_57 = getelementptr ptr, ptr %_55, i32 1
  %_24 = load ptr, ptr %_57
  call void @__cxa_end_catch()br label %_23.0
_24.landingpad.fail:
  resume { ptr, i32 } %_50
_27.landingpad:
  %_58 = landingpad { ptr, i32 } catch ptr @_ZTIN11scalanative16ExceptionWrapperE
  %_59 = extractvalue { ptr, i32 } %_58, 0
  %_60 = extractvalue { ptr, i32 } %_58, 1
  %_61 = call i32 @llvm.eh.typeid.for(ptr @_ZTIN11scalanative16ExceptionWrapperE)
  %_62 = icmp eq i32 %_60, %_61
  br i1 %_62, label %_27.landingpad.succ, label %_27.landingpad.fail
_27.landingpad.succ:
  %_63 = call ptr @__cxa_begin_catch(ptr %_59)
  %_65 = getelementptr ptr, ptr %_63, i32 1
  %_27 = load ptr, ptr %_65
  call void @__cxa_end_catch()br label %_25.0
_27.landingpad.fail:
  resume { ptr, i32 } %_58
_32.landingpad:
  %_66 = landingpad { ptr, i32 } catch ptr @_ZTIN11scalanative16ExceptionWrapperE
  %_67 = extractvalue { ptr, i32 } %_66, 0
  %_68 = extractvalue { ptr, i32 } %_66, 1
  %_69 = call i32 @llvm.eh.typeid.for(ptr @_ZTIN11scalanative16ExceptionWrapperE)
  %_70 = icmp eq i32 %_68, %_69
  br i1 %_70, label %_32.landingpad.succ, label %_32.landingpad.fail
_32.landingpad.succ:
  %_71 = call ptr @__cxa_begin_catch(ptr %_67)
  %_73 = getelementptr ptr, ptr %_71, i32 1
  %_32 = load ptr, ptr %_73
  call void @__cxa_end_catch()br label %_29.0
_32.landingpad.fail:
  resume { ptr, i32 } %_66
_34.landingpad:
  %_74 = landingpad { ptr, i32 } catch ptr @_ZTIN11scalanative16ExceptionWrapperE
  %_75 = extractvalue { ptr, i32 } %_74, 0
  %_76 = extractvalue { ptr, i32 } %_74, 1
  %_77 = call i32 @llvm.eh.typeid.for(ptr @_ZTIN11scalanative16ExceptionWrapperE)
  %_78 = icmp eq i32 %_76, %_77
  br i1 %_78, label %_34.landingpad.succ, label %_34.landingpad.fail
_34.landingpad.succ:
  %_79 = call ptr @__cxa_begin_catch(ptr %_75)
  %_81 = getelementptr ptr, ptr %_79, i32 1
  %_34 = load ptr, ptr %_81
  call void @__cxa_end_catch()br label %_29.0
_34.landingpad.fail:
  resume { ptr, i32 } %_74
_37.landingpad:
  %_82 = landingpad { ptr, i32 } catch ptr @_ZTIN11scalanative16ExceptionWrapperE
  %_83 = extractvalue { ptr, i32 } %_82, 0
  %_84 = extractvalue { ptr, i32 } %_82, 1
  %_85 = call i32 @llvm.eh.typeid.for(ptr @_ZTIN11scalanative16ExceptionWrapperE)
  %_86 = icmp eq i32 %_84, %_85
  br i1 %_86, label %_37.landingpad.succ, label %_37.landingpad.fail
_37.landingpad.succ:
  %_87 = call ptr @__cxa_begin_catch(ptr %_83)
  %_89 = getelementptr ptr, ptr %_87, i32 1
  %_37 = load ptr, ptr %_89
  call void @__cxa_end_catch()br label %_35.0
_37.landingpad.fail:
  resume { ptr, i32 } %_82
_45.landingpad:
  %_90 = landingpad { ptr, i32 } catch ptr @_ZTIN11scalanative16ExceptionWrapperE
  %_91 = extractvalue { ptr, i32 } %_90, 0
  %_92 = extractvalue { ptr, i32 } %_90, 1
  %_93 = call i32 @llvm.eh.typeid.for(ptr @_ZTIN11scalanative16ExceptionWrapperE)
  %_94 = icmp eq i32 %_92, %_93
  br i1 %_94, label %_45.landingpad.succ, label %_45.landingpad.fail
_45.landingpad.succ:
  %_95 = call ptr @__cxa_begin_catch(ptr %_91)
  %_97 = getelementptr ptr, ptr %_95, i32 1
  %_45 = load ptr, ptr %_97
  call void @__cxa_end_catch()br label %_29.0
_45.landingpad.fail:
  resume { ptr, i32 } %_90
}

define void @"_SM19java.io.PrintStreamD5printL16java.lang.ObjectuEO"(ptr %_1, ptr %_2) personality ptr @__gxx_personality_v0 {
_3000000.0:
  %_3000005 = icmp ne ptr %_1, null
  br i1 %_3000005, label %_3000003.0, label %_3000004.0
_3000003.0:
  %_3000001 = call dereferenceable_or_null(32) ptr @"_SM16java.lang.StringD7valueOfL16java.lang.ObjectL16java.lang.StringEo"(ptr dereferenceable_or_null(8) %_2)
  call void @"_SM19java.io.PrintStreamD11printStringL16java.lang.StringuEPT19java.io.PrintStream"(ptr dereferenceable_or_null(48) %_1, ptr dereferenceable_or_null(32) %_3000001)
  ret void
_3000004.0:
  call ptr @"_SM34scala.scalanative.runtime.package$D16throwNullPointernEO"(ptr null)
  unreachable
}

define void @"_SM19java.io.PrintStreamD5printL16java.lang.StringuEO"(ptr %_1, ptr %_2) personality ptr @__gxx_personality_v0 {
_3000000.0:
  %_6000005 = icmp ne ptr %_1, null
  br i1 %_6000005, label %_6000003.0, label %_6000004.0
_6000003.0:
  %_3000002 = icmp eq ptr %_2, null
  br i1 %_3000002, label %_4000000.0, label %_5000000.0
_4000000.0:
  br label %_6000000.0
_5000000.0:
  br label %_6000000.0
_6000000.0:
  %_6000001 = phi ptr [%_2, %_5000000.0], [@"_SM7__constG2-68", %_4000000.0]
  call void @"_SM19java.io.PrintStreamD11printStringL16java.lang.StringuEPT19java.io.PrintStream"(ptr dereferenceable_or_null(48) %_1, ptr dereferenceable_or_null(32) %_6000001)
  ret void
_6000004.0:
  call ptr @"_SM34scala.scalanative.runtime.package$D16throwNullPointernEO"(ptr null)
  unreachable
}

define void @"_SM19java.io.PrintStreamD5writeLAb_iiuEO"(ptr %_4, ptr %_1, i32 %_2, i32 %_3) personality ptr @__gxx_personality_v0 {
_5.0:
  call void @"_SM33scala.scalanative.runtime.packageD12enterMonitorL16java.lang.ObjectuEo"(ptr dereferenceable_or_null(48) %_4)
  br label %_6.0
_6.0:
  %_11 = invoke dereferenceable_or_null(32) ptr @"scalanative_GC_alloc_small"(ptr @"_SM29java.io.PrintStream$$Lambda$4G4type", i64 32) to label %_6.1 unwind label %_27.landingpad
_6.1:
  invoke void @"_SM29java.io.PrintStream$$Lambda$4RL19java.io.PrintStreamLAb_iiE"(ptr nonnull dereferenceable(32) %_11, ptr dereferenceable_or_null(48) %_4, ptr dereferenceable_or_null(16) %_1, i32 %_2, i32 %_3) to label %_6.2 unwind label %_30.landingpad
_6.2:
  %_36 = icmp ne ptr %_4, null
  br i1 %_36, label %_33.0, label %_34.0
_33.0:
  invoke void @"_SM19java.io.PrintStreamD29ensureOpenAndTrapIOExceptionsL15scala.Function0uEPT19java.io.PrintStream"(ptr dereferenceable_or_null(48) %_4, ptr nonnull dereferenceable(32) %_11) to label %_33.1 unwind label %_40.landingpad
_33.1:
  br label %_21.0
_7.0:
  %_19 = phi ptr [%_16, %_38.0], [%_14, %_32.0], [%_12, %_28.0], [%_10, %_26.0]
  br label %_23.0
_21.0:
  call void @"_SM33scala.scalanative.runtime.packageD11exitMonitorL16java.lang.ObjectuEo"(ptr dereferenceable_or_null(48) %_4)
  br label %_8.0
_23.0:
  call void @"_SM33scala.scalanative.runtime.packageD11exitMonitorL16java.lang.ObjectuEo"(ptr dereferenceable_or_null(48) %_4)
  %_46 = icmp ne ptr %_19, null
  br i1 %_46, label %_44.0, label %_45.0
_44.0:
  call ptr @"scalanative_throw"(ptr dereferenceable_or_null(8) %_19)
  unreachable
_8.0:
  ret void
_34.0:
  invoke ptr @"_SM34scala.scalanative.runtime.package$D16throwNullPointernEO"(ptr null) to label %_34.1 unwind label %_48.landingpad
_34.1:
  unreachable
_45.0:
  call ptr @"_SM34scala.scalanative.runtime.package$D16throwNullPointernEO"(ptr null)
  unreachable
_26.0:
  %_10 = phi ptr [%_27, %_27.landingpad.succ]
  br label %_7.0
_28.0:
  %_12 = phi ptr [%_30, %_30.landingpad.succ]
  br label %_7.0
_32.0:
  %_14 = phi ptr [%_35, %_35.landingpad.succ], [%_48, %_48.landingpad.succ], [%_37, %_37.landingpad.succ]
  br label %_7.0
_38.0:
  %_16 = phi ptr [%_40, %_40.landingpad.succ]
  br label %_7.0
_27.landingpad:
  %_53 = landingpad { ptr, i32 } catch ptr @_ZTIN11scalanative16ExceptionWrapperE
  %_54 = extractvalue { ptr, i32 } %_53, 0
  %_55 = extractvalue { ptr, i32 } %_53, 1
  %_56 = call i32 @llvm.eh.typeid.for(ptr @_ZTIN11scalanative16ExceptionWrapperE)
  %_57 = icmp eq i32 %_55, %_56
  br i1 %_57, label %_27.landingpad.succ, label %_27.landingpad.fail
_27.landingpad.succ:
  %_58 = call ptr @__cxa_begin_catch(ptr %_54)
  %_60 = getelementptr ptr, ptr %_58, i32 1
  %_27 = load ptr, ptr %_60
  call void @__cxa_end_catch()br label %_26.0
_27.landingpad.fail:
  resume { ptr, i32 } %_53
_30.landingpad:
  %_61 = landingpad { ptr, i32 } catch ptr @_ZTIN11scalanative16ExceptionWrapperE
  %_62 = extractvalue { ptr, i32 } %_61, 0
  %_63 = extractvalue { ptr, i32 } %_61, 1
  %_64 = call i32 @llvm.eh.typeid.for(ptr @_ZTIN11scalanative16ExceptionWrapperE)
  %_65 = icmp eq i32 %_63, %_64
  br i1 %_65, label %_30.landingpad.succ, label %_30.landingpad.fail
_30.landingpad.succ:
  %_66 = call ptr @__cxa_begin_catch(ptr %_62)
  %_68 = getelementptr ptr, ptr %_66, i32 1
  %_30 = load ptr, ptr %_68
  call void @__cxa_end_catch()br label %_28.0
_30.landingpad.fail:
  resume { ptr, i32 } %_61
_35.landingpad:
  %_69 = landingpad { ptr, i32 } catch ptr @_ZTIN11scalanative16ExceptionWrapperE
  %_70 = extractvalue { ptr, i32 } %_69, 0
  %_71 = extractvalue { ptr, i32 } %_69, 1
  %_72 = call i32 @llvm.eh.typeid.for(ptr @_ZTIN11scalanative16ExceptionWrapperE)
  %_73 = icmp eq i32 %_71, %_72
  br i1 %_73, label %_35.landingpad.succ, label %_35.landingpad.fail
_35.landingpad.succ:
  %_74 = call ptr @__cxa_begin_catch(ptr %_70)
  %_76 = getelementptr ptr, ptr %_74, i32 1
  %_35 = load ptr, ptr %_76
  call void @__cxa_end_catch()br label %_32.0
_35.landingpad.fail:
  resume { ptr, i32 } %_69
_37.landingpad:
  %_77 = landingpad { ptr, i32 } catch ptr @_ZTIN11scalanative16ExceptionWrapperE
  %_78 = extractvalue { ptr, i32 } %_77, 0
  %_79 = extractvalue { ptr, i32 } %_77, 1
  %_80 = call i32 @llvm.eh.typeid.for(ptr @_ZTIN11scalanative16ExceptionWrapperE)
  %_81 = icmp eq i32 %_79, %_80
  br i1 %_81, label %_37.landingpad.succ, label %_37.landingpad.fail
_37.landingpad.succ:
  %_82 = call ptr @__cxa_begin_catch(ptr %_78)
  %_84 = getelementptr ptr, ptr %_82, i32 1
  %_37 = load ptr, ptr %_84
  call void @__cxa_end_catch()br label %_32.0
_37.landingpad.fail:
  resume { ptr, i32 } %_77
_40.landingpad:
  %_85 = landingpad { ptr, i32 } catch ptr @_ZTIN11scalanative16ExceptionWrapperE
  %_86 = extractvalue { ptr, i32 } %_85, 0
  %_87 = extractvalue { ptr, i32 } %_85, 1
  %_88 = call i32 @llvm.eh.typeid.for(ptr @_ZTIN11scalanative16ExceptionWrapperE)
  %_89 = icmp eq i32 %_87, %_88
  br i1 %_89, label %_40.landingpad.succ, label %_40.landingpad.fail
_40.landingpad.succ:
  %_90 = call ptr @__cxa_begin_catch(ptr %_86)
  %_92 = getelementptr ptr, ptr %_90, i32 1
  %_40 = load ptr, ptr %_92
  call void @__cxa_end_catch()br label %_38.0
_40.landingpad.fail:
  resume { ptr, i32 } %_85
_48.landingpad:
  %_93 = landingpad { ptr, i32 } catch ptr @_ZTIN11scalanative16ExceptionWrapperE
  %_94 = extractvalue { ptr, i32 } %_93, 0
  %_95 = extractvalue { ptr, i32 } %_93, 1
  %_96 = call i32 @llvm.eh.typeid.for(ptr @_ZTIN11scalanative16ExceptionWrapperE)
  %_97 = icmp eq i32 %_95, %_96
  br i1 %_97, label %_48.landingpad.succ, label %_48.landingpad.fail
_48.landingpad.succ:
  %_98 = call ptr @__cxa_begin_catch(ptr %_94)
  %_100 = getelementptr ptr, ptr %_98, i32 1
  %_48 = load ptr, ptr %_100
  call void @__cxa_end_catch()br label %_32.0
_48.landingpad.fail:
  resume { ptr, i32 } %_93
}

define dereferenceable_or_null(48) ptr @"_SM19java.io.PrintStreamD6appendL22java.lang.CharSequenceL19java.io.PrintStreamEO"(ptr %_1, ptr %_2) personality ptr @__gxx_personality_v0 {
_3000000.0:
  %_6000005 = icmp ne ptr %_1, null
  br i1 %_6000005, label %_6000003.0, label %_6000004.0
_6000003.0:
  %_3000002 = icmp eq ptr %_2, null
  br i1 %_3000002, label %_4000000.0, label %_5000000.0
_4000000.0:
  br label %_6000000.0
_5000000.0:
  %_6000007 = icmp ne ptr %_2, null
  br i1 %_6000007, label %_6000006.0, label %_6000004.0
_6000006.0:
  %_6000008 = load ptr, ptr %_2
  %_6000009 = getelementptr { { ptr, i32, i32, ptr }, i32, i32, ptr, [3 x ptr] }, { { ptr, i32, i32, ptr }, i32, i32, ptr, [3 x ptr] }* %_6000008, i32 0, i32 4, i32 1
  %_5000002 = load ptr, ptr %_6000009
  %_5000003 = call dereferenceable_or_null(32) ptr %_5000002(ptr dereferenceable_or_null(8) %_2)
  br label %_6000000.0
_6000000.0:
  %_6000001 = phi ptr [%_5000003, %_6000006.0], [@"_SM7__constG2-68", %_4000000.0]
  call void @"_SM19java.io.PrintStreamD5printL16java.lang.StringuEO"(ptr dereferenceable_or_null(48) %_1, ptr dereferenceable_or_null(32) %_6000001)
  ret ptr %_1
_6000004.0:
  call ptr @"_SM34scala.scalanative.runtime.package$D16throwNullPointernEO"(ptr null)
  unreachable
}

define dereferenceable_or_null(48) ptr @"_SM19java.io.PrintStreamD6appendL22java.lang.CharSequenceL20java.lang.AppendableEO"(ptr %_1, ptr %_2) alwaysinline personality ptr @__gxx_personality_v0 {
_3000000.0:
  %_3000004 = icmp ne ptr %_1, null
  br i1 %_3000004, label %_3000002.0, label %_3000003.0
_3000002.0:
  %_3000001 = call dereferenceable_or_null(48) ptr @"_SM19java.io.PrintStreamD6appendL22java.lang.CharSequenceL19java.io.PrintStreamEO"(ptr dereferenceable_or_null(48) %_1, ptr dereferenceable_or_null(8) %_2)
  ret ptr %_3000001
_3000003.0:
  call ptr @"_SM34scala.scalanative.runtime.package$D16throwNullPointernEO"(ptr null)
  unreachable
}

define dereferenceable_or_null(56) ptr @"_SM19java.io.PrintStreamD7encoderL26java.io.OutputStreamWriterEPT19java.io.PrintStream"(ptr %_1) alwaysinline personality ptr @__gxx_personality_v0 {
_2.0:
  br label %_3.0
_3.0:
  br i1 true, label %_4.0, label %_5.0
_4.0:
  %_90 = icmp ne ptr %_1, null
  br i1 %_90, label %_88.0, label %_89.0
_88.0:
  %_91 = getelementptr { { ptr }, ptr, ptr, ptr, i64, i1, i1, i1 }, { { ptr }, ptr, ptr, ptr, i64, i1, i1, i1 }* %_1, i32 0, i32 4
  %_9 = call i64 @"_SM35scala.scalanative.runtime.LazyVals$D3getR_jEO"(ptr nonnull dereferenceable(8) @"_SM35scala.scalanative.runtime.LazyVals$G8instance", ptr %_91)
  %_12 = call i64 @"_SM23scala.runtime.LazyVals$D5STATEjijEO"(ptr nonnull dereferenceable(8) @"_SM23scala.runtime.LazyVals$G8instance", i64 %_9, i32 0)
  %_17 = sext i32 3 to i64
  %_18 = icmp eq i64 %_12, %_17
  br i1 %_18, label %_13.0, label %_14.0
_13.0:
  %_92 = getelementptr { { ptr }, ptr, ptr, ptr, i64, i1, i1, i1 }, { { ptr }, ptr, ptr, ptr, i64, i1, i1, i1 }* %_1, i32 0, i32 3
  %_19 = load ptr, ptr %_92, !dereferenceable_or_null !{i64 56}
  ret ptr %_19
_14.0:
  %_25 = sext i32 0 to i64
  %_26 = icmp eq i64 %_12, %_25
  br i1 %_26, label %_21.0, label %_22.0
_21.0:
  %_93 = getelementptr { { ptr }, ptr, ptr, ptr, i64, i1, i1, i1 }, { { ptr }, ptr, ptr, ptr, i64, i1, i1, i1 }* %_1, i32 0, i32 4
  %_34 = call i1 @"_SM35scala.scalanative.runtime.LazyVals$D3CASR_jiizEO"(ptr nonnull dereferenceable(8) @"_SM35scala.scalanative.runtime.LazyVals$G8instance", ptr %_93, i64 %_9, i32 1, i32 0)
  br i1 %_34, label %_27.0, label %_28.0
_27.0:
  br label %_36.0
_36.0:
  %_96 = getelementptr { { ptr }, ptr, ptr, ptr, i64, i1, i1, i1 }, { { ptr }, ptr, ptr, ptr, i64, i1, i1, i1 }* %_1, i32 0, i32 2
  %_45 = load ptr, ptr %_96, !dereferenceable_or_null !{i64 40}
  %_47 = icmp eq ptr %_45, null
  br i1 %_47, label %_40.0, label %_41.0
_40.0:
  %_53 = invoke dereferenceable_or_null(40) ptr @"_SM25java.nio.charset.Charset$D14defaultCharsetL24java.nio.charset.CharsetEO"(ptr nonnull dereferenceable(8) @"_SM25java.nio.charset.Charset$G8instance") to label %_40.1 unwind label %_105.landingpad
_40.1:
  br label %_42.0
_41.0:
  %_108 = getelementptr { { ptr }, ptr, ptr, ptr, i64, i1, i1, i1 }, { { ptr }, ptr, ptr, ptr, i64, i1, i1, i1 }* %_1, i32 0, i32 2
  %_55 = load ptr, ptr %_108, !dereferenceable_or_null !{i64 40}
  br label %_42.0
_42.0:
  %_43 = phi ptr [%_55, %_41.0], [%_53, %_40.1]
  %_57 = invoke dereferenceable_or_null(56) ptr @"scalanative_GC_alloc_small"(ptr @"_SM26java.io.OutputStreamWriterG4type", i64 56) to label %_42.1 unwind label %_111.landingpad
_42.1:
  invoke void @"_SM26java.io.OutputStreamWriterRL20java.io.OutputStreamL24java.nio.charset.CharsetE"(ptr nonnull dereferenceable(56) %_57, ptr dereferenceable_or_null(48) %_1, ptr dereferenceable_or_null(40) %_43) to label %_42.2 unwind label %_114.landingpad
_42.2:
  %_119 = getelementptr { { ptr }, ptr, ptr, ptr, i64, i1, i1, i1 }, { { ptr }, ptr, ptr, ptr, i64, i1, i1, i1 }* %_1, i32 0, i32 3
  store ptr %_57, ptr%_119, align 8
  %_126 = getelementptr { { ptr }, ptr, ptr, ptr, i64, i1, i1, i1 }, { { ptr }, ptr, ptr, ptr, i64, i1, i1, i1 }* %_1, i32 0, i32 4
  invoke void @"_SM35scala.scalanative.runtime.LazyVals$D7setFlagR_iiuEO"(ptr nonnull dereferenceable(8) @"_SM35scala.scalanative.runtime.LazyVals$G8instance", ptr %_126, i32 3, i32 0) to label %_42.3 unwind label %_132.landingpad
_42.3:
  ret ptr %_57
_35.0:
  %_38 = phi ptr [%_68, %_130.0], [%_66, %_128.0], [%_64, %_124.0], [%_62, %_122.0], [%_60, %_116.0], [%_58, %_112.0], [%_56, %_110.0], [%_54, %_106.0], [%_52, %_104.0], [%_50, %_102.0], [%_48, %_100.0], [%_46, %_98.0], [%_44, %_94.0]
  %_137 = icmp eq ptr %_38, null
  br i1 %_137, label %_134.0, label %_135.0
_134.0:
  br label %_136.0
_135.0:
  %_138 = load ptr, ptr %_38
  %_139 = getelementptr { ptr, i32, i32, ptr }, { ptr, i32, i32, ptr }* %_138, i32 0, i32 1
  %_140 = load i32, ptr %_139
  %_141 = icmp sle i32 417, %_140
  %_142 = icmp sle i32 %_140, 474
  %_143 = and i1 %_141, %_142
  br label %_136.0
_136.0:
  %_71 = phi i1 [%_143, %_135.0], [false, %_134.0]
  br i1 %_71, label %_72.0, label %_73.0
_72.0:
  %_147 = icmp eq ptr %_38, null
  br i1 %_147, label %_145.0, label %_144.0
_144.0:
  %_148 = load ptr, ptr %_38
  %_149 = getelementptr { ptr, i32, i32, ptr }, { ptr, i32, i32, ptr }* %_148, i32 0, i32 1
  %_150 = load i32, ptr %_149
  %_151 = icmp sle i32 417, %_150
  %_152 = icmp sle i32 %_150, 474
  %_153 = and i1 %_151, %_152
  br i1 %_153, label %_145.0, label %_146.0
_145.0:
  %_154 = getelementptr { { ptr }, ptr, ptr, ptr, i64, i1, i1, i1 }, { { ptr }, ptr, ptr, ptr, i64, i1, i1, i1 }* %_1, i32 0, i32 4
  call void @"_SM35scala.scalanative.runtime.LazyVals$D7setFlagR_iiuEO"(ptr nonnull dereferenceable(8) @"_SM35scala.scalanative.runtime.LazyVals$G8instance", ptr %_154, i32 0, i32 0)
  %_157 = icmp ne ptr %_38, null
  br i1 %_157, label %_156.0, label %_89.0
_156.0:
  call ptr @"scalanative_throw"(ptr dereferenceable_or_null(40) %_38)
  unreachable
_73.0:
  %_160 = icmp ne ptr %_38, null
  br i1 %_160, label %_159.0, label %_89.0
_159.0:
  call ptr @"scalanative_throw"(ptr dereferenceable_or_null(8) %_38)
  unreachable
_28.0:
  br label %_29.0
_29.0:
  br label %_23.0
_22.0:
  %_162 = getelementptr { { ptr }, ptr, ptr, ptr, i64, i1, i1, i1 }, { { ptr }, ptr, ptr, ptr, i64, i1, i1, i1 }* %_1, i32 0, i32 4
  call void @"_SM35scala.scalanative.runtime.LazyVals$D17wait4NotificationR_jiuEO"(ptr nonnull dereferenceable(8) @"_SM35scala.scalanative.runtime.LazyVals$G8instance", ptr %_162, i64 %_9, i32 0)
  br label %_23.0
_23.0:
  br label %_15.0
_15.0:
  br label %_3.0
_5.0:
  ret ptr zeroinitializer
_89.0:
  call ptr @"_SM34scala.scalanative.runtime.package$D16throwNullPointernEO"(ptr null)
  unreachable
_146.0:
  %_165 = phi ptr [%_38, %_144.0]
  %_166 = phi ptr [@"_SM19java.lang.ThrowableG4type", %_144.0]
  %_167 = load ptr, ptr %_165
  call ptr @"_SM34scala.scalanative.runtime.package$D14throwClassCastR_R_nEO"(ptr null, ptr %_167, ptr %_166)
  unreachable
_94.0:
  %_44 = phi ptr [%_95, %_95.landingpad.succ], [%_97, %_97.landingpad.succ]
  br label %_35.0
_98.0:
  %_46 = phi ptr [%_99, %_99.landingpad.succ]
  br label %_35.0
_100.0:
  %_48 = phi ptr [%_101, %_101.landingpad.succ]
  br label %_35.0
_102.0:
  %_50 = phi ptr [%_103, %_103.landingpad.succ]
  br label %_35.0
_104.0:
  %_52 = phi ptr [%_105, %_105.landingpad.succ]
  br label %_35.0
_106.0:
  %_54 = phi ptr [%_107, %_107.landingpad.succ], [%_109, %_109.landingpad.succ]
  br label %_35.0
_110.0:
  %_56 = phi ptr [%_111, %_111.landingpad.succ]
  br label %_35.0
_112.0:
  %_58 = phi ptr [%_114, %_114.landingpad.succ]
  br label %_35.0
_116.0:
  %_60 = phi ptr [%_118, %_118.landingpad.succ], [%_120, %_120.landingpad.succ]
  br label %_35.0
_122.0:
  %_62 = phi ptr [%_123, %_123.landingpad.succ]
  br label %_35.0
_124.0:
  %_64 = phi ptr [%_125, %_125.landingpad.succ], [%_127, %_127.landingpad.succ]
  br label %_35.0
_128.0:
  %_66 = phi ptr [%_129, %_129.landingpad.succ]
  br label %_35.0
_130.0:
  %_68 = phi ptr [%_132, %_132.landingpad.succ]
  br label %_35.0
_95.landingpad:
  %_208 = landingpad { ptr, i32 } catch ptr @_ZTIN11scalanative16ExceptionWrapperE
  %_209 = extractvalue { ptr, i32 } %_208, 0
  %_210 = extractvalue { ptr, i32 } %_208, 1
  %_211 = call i32 @llvm.eh.typeid.for(ptr @_ZTIN11scalanative16ExceptionWrapperE)
  %_212 = icmp eq i32 %_210, %_211
  br i1 %_212, label %_95.landingpad.succ, label %_95.landingpad.fail
_95.landingpad.succ:
  %_213 = call ptr @__cxa_begin_catch(ptr %_209)
  %_215 = getelementptr ptr, ptr %_213, i32 1
  %_95 = load ptr, ptr %_215
  call void @__cxa_end_catch()br label %_94.0
_95.landingpad.fail:
  resume { ptr, i32 } %_208
_97.landingpad:
  %_216 = landingpad { ptr, i32 } catch ptr @_ZTIN11scalanative16ExceptionWrapperE
  %_217 = extractvalue { ptr, i32 } %_216, 0
  %_218 = extractvalue { ptr, i32 } %_216, 1
  %_219 = call i32 @llvm.eh.typeid.for(ptr @_ZTIN11scalanative16ExceptionWrapperE)
  %_220 = icmp eq i32 %_218, %_219
  br i1 %_220, label %_97.landingpad.succ, label %_97.landingpad.fail
_97.landingpad.succ:
  %_221 = call ptr @__cxa_begin_catch(ptr %_217)
  %_223 = getelementptr ptr, ptr %_221, i32 1
  %_97 = load ptr, ptr %_223
  call void @__cxa_end_catch()br label %_94.0
_97.landingpad.fail:
  resume { ptr, i32 } %_216
_99.landingpad:
  %_224 = landingpad { ptr, i32 } catch ptr @_ZTIN11scalanative16ExceptionWrapperE
  %_225 = extractvalue { ptr, i32 } %_224, 0
  %_226 = extractvalue { ptr, i32 } %_224, 1
  %_227 = call i32 @llvm.eh.typeid.for(ptr @_ZTIN11scalanative16ExceptionWrapperE)
  %_228 = icmp eq i32 %_226, %_227
  br i1 %_228, label %_99.landingpad.succ, label %_99.landingpad.fail
_99.landingpad.succ:
  %_229 = call ptr @__cxa_begin_catch(ptr %_225)
  %_231 = getelementptr ptr, ptr %_229, i32 1
  %_99 = load ptr, ptr %_231
  call void @__cxa_end_catch()br label %_98.0
_99.landingpad.fail:
  resume { ptr, i32 } %_224
_101.landingpad:
  %_232 = landingpad { ptr, i32 } catch ptr @_ZTIN11scalanative16ExceptionWrapperE
  %_233 = extractvalue { ptr, i32 } %_232, 0
  %_234 = extractvalue { ptr, i32 } %_232, 1
  %_235 = call i32 @llvm.eh.typeid.for(ptr @_ZTIN11scalanative16ExceptionWrapperE)
  %_236 = icmp eq i32 %_234, %_235
  br i1 %_236, label %_101.landingpad.succ, label %_101.landingpad.fail
_101.landingpad.succ:
  %_237 = call ptr @__cxa_begin_catch(ptr %_233)
  %_239 = getelementptr ptr, ptr %_237, i32 1
  %_101 = load ptr, ptr %_239
  call void @__cxa_end_catch()br label %_100.0
_101.landingpad.fail:
  resume { ptr, i32 } %_232
_103.landingpad:
  %_240 = landingpad { ptr, i32 } catch ptr @_ZTIN11scalanative16ExceptionWrapperE
  %_241 = extractvalue { ptr, i32 } %_240, 0
  %_242 = extractvalue { ptr, i32 } %_240, 1
  %_243 = call i32 @llvm.eh.typeid.for(ptr @_ZTIN11scalanative16ExceptionWrapperE)
  %_244 = icmp eq i32 %_242, %_243
  br i1 %_244, label %_103.landingpad.succ, label %_103.landingpad.fail
_103.landingpad.succ:
  %_245 = call ptr @__cxa_begin_catch(ptr %_241)
  %_247 = getelementptr ptr, ptr %_245, i32 1
  %_103 = load ptr, ptr %_247
  call void @__cxa_end_catch()br label %_102.0
_103.landingpad.fail:
  resume { ptr, i32 } %_240
_105.landingpad:
  %_248 = landingpad { ptr, i32 } catch ptr @_ZTIN11scalanative16ExceptionWrapperE
  %_249 = extractvalue { ptr, i32 } %_248, 0
  %_250 = extractvalue { ptr, i32 } %_248, 1
  %_251 = call i32 @llvm.eh.typeid.for(ptr @_ZTIN11scalanative16ExceptionWrapperE)
  %_252 = icmp eq i32 %_250, %_251
  br i1 %_252, label %_105.landingpad.succ, label %_105.landingpad.fail
_105.landingpad.succ:
  %_253 = call ptr @__cxa_begin_catch(ptr %_249)
  %_255 = getelementptr ptr, ptr %_253, i32 1
  %_105 = load ptr, ptr %_255
  call void @__cxa_end_catch()br label %_104.0
_105.landingpad.fail:
  resume { ptr, i32 } %_248
_107.landingpad:
  %_256 = landingpad { ptr, i32 } catch ptr @_ZTIN11scalanative16ExceptionWrapperE
  %_257 = extractvalue { ptr, i32 } %_256, 0
  %_258 = extractvalue { ptr, i32 } %_256, 1
  %_259 = call i32 @llvm.eh.typeid.for(ptr @_ZTIN11scalanative16ExceptionWrapperE)
  %_260 = icmp eq i32 %_258, %_259
  br i1 %_260, label %_107.landingpad.succ, label %_107.landingpad.fail
_107.landingpad.succ:
  %_261 = call ptr @__cxa_begin_catch(ptr %_257)
  %_263 = getelementptr ptr, ptr %_261, i32 1
  %_107 = load ptr, ptr %_263
  call void @__cxa_end_catch()br label %_106.0
_107.landingpad.fail:
  resume { ptr, i32 } %_256
_109.landingpad:
  %_264 = landingpad { ptr, i32 } catch ptr @_ZTIN11scalanative16ExceptionWrapperE
  %_265 = extractvalue { ptr, i32 } %_264, 0
  %_266 = extractvalue { ptr, i32 } %_264, 1
  %_267 = call i32 @llvm.eh.typeid.for(ptr @_ZTIN11scalanative16ExceptionWrapperE)
  %_268 = icmp eq i32 %_266, %_267
  br i1 %_268, label %_109.landingpad.succ, label %_109.landingpad.fail
_109.landingpad.succ:
  %_269 = call ptr @__cxa_begin_catch(ptr %_265)
  %_271 = getelementptr ptr, ptr %_269, i32 1
  %_109 = load ptr, ptr %_271
  call void @__cxa_end_catch()br label %_106.0
_109.landingpad.fail:
  resume { ptr, i32 } %_264
_111.landingpad:
  %_272 = landingpad { ptr, i32 } catch ptr @_ZTIN11scalanative16ExceptionWrapperE
  %_273 = extractvalue { ptr, i32 } %_272, 0
  %_274 = extractvalue { ptr, i32 } %_272, 1
  %_275 = call i32 @llvm.eh.typeid.for(ptr @_ZTIN11scalanative16ExceptionWrapperE)
  %_276 = icmp eq i32 %_274, %_275
  br i1 %_276, label %_111.landingpad.succ, label %_111.landingpad.fail
_111.landingpad.succ:
  %_277 = call ptr @__cxa_begin_catch(ptr %_273)
  %_279 = getelementptr ptr, ptr %_277, i32 1
  %_111 = load ptr, ptr %_279
  call void @__cxa_end_catch()br label %_110.0
_111.landingpad.fail:
  resume { ptr, i32 } %_272
_114.landingpad:
  %_280 = landingpad { ptr, i32 } catch ptr @_ZTIN11scalanative16ExceptionWrapperE
  %_281 = extractvalue { ptr, i32 } %_280, 0
  %_282 = extractvalue { ptr, i32 } %_280, 1
  %_283 = call i32 @llvm.eh.typeid.for(ptr @_ZTIN11scalanative16ExceptionWrapperE)
  %_284 = icmp eq i32 %_282, %_283
  br i1 %_284, label %_114.landingpad.succ, label %_114.landingpad.fail
_114.landingpad.succ:
  %_285 = call ptr @__cxa_begin_catch(ptr %_281)
  %_287 = getelementptr ptr, ptr %_285, i32 1
  %_114 = load ptr, ptr %_287
  call void @__cxa_end_catch()br label %_112.0
_114.landingpad.fail:
  resume { ptr, i32 } %_280
_118.landingpad:
  %_288 = landingpad { ptr, i32 } catch ptr @_ZTIN11scalanative16ExceptionWrapperE
  %_289 = extractvalue { ptr, i32 } %_288, 0
  %_290 = extractvalue { ptr, i32 } %_288, 1
  %_291 = call i32 @llvm.eh.typeid.for(ptr @_ZTIN11scalanative16ExceptionWrapperE)
  %_292 = icmp eq i32 %_290, %_291
  br i1 %_292, label %_118.landingpad.succ, label %_118.landingpad.fail
_118.landingpad.succ:
  %_293 = call ptr @__cxa_begin_catch(ptr %_289)
  %_295 = getelementptr ptr, ptr %_293, i32 1
  %_118 = load ptr, ptr %_295
  call void @__cxa_end_catch()br label %_116.0
_118.landingpad.fail:
  resume { ptr, i32 } %_288
_120.landingpad:
  %_296 = landingpad { ptr, i32 } catch ptr @_ZTIN11scalanative16ExceptionWrapperE
  %_297 = extractvalue { ptr, i32 } %_296, 0
  %_298 = extractvalue { ptr, i32 } %_296, 1
  %_299 = call i32 @llvm.eh.typeid.for(ptr @_ZTIN11scalanative16ExceptionWrapperE)
  %_300 = icmp eq i32 %_298, %_299
  br i1 %_300, label %_120.landingpad.succ, label %_120.landingpad.fail
_120.landingpad.succ:
  %_301 = call ptr @__cxa_begin_catch(ptr %_297)
  %_303 = getelementptr ptr, ptr %_301, i32 1
  %_120 = load ptr, ptr %_303
  call void @__cxa_end_catch()br label %_116.0
_120.landingpad.fail:
  resume { ptr, i32 } %_296
_123.landingpad:
  %_304 = landingpad { ptr, i32 } catch ptr @_ZTIN11scalanative16ExceptionWrapperE
  %_305 = extractvalue { ptr, i32 } %_304, 0
  %_306 = extractvalue { ptr, i32 } %_304, 1
  %_307 = call i32 @llvm.eh.typeid.for(ptr @_ZTIN11scalanative16ExceptionWrapperE)
  %_308 = icmp eq i32 %_306, %_307
  br i1 %_308, label %_123.landingpad.succ, label %_123.landingpad.fail
_123.landingpad.succ:
  %_309 = call ptr @__cxa_begin_catch(ptr %_305)
  %_311 = getelementptr ptr, ptr %_309, i32 1
  %_123 = load ptr, ptr %_311
  call void @__cxa_end_catch()br label %_122.0
_123.landingpad.fail:
  resume { ptr, i32 } %_304
_125.landingpad:
  %_312 = landingpad { ptr, i32 } catch ptr @_ZTIN11scalanative16ExceptionWrapperE
  %_313 = extractvalue { ptr, i32 } %_312, 0
  %_314 = extractvalue { ptr, i32 } %_312, 1
  %_315 = call i32 @llvm.eh.typeid.for(ptr @_ZTIN11scalanative16ExceptionWrapperE)
  %_316 = icmp eq i32 %_314, %_315
  br i1 %_316, label %_125.landingpad.succ, label %_125.landingpad.fail
_125.landingpad.succ:
  %_317 = call ptr @__cxa_begin_catch(ptr %_313)
  %_319 = getelementptr ptr, ptr %_317, i32 1
  %_125 = load ptr, ptr %_319
  call void @__cxa_end_catch()br label %_124.0
_125.landingpad.fail:
  resume { ptr, i32 } %_312
_127.landingpad:
  %_320 = landingpad { ptr, i32 } catch ptr @_ZTIN11scalanative16ExceptionWrapperE
  %_321 = extractvalue { ptr, i32 } %_320, 0
  %_322 = extractvalue { ptr, i32 } %_320, 1
  %_323 = call i32 @llvm.eh.typeid.for(ptr @_ZTIN11scalanative16ExceptionWrapperE)
  %_324 = icmp eq i32 %_322, %_323
  br i1 %_324, label %_127.landingpad.succ, label %_127.landingpad.fail
_127.landingpad.succ:
  %_325 = call ptr @__cxa_begin_catch(ptr %_321)
  %_327 = getelementptr ptr, ptr %_325, i32 1
  %_127 = load ptr, ptr %_327
  call void @__cxa_end_catch()br label %_124.0
_127.landingpad.fail:
  resume { ptr, i32 } %_320
_129.landingpad:
  %_328 = landingpad { ptr, i32 } catch ptr @_ZTIN11scalanative16ExceptionWrapperE
  %_329 = extractvalue { ptr, i32 } %_328, 0
  %_330 = extractvalue { ptr, i32 } %_328, 1
  %_331 = call i32 @llvm.eh.typeid.for(ptr @_ZTIN11scalanative16ExceptionWrapperE)
  %_332 = icmp eq i32 %_330, %_331
  br i1 %_332, label %_129.landingpad.succ, label %_129.landingpad.fail
_129.landingpad.succ:
  %_333 = call ptr @__cxa_begin_catch(ptr %_329)
  %_335 = getelementptr ptr, ptr %_333, i32 1
  %_129 = load ptr, ptr %_335
  call void @__cxa_end_catch()br label %_128.0
_129.landingpad.fail:
  resume { ptr, i32 } %_328
_132.landingpad:
  %_336 = landingpad { ptr, i32 } catch ptr @_ZTIN11scalanative16ExceptionWrapperE
  %_337 = extractvalue { ptr, i32 } %_336, 0
  %_338 = extractvalue { ptr, i32 } %_336, 1
  %_339 = call i32 @llvm.eh.typeid.for(ptr @_ZTIN11scalanative16ExceptionWrapperE)
  %_340 = icmp eq i32 %_338, %_339
  br i1 %_340, label %_132.landingpad.succ, label %_132.landingpad.fail
_132.landingpad.succ:
  %_341 = call ptr @__cxa_begin_catch(ptr %_337)
  %_343 = getelementptr ptr, ptr %_341, i32 1
  %_132 = load ptr, ptr %_343
  call void @__cxa_end_catch()br label %_130.0
_132.landingpad.fail:
  resume { ptr, i32 } %_336
}

define void @"_SM19java.io.PrintStreamD7printlnL16java.lang.ObjectuEO"(ptr %_2, ptr %_1) personality ptr @__gxx_personality_v0 {
_3.0:
  call void @"_SM33scala.scalanative.runtime.packageD12enterMonitorL16java.lang.ObjectuEo"(ptr dereferenceable_or_null(48) %_2)
  br label %_4.0
_4.0:
  %_28 = icmp ne ptr %_2, null
  br i1 %_28, label %_25.0, label %_26.0
_25.0:
  invoke void @"_SM19java.io.PrintStreamD5printL16java.lang.ObjectuEO"(ptr dereferenceable_or_null(48) %_2, ptr dereferenceable_or_null(8) %_1) to label %_25.1 unwind label %_32.landingpad
_25.1:
  invoke void @"_SM19java.io.PrintStreamD7printlnuEO"(ptr dereferenceable_or_null(48) %_2) to label %_25.2 unwind label %_38.landingpad
_25.2:
  br label %_19.0
_5.0:
  %_17 = phi ptr [%_14, %_36.0], [%_12, %_34.0], [%_10, %_30.0], [%_8, %_24.0]
  br label %_21.0
_19.0:
  call void @"_SM33scala.scalanative.runtime.packageD11exitMonitorL16java.lang.ObjectuEo"(ptr dereferenceable_or_null(48) %_2)
  br label %_6.0
_21.0:
  call void @"_SM33scala.scalanative.runtime.packageD11exitMonitorL16java.lang.ObjectuEo"(ptr dereferenceable_or_null(48) %_2)
  %_44 = icmp ne ptr %_17, null
  br i1 %_44, label %_42.0, label %_43.0
_42.0:
  call ptr @"scalanative_throw"(ptr dereferenceable_or_null(8) %_17)
  unreachable
_6.0:
  ret void
_26.0:
  invoke ptr @"_SM34scala.scalanative.runtime.package$D16throwNullPointernEO"(ptr null) to label %_26.1 unwind label %_46.landingpad
_26.1:
  unreachable
_43.0:
  call ptr @"_SM34scala.scalanative.runtime.package$D16throwNullPointernEO"(ptr null)
  unreachable
_24.0:
  %_8 = phi ptr [%_27, %_27.landingpad.succ], [%_46, %_46.landingpad.succ], [%_29, %_29.landingpad.succ]
  br label %_5.0
_30.0:
  %_10 = phi ptr [%_32, %_32.landingpad.succ]
  br label %_5.0
_34.0:
  %_12 = phi ptr [%_35, %_35.landingpad.succ]
  br label %_5.0
_36.0:
  %_14 = phi ptr [%_38, %_38.landingpad.succ]
  br label %_5.0
_27.landingpad:
  %_51 = landingpad { ptr, i32 } catch ptr @_ZTIN11scalanative16ExceptionWrapperE
  %_52 = extractvalue { ptr, i32 } %_51, 0
  %_53 = extractvalue { ptr, i32 } %_51, 1
  %_54 = call i32 @llvm.eh.typeid.for(ptr @_ZTIN11scalanative16ExceptionWrapperE)
  %_55 = icmp eq i32 %_53, %_54
  br i1 %_55, label %_27.landingpad.succ, label %_27.landingpad.fail
_27.landingpad.succ:
  %_56 = call ptr @__cxa_begin_catch(ptr %_52)
  %_58 = getelementptr ptr, ptr %_56, i32 1
  %_27 = load ptr, ptr %_58
  call void @__cxa_end_catch()br label %_24.0
_27.landingpad.fail:
  resume { ptr, i32 } %_51
_29.landingpad:
  %_59 = landingpad { ptr, i32 } catch ptr @_ZTIN11scalanative16ExceptionWrapperE
  %_60 = extractvalue { ptr, i32 } %_59, 0
  %_61 = extractvalue { ptr, i32 } %_59, 1
  %_62 = call i32 @llvm.eh.typeid.for(ptr @_ZTIN11scalanative16ExceptionWrapperE)
  %_63 = icmp eq i32 %_61, %_62
  br i1 %_63, label %_29.landingpad.succ, label %_29.landingpad.fail
_29.landingpad.succ:
  %_64 = call ptr @__cxa_begin_catch(ptr %_60)
  %_66 = getelementptr ptr, ptr %_64, i32 1
  %_29 = load ptr, ptr %_66
  call void @__cxa_end_catch()br label %_24.0
_29.landingpad.fail:
  resume { ptr, i32 } %_59
_32.landingpad:
  %_67 = landingpad { ptr, i32 } catch ptr @_ZTIN11scalanative16ExceptionWrapperE
  %_68 = extractvalue { ptr, i32 } %_67, 0
  %_69 = extractvalue { ptr, i32 } %_67, 1
  %_70 = call i32 @llvm.eh.typeid.for(ptr @_ZTIN11scalanative16ExceptionWrapperE)
  %_71 = icmp eq i32 %_69, %_70
  br i1 %_71, label %_32.landingpad.succ, label %_32.landingpad.fail
_32.landingpad.succ:
  %_72 = call ptr @__cxa_begin_catch(ptr %_68)
  %_74 = getelementptr ptr, ptr %_72, i32 1
  %_32 = load ptr, ptr %_74
  call void @__cxa_end_catch()br label %_30.0
_32.landingpad.fail:
  resume { ptr, i32 } %_67
_35.landingpad:
  %_75 = landingpad { ptr, i32 } catch ptr @_ZTIN11scalanative16ExceptionWrapperE
  %_76 = extractvalue { ptr, i32 } %_75, 0
  %_77 = extractvalue { ptr, i32 } %_75, 1
  %_78 = call i32 @llvm.eh.typeid.for(ptr @_ZTIN11scalanative16ExceptionWrapperE)
  %_79 = icmp eq i32 %_77, %_78
  br i1 %_79, label %_35.landingpad.succ, label %_35.landingpad.fail
_35.landingpad.succ:
  %_80 = call ptr @__cxa_begin_catch(ptr %_76)
  %_82 = getelementptr ptr, ptr %_80, i32 1
  %_35 = load ptr, ptr %_82
  call void @__cxa_end_catch()br label %_34.0
_35.landingpad.fail:
  resume { ptr, i32 } %_75
_38.landingpad:
  %_83 = landingpad { ptr, i32 } catch ptr @_ZTIN11scalanative16ExceptionWrapperE
  %_84 = extractvalue { ptr, i32 } %_83, 0
  %_85 = extractvalue { ptr, i32 } %_83, 1
  %_86 = call i32 @llvm.eh.typeid.for(ptr @_ZTIN11scalanative16ExceptionWrapperE)
  %_87 = icmp eq i32 %_85, %_86
  br i1 %_87, label %_38.landingpad.succ, label %_38.landingpad.fail
_38.landingpad.succ:
  %_88 = call ptr @__cxa_begin_catch(ptr %_84)
  %_90 = getelementptr ptr, ptr %_88, i32 1
  %_38 = load ptr, ptr %_90
  call void @__cxa_end_catch()br label %_36.0
_38.landingpad.fail:
  resume { ptr, i32 } %_83
_46.landingpad:
  %_91 = landingpad { ptr, i32 } catch ptr @_ZTIN11scalanative16ExceptionWrapperE
  %_92 = extractvalue { ptr, i32 } %_91, 0
  %_93 = extractvalue { ptr, i32 } %_91, 1
  %_94 = call i32 @llvm.eh.typeid.for(ptr @_ZTIN11scalanative16ExceptionWrapperE)
  %_95 = icmp eq i32 %_93, %_94
  br i1 %_95, label %_46.landingpad.succ, label %_46.landingpad.fail
_46.landingpad.succ:
  %_96 = call ptr @__cxa_begin_catch(ptr %_92)
  %_98 = getelementptr ptr, ptr %_96, i32 1
  %_46 = load ptr, ptr %_98
  call void @__cxa_end_catch()br label %_24.0
_46.landingpad.fail:
  resume { ptr, i32 } %_91
}

define void @"_SM19java.io.PrintStreamD7printlnL16java.lang.StringuEO"(ptr %_2, ptr %_1) personality ptr @__gxx_personality_v0 {
_3.0:
  call void @"_SM33scala.scalanative.runtime.packageD12enterMonitorL16java.lang.ObjectuEo"(ptr dereferenceable_or_null(48) %_2)
  br label %_4.0
_4.0:
  %_28 = icmp ne ptr %_2, null
  br i1 %_28, label %_25.0, label %_26.0
_25.0:
  invoke void @"_SM19java.io.PrintStreamD5printL16java.lang.StringuEO"(ptr dereferenceable_or_null(48) %_2, ptr dereferenceable_or_null(32) %_1) to label %_25.1 unwind label %_32.landingpad
_25.1:
  invoke void @"_SM19java.io.PrintStreamD7printlnuEO"(ptr dereferenceable_or_null(48) %_2) to label %_25.2 unwind label %_38.landingpad
_25.2:
  br label %_19.0
_5.0:
  %_17 = phi ptr [%_14, %_36.0], [%_12, %_34.0], [%_10, %_30.0], [%_8, %_24.0]
  br label %_21.0
_19.0:
  call void @"_SM33scala.scalanative.runtime.packageD11exitMonitorL16java.lang.ObjectuEo"(ptr dereferenceable_or_null(48) %_2)
  br label %_6.0
_21.0:
  call void @"_SM33scala.scalanative.runtime.packageD11exitMonitorL16java.lang.ObjectuEo"(ptr dereferenceable_or_null(48) %_2)
  %_44 = icmp ne ptr %_17, null
  br i1 %_44, label %_42.0, label %_43.0
_42.0:
  call ptr @"scalanative_throw"(ptr dereferenceable_or_null(8) %_17)
  unreachable
_6.0:
  ret void
_26.0:
  invoke ptr @"_SM34scala.scalanative.runtime.package$D16throwNullPointernEO"(ptr null) to label %_26.1 unwind label %_46.landingpad
_26.1:
  unreachable
_43.0:
  call ptr @"_SM34scala.scalanative.runtime.package$D16throwNullPointernEO"(ptr null)
  unreachable
_24.0:
  %_8 = phi ptr [%_27, %_27.landingpad.succ], [%_46, %_46.landingpad.succ], [%_29, %_29.landingpad.succ]
  br label %_5.0
_30.0:
  %_10 = phi ptr [%_32, %_32.landingpad.succ]
  br label %_5.0
_34.0:
  %_12 = phi ptr [%_35, %_35.landingpad.succ]
  br label %_5.0
_36.0:
  %_14 = phi ptr [%_38, %_38.landingpad.succ]
  br label %_5.0
_27.landingpad:
  %_51 = landingpad { ptr, i32 } catch ptr @_ZTIN11scalanative16ExceptionWrapperE
  %_52 = extractvalue { ptr, i32 } %_51, 0
  %_53 = extractvalue { ptr, i32 } %_51, 1
  %_54 = call i32 @llvm.eh.typeid.for(ptr @_ZTIN11scalanative16ExceptionWrapperE)
  %_55 = icmp eq i32 %_53, %_54
  br i1 %_55, label %_27.landingpad.succ, label %_27.landingpad.fail
_27.landingpad.succ:
  %_56 = call ptr @__cxa_begin_catch(ptr %_52)
  %_58 = getelementptr ptr, ptr %_56, i32 1
  %_27 = load ptr, ptr %_58
  call void @__cxa_end_catch()br label %_24.0
_27.landingpad.fail:
  resume { ptr, i32 } %_51
_29.landingpad:
  %_59 = landingpad { ptr, i32 } catch ptr @_ZTIN11scalanative16ExceptionWrapperE
  %_60 = extractvalue { ptr, i32 } %_59, 0
  %_61 = extractvalue { ptr, i32 } %_59, 1
  %_62 = call i32 @llvm.eh.typeid.for(ptr @_ZTIN11scalanative16ExceptionWrapperE)
  %_63 = icmp eq i32 %_61, %_62
  br i1 %_63, label %_29.landingpad.succ, label %_29.landingpad.fail
_29.landingpad.succ:
  %_64 = call ptr @__cxa_begin_catch(ptr %_60)
  %_66 = getelementptr ptr, ptr %_64, i32 1
  %_29 = load ptr, ptr %_66
  call void @__cxa_end_catch()br label %_24.0
_29.landingpad.fail:
  resume { ptr, i32 } %_59
_32.landingpad:
  %_67 = landingpad { ptr, i32 } catch ptr @_ZTIN11scalanative16ExceptionWrapperE
  %_68 = extractvalue { ptr, i32 } %_67, 0
  %_69 = extractvalue { ptr, i32 } %_67, 1
  %_70 = call i32 @llvm.eh.typeid.for(ptr @_ZTIN11scalanative16ExceptionWrapperE)
  %_71 = icmp eq i32 %_69, %_70
  br i1 %_71, label %_32.landingpad.succ, label %_32.landingpad.fail
_32.landingpad.succ:
  %_72 = call ptr @__cxa_begin_catch(ptr %_68)
  %_74 = getelementptr ptr, ptr %_72, i32 1
  %_32 = load ptr, ptr %_74
  call void @__cxa_end_catch()br label %_30.0
_32.landingpad.fail:
  resume { ptr, i32 } %_67
_35.landingpad:
  %_75 = landingpad { ptr, i32 } catch ptr @_ZTIN11scalanative16ExceptionWrapperE
  %_76 = extractvalue { ptr, i32 } %_75, 0
  %_77 = extractvalue { ptr, i32 } %_75, 1
  %_78 = call i32 @llvm.eh.typeid.for(ptr @_ZTIN11scalanative16ExceptionWrapperE)
  %_79 = icmp eq i32 %_77, %_78
  br i1 %_79, label %_35.landingpad.succ, label %_35.landingpad.fail
_35.landingpad.succ:
  %_80 = call ptr @__cxa_begin_catch(ptr %_76)
  %_82 = getelementptr ptr, ptr %_80, i32 1
  %_35 = load ptr, ptr %_82
  call void @__cxa_end_catch()br label %_34.0
_35.landingpad.fail:
  resume { ptr, i32 } %_75
_38.landingpad:
  %_83 = landingpad { ptr, i32 } catch ptr @_ZTIN11scalanative16ExceptionWrapperE
  %_84 = extractvalue { ptr, i32 } %_83, 0
  %_85 = extractvalue { ptr, i32 } %_83, 1
  %_86 = call i32 @llvm.eh.typeid.for(ptr @_ZTIN11scalanative16ExceptionWrapperE)
  %_87 = icmp eq i32 %_85, %_86
  br i1 %_87, label %_38.landingpad.succ, label %_38.landingpad.fail
_38.landingpad.succ:
  %_88 = call ptr @__cxa_begin_catch(ptr %_84)
  %_90 = getelementptr ptr, ptr %_88, i32 1
  %_38 = load ptr, ptr %_90
  call void @__cxa_end_catch()br label %_36.0
_38.landingpad.fail:
  resume { ptr, i32 } %_83
_46.landingpad:
  %_91 = landingpad { ptr, i32 } catch ptr @_ZTIN11scalanative16ExceptionWrapperE
  %_92 = extractvalue { ptr, i32 } %_91, 0
  %_93 = extractvalue { ptr, i32 } %_91, 1
  %_94 = call i32 @llvm.eh.typeid.for(ptr @_ZTIN11scalanative16ExceptionWrapperE)
  %_95 = icmp eq i32 %_93, %_94
  br i1 %_95, label %_46.landingpad.succ, label %_46.landingpad.fail
_46.landingpad.succ:
  %_96 = call ptr @__cxa_begin_catch(ptr %_92)
  %_98 = getelementptr ptr, ptr %_96, i32 1
  %_46 = load ptr, ptr %_98
  call void @__cxa_end_catch()br label %_24.0
_46.landingpad.fail:
  resume { ptr, i32 } %_91
}

define void @"_SM19java.io.PrintStreamD7printlnuEO"(ptr %_1) personality ptr @__gxx_personality_v0 {
_2.0:
  call void @"_SM33scala.scalanative.runtime.packageD12enterMonitorL16java.lang.ObjectuEo"(ptr dereferenceable_or_null(48) %_1)
  br label %_3.0
_3.0:
  %_8 = invoke dereferenceable_or_null(16) ptr @"scalanative_GC_alloc_small"(ptr @"_SM29java.io.PrintStream$$Lambda$7G4type", i64 16) to label %_3.1 unwind label %_24.landingpad
_3.1:
  invoke void @"_SM29java.io.PrintStream$$Lambda$7RL19java.io.PrintStreamE"(ptr nonnull dereferenceable(16) %_8, ptr dereferenceable_or_null(48) %_1) to label %_3.2 unwind label %_27.landingpad
_3.2:
  %_33 = icmp ne ptr %_1, null
  br i1 %_33, label %_30.0, label %_31.0
_30.0:
  invoke void @"_SM19java.io.PrintStreamD29ensureOpenAndTrapIOExceptionsL15scala.Function0uEPT19java.io.PrintStream"(ptr dereferenceable_or_null(48) %_1, ptr nonnull dereferenceable(16) %_8) to label %_30.1 unwind label %_37.landingpad
_30.1:
  br label %_18.0
_4.0:
  %_16 = phi ptr [%_13, %_35.0], [%_11, %_29.0], [%_9, %_25.0], [%_7, %_23.0]
  br label %_20.0
_18.0:
  call void @"_SM33scala.scalanative.runtime.packageD11exitMonitorL16java.lang.ObjectuEo"(ptr dereferenceable_or_null(48) %_1)
  br label %_5.0
_20.0:
  call void @"_SM33scala.scalanative.runtime.packageD11exitMonitorL16java.lang.ObjectuEo"(ptr dereferenceable_or_null(48) %_1)
  %_43 = icmp ne ptr %_16, null
  br i1 %_43, label %_41.0, label %_42.0
_41.0:
  call ptr @"scalanative_throw"(ptr dereferenceable_or_null(8) %_16)
  unreachable
_5.0:
  ret void
_31.0:
  invoke ptr @"_SM34scala.scalanative.runtime.package$D16throwNullPointernEO"(ptr null) to label %_31.1 unwind label %_45.landingpad
_31.1:
  unreachable
_42.0:
  call ptr @"_SM34scala.scalanative.runtime.package$D16throwNullPointernEO"(ptr null)
  unreachable
_23.0:
  %_7 = phi ptr [%_24, %_24.landingpad.succ]
  br label %_4.0
_25.0:
  %_9 = phi ptr [%_27, %_27.landingpad.succ]
  br label %_4.0
_29.0:
  %_11 = phi ptr [%_32, %_32.landingpad.succ], [%_45, %_45.landingpad.succ], [%_34, %_34.landingpad.succ]
  br label %_4.0
_35.0:
  %_13 = phi ptr [%_37, %_37.landingpad.succ]
  br label %_4.0
_24.landingpad:
  %_50 = landingpad { ptr, i32 } catch ptr @_ZTIN11scalanative16ExceptionWrapperE
  %_51 = extractvalue { ptr, i32 } %_50, 0
  %_52 = extractvalue { ptr, i32 } %_50, 1
  %_53 = call i32 @llvm.eh.typeid.for(ptr @_ZTIN11scalanative16ExceptionWrapperE)
  %_54 = icmp eq i32 %_52, %_53
  br i1 %_54, label %_24.landingpad.succ, label %_24.landingpad.fail
_24.landingpad.succ:
  %_55 = call ptr @__cxa_begin_catch(ptr %_51)
  %_57 = getelementptr ptr, ptr %_55, i32 1
  %_24 = load ptr, ptr %_57
  call void @__cxa_end_catch()br label %_23.0
_24.landingpad.fail:
  resume { ptr, i32 } %_50
_27.landingpad:
  %_58 = landingpad { ptr, i32 } catch ptr @_ZTIN11scalanative16ExceptionWrapperE
  %_59 = extractvalue { ptr, i32 } %_58, 0
  %_60 = extractvalue { ptr, i32 } %_58, 1
  %_61 = call i32 @llvm.eh.typeid.for(ptr @_ZTIN11scalanative16ExceptionWrapperE)
  %_62 = icmp eq i32 %_60, %_61
  br i1 %_62, label %_27.landingpad.succ, label %_27.landingpad.fail
_27.landingpad.succ:
  %_63 = call ptr @__cxa_begin_catch(ptr %_59)
  %_65 = getelementptr ptr, ptr %_63, i32 1
  %_27 = load ptr, ptr %_65
  call void @__cxa_end_catch()br label %_25.0
_27.landingpad.fail:
  resume { ptr, i32 } %_58
_32.landingpad:
  %_66 = landingpad { ptr, i32 } catch ptr @_ZTIN11scalanative16ExceptionWrapperE
  %_67 = extractvalue { ptr, i32 } %_66, 0
  %_68 = extractvalue { ptr, i32 } %_66, 1
  %_69 = call i32 @llvm.eh.typeid.for(ptr @_ZTIN11scalanative16ExceptionWrapperE)
  %_70 = icmp eq i32 %_68, %_69
  br i1 %_70, label %_32.landingpad.succ, label %_32.landingpad.fail
_32.landingpad.succ:
  %_71 = call ptr @__cxa_begin_catch(ptr %_67)
  %_73 = getelementptr ptr, ptr %_71, i32 1
  %_32 = load ptr, ptr %_73
  call void @__cxa_end_catch()br label %_29.0
_32.landingpad.fail:
  resume { ptr, i32 } %_66
_34.landingpad:
  %_74 = landingpad { ptr, i32 } catch ptr @_ZTIN11scalanative16ExceptionWrapperE
  %_75 = extractvalue { ptr, i32 } %_74, 0
  %_76 = extractvalue { ptr, i32 } %_74, 1
  %_77 = call i32 @llvm.eh.typeid.for(ptr @_ZTIN11scalanative16ExceptionWrapperE)
  %_78 = icmp eq i32 %_76, %_77
  br i1 %_78, label %_34.landingpad.succ, label %_34.landingpad.fail
_34.landingpad.succ:
  %_79 = call ptr @__cxa_begin_catch(ptr %_75)
  %_81 = getelementptr ptr, ptr %_79, i32 1
  %_34 = load ptr, ptr %_81
  call void @__cxa_end_catch()br label %_29.0
_34.landingpad.fail:
  resume { ptr, i32 } %_74
_37.landingpad:
  %_82 = landingpad { ptr, i32 } catch ptr @_ZTIN11scalanative16ExceptionWrapperE
  %_83 = extractvalue { ptr, i32 } %_82, 0
  %_84 = extractvalue { ptr, i32 } %_82, 1
  %_85 = call i32 @llvm.eh.typeid.for(ptr @_ZTIN11scalanative16ExceptionWrapperE)
  %_86 = icmp eq i32 %_84, %_85
  br i1 %_86, label %_37.landingpad.succ, label %_37.landingpad.fail
_37.landingpad.succ:
  %_87 = call ptr @__cxa_begin_catch(ptr %_83)
  %_89 = getelementptr ptr, ptr %_87, i32 1
  %_37 = load ptr, ptr %_89
  call void @__cxa_end_catch()br label %_35.0
_37.landingpad.fail:
  resume { ptr, i32 } %_82
_45.landingpad:
  %_90 = landingpad { ptr, i32 } catch ptr @_ZTIN11scalanative16ExceptionWrapperE
  %_91 = extractvalue { ptr, i32 } %_90, 0
  %_92 = extractvalue { ptr, i32 } %_90, 1
  %_93 = call i32 @llvm.eh.typeid.for(ptr @_ZTIN11scalanative16ExceptionWrapperE)
  %_94 = icmp eq i32 %_92, %_93
  br i1 %_94, label %_45.landingpad.succ, label %_45.landingpad.fail
_45.landingpad.succ:
  %_95 = call ptr @__cxa_begin_catch(ptr %_91)
  %_97 = getelementptr ptr, ptr %_95, i32 1
  %_45 = load ptr, ptr %_97
  call void @__cxa_end_catch()br label %_29.0
_45.landingpad.fail:
  resume { ptr, i32 } %_90
}

define void @"_SM19java.io.PrintStreamD8setErroruEO"(ptr %_1) personality ptr @__gxx_personality_v0 {
_2000000.0:
  %_2000004 = icmp ne ptr %_1, null
  br i1 %_2000004, label %_2000002.0, label %_2000003.0
_2000002.0:
  %_2000006 = getelementptr { { ptr }, ptr, ptr, ptr, i64, i1, i1, i1 }, { { ptr }, ptr, ptr, ptr, i64, i1, i1, i1 }* %_1, i32 0, i32 6
  %_2000007 = zext i1 true to i8
  store i8 %_2000007, ptr%_2000006, align 1
  ret void
_2000003.0:
  call ptr @"_SM34scala.scalanative.runtime.package$D16throwNullPointernEO"(ptr null)
  unreachable
}

define dereferenceable_or_null(8) ptr @"_SM29java.io.PrintStream$$Lambda$1D5applyL16java.lang.ObjectEO"(ptr %_1) personality ptr @__gxx_personality_v0 {
_2000000.0:
  %_3000004 = icmp ne ptr %_1, null
  br i1 %_3000004, label %_3000002.0, label %_3000003.0
_3000002.0:
  %_3000005 = getelementptr { { ptr }, ptr }, { { ptr }, ptr }* %_1, i32 0, i32 1
  %_2000001 = load ptr, ptr %_3000005, !dereferenceable_or_null !{i64 48}
  call void @"_SM19java.io.PrintStreamD16flush$$anonfun$1uEPT19java.io.PrintStream"(ptr dereferenceable_or_null(48) %_2000001)
  ret ptr @"_SM36scala.scalanative.runtime.BoxedUnit$G8instance"
_3000003.0:
  call ptr @"_SM34scala.scalanative.runtime.package$D16throwNullPointernEO"(ptr null)
  unreachable
}

define void @"_SM29java.io.PrintStream$$Lambda$1RL19java.io.PrintStreamE"(ptr %_1, ptr %_2) personality ptr @__gxx_personality_v0 {
_3000000.0:
  %_3000004 = icmp ne ptr %_1, null
  br i1 %_3000004, label %_3000002.0, label %_3000003.0
_3000002.0:
  %_3000006 = getelementptr { { ptr }, ptr }, { { ptr }, ptr }* %_1, i32 0, i32 1
  store ptr %_2, ptr%_3000006, align 8
  ret void
_3000003.0:
  call ptr @"_SM34scala.scalanative.runtime.package$D16throwNullPointernEO"(ptr null)
  unreachable
}

define dereferenceable_or_null(8) ptr @"_SM29java.io.PrintStream$$Lambda$4D5applyL16java.lang.ObjectEO"(ptr %_1) personality ptr @__gxx_personality_v0 {
_2000000.0:
  %_3000004 = icmp ne ptr %_1, null
  br i1 %_3000004, label %_3000002.0, label %_3000003.0
_3000002.0:
  %_3000005 = getelementptr { { ptr }, i32, i32, ptr, ptr }, { { ptr }, i32, i32, ptr, ptr }* %_1, i32 0, i32 4
  %_2000001 = load ptr, ptr %_3000005, !dereferenceable_or_null !{i64 48}
  %_3000006 = getelementptr { { ptr }, i32, i32, ptr, ptr }, { { ptr }, i32, i32, ptr, ptr }* %_1, i32 0, i32 3
  %_2000002 = load ptr, ptr %_3000006, !dereferenceable_or_null !{i64 16}
  %_3000007 = getelementptr { { ptr }, i32, i32, ptr, ptr }, { { ptr }, i32, i32, ptr, ptr }* %_1, i32 0, i32 2
  %_2000003 = load i32, ptr %_3000007
  %_3000008 = getelementptr { { ptr }, i32, i32, ptr, ptr }, { { ptr }, i32, i32, ptr, ptr }* %_1, i32 0, i32 1
  %_2000004 = load i32, ptr %_3000008
  call void @"_SM19java.io.PrintStreamD16write$$anonfun$2LAb_iiuEPT19java.io.PrintStream"(ptr dereferenceable_or_null(48) %_2000001, ptr dereferenceable_or_null(16) %_2000002, i32 %_2000003, i32 %_2000004)
  ret ptr @"_SM36scala.scalanative.runtime.BoxedUnit$G8instance"
_3000003.0:
  call ptr @"_SM34scala.scalanative.runtime.package$D16throwNullPointernEO"(ptr null)
  unreachable
}

define void @"_SM29java.io.PrintStream$$Lambda$4RL19java.io.PrintStreamLAb_iiE"(ptr %_1, ptr %_2, ptr %_3, i32 %_4, i32 %_5) personality ptr @__gxx_personality_v0 {
_6000000.0:
  %_6000007 = icmp ne ptr %_1, null
  br i1 %_6000007, label %_6000005.0, label %_6000006.0
_6000005.0:
  %_6000009 = getelementptr { { ptr }, i32, i32, ptr, ptr }, { { ptr }, i32, i32, ptr, ptr }* %_1, i32 0, i32 4
  store ptr %_2, ptr%_6000009, align 8
  %_6000011 = getelementptr { { ptr }, i32, i32, ptr, ptr }, { { ptr }, i32, i32, ptr, ptr }* %_1, i32 0, i32 3
  store ptr %_3, ptr%_6000011, align 8
  %_6000013 = getelementptr { { ptr }, i32, i32, ptr, ptr }, { { ptr }, i32, i32, ptr, ptr }* %_1, i32 0, i32 2
  store i32 %_4, ptr%_6000013, align 4
  %_6000015 = getelementptr { { ptr }, i32, i32, ptr, ptr }, { { ptr }, i32, i32, ptr, ptr }* %_1, i32 0, i32 1
  store i32 %_5, ptr%_6000015, align 4
  ret void
_6000006.0:
  call ptr @"_SM34scala.scalanative.runtime.package$D16throwNullPointernEO"(ptr null)
  unreachable
}

define dereferenceable_or_null(8) ptr @"_SM29java.io.PrintStream$$Lambda$5D5applyL16java.lang.ObjectEO"(ptr %_1) personality ptr @__gxx_personality_v0 {
_2000000.0:
  %_3000004 = icmp ne ptr %_1, null
  br i1 %_3000004, label %_3000002.0, label %_3000003.0
_3000002.0:
  %_3000005 = getelementptr { { ptr }, ptr, ptr }, { { ptr }, ptr, ptr }* %_1, i32 0, i32 2
  %_2000001 = load ptr, ptr %_3000005, !dereferenceable_or_null !{i64 48}
  %_3000006 = getelementptr { { ptr }, ptr, ptr }, { { ptr }, ptr, ptr }* %_1, i32 0, i32 1
  %_2000002 = load ptr, ptr %_3000006, !dereferenceable_or_null !{i64 32}
  call void @"_SM19java.io.PrintStreamD22printString$$anonfun$1L16java.lang.StringuEPT19java.io.PrintStream"(ptr dereferenceable_or_null(48) %_2000001, ptr dereferenceable_or_null(32) %_2000002)
  ret ptr @"_SM36scala.scalanative.runtime.BoxedUnit$G8instance"
_3000003.0:
  call ptr @"_SM34scala.scalanative.runtime.package$D16throwNullPointernEO"(ptr null)
  unreachable
}

define void @"_SM29java.io.PrintStream$$Lambda$5RL19java.io.PrintStreamL16java.lang.StringE"(ptr %_1, ptr %_2, ptr %_3) personality ptr @__gxx_personality_v0 {
_4000000.0:
  %_4000005 = icmp ne ptr %_1, null
  br i1 %_4000005, label %_4000003.0, label %_4000004.0
_4000003.0:
  %_4000007 = getelementptr { { ptr }, ptr, ptr }, { { ptr }, ptr, ptr }* %_1, i32 0, i32 2
  store ptr %_2, ptr%_4000007, align 8
  %_4000009 = getelementptr { { ptr }, ptr, ptr }, { { ptr }, ptr, ptr }* %_1, i32 0, i32 1
  store ptr %_3, ptr%_4000009, align 8
  ret void
_4000004.0:
  call ptr @"_SM34scala.scalanative.runtime.package$D16throwNullPointernEO"(ptr null)
  unreachable
}

define dereferenceable_or_null(8) ptr @"_SM29java.io.PrintStream$$Lambda$7D5applyL16java.lang.ObjectEO"(ptr %_1) personality ptr @__gxx_personality_v0 {
_2000000.0:
  %_3000004 = icmp ne ptr %_1, null
  br i1 %_3000004, label %_3000002.0, label %_3000003.0
_3000002.0:
  %_3000005 = getelementptr { { ptr }, ptr }, { { ptr }, ptr }* %_1, i32 0, i32 1
  %_2000001 = load ptr, ptr %_3000005, !dereferenceable_or_null !{i64 48}
  call void @"_SM19java.io.PrintStreamD18println$$anonfun$1uEPT19java.io.PrintStream"(ptr dereferenceable_or_null(48) %_2000001)
  ret ptr @"_SM36scala.scalanative.runtime.BoxedUnit$G8instance"
_3000003.0:
  call ptr @"_SM34scala.scalanative.runtime.package$D16throwNullPointernEO"(ptr null)
  unreachable
}

define void @"_SM29java.io.PrintStream$$Lambda$7RL19java.io.PrintStreamE"(ptr %_1, ptr %_2) personality ptr @__gxx_personality_v0 {
_3000000.0:
  %_3000004 = icmp ne ptr %_1, null
  br i1 %_3000004, label %_3000002.0, label %_3000003.0
_3000002.0:
  %_3000006 = getelementptr { { ptr }, ptr }, { { ptr }, ptr }* %_1, i32 0, i32 1
  store ptr %_2, ptr%_3000006, align 8
  ret void
_3000003.0:
  call ptr @"_SM34scala.scalanative.runtime.package$D16throwNullPointernEO"(ptr null)
  unreachable
}

define void @"_SM14java.io.WriterD5writeL16java.lang.StringuEO"(ptr %_1, ptr %_2) personality ptr @__gxx_personality_v0 {
_3000000.0:
  %_3000005 = icmp ne ptr %_1, null
  br i1 %_3000005, label %_3000003.0, label %_3000004.0
_3000003.0:
  %_3000001 = call dereferenceable_or_null(16) ptr @"_SM16java.lang.StringD11toCharArrayLAc_EO"(ptr dereferenceable_or_null(32) %_2)
  call void @"_SM14java.io.WriterD5writeLAc_uEO"(ptr dereferenceable_or_null(16) %_1, ptr dereferenceable_or_null(16) %_3000001)
  ret void
_3000004.0:
  call ptr @"_SM34scala.scalanative.runtime.package$D16throwNullPointernEO"(ptr null)
  unreachable
}

define void @"_SM14java.io.WriterD5writeLAc_uEO"(ptr %_1, ptr %_2) personality ptr @__gxx_personality_v0 {
_3000000.0:
  %_3000005 = icmp ne ptr %_1, null
  br i1 %_3000005, label %_3000003.0, label %_3000004.0
_3000003.0:
  %_3000007 = icmp ne ptr %_2, null
  br i1 %_3000007, label %_3000006.0, label %_3000004.0
_3000006.0:
  %_3000008 = getelementptr { ptr, i32, i32 }, { ptr, i32, i32 }* %_2, i32 0, i32 1
  %_3000001 = load i32, ptr %_3000008
  call void @"_SM26java.io.OutputStreamWriterD5writeLAc_iiuEO"(ptr dereferenceable_or_null(16) %_1, ptr dereferenceable_or_null(16) %_2, i32 0, i32 %_3000001)
  ret void
_3000004.0:
  call ptr @"_SM34scala.scalanative.runtime.package$D16throwNullPointernEO"(ptr null)
  unreachable
}

define dereferenceable_or_null(16) ptr @"_SM14java.io.WriterD6appendL22java.lang.CharSequenceL14java.io.WriterEO"(ptr %_1, ptr %_2) personality ptr @__gxx_personality_v0 {
_3000000.0:
  %_6000005 = icmp ne ptr %_1, null
  br i1 %_6000005, label %_6000003.0, label %_6000004.0
_6000003.0:
  %_3000002 = icmp eq ptr %_2, null
  br i1 %_3000002, label %_4000000.0, label %_5000000.0
_4000000.0:
  br label %_6000000.0
_5000000.0:
  %_6000007 = icmp ne ptr %_2, null
  br i1 %_6000007, label %_6000006.0, label %_6000004.0
_6000006.0:
  %_6000008 = load ptr, ptr %_2
  %_6000009 = getelementptr { { ptr, i32, i32, ptr }, i32, i32, ptr, [3 x ptr] }, { { ptr, i32, i32, ptr }, i32, i32, ptr, [3 x ptr] }* %_6000008, i32 0, i32 4, i32 1
  %_5000002 = load ptr, ptr %_6000009
  %_5000003 = call dereferenceable_or_null(32) ptr %_5000002(ptr dereferenceable_or_null(8) %_2)
  br label %_6000000.0
_6000000.0:
  %_6000001 = phi ptr [%_5000003, %_6000006.0], [@"_SM7__constG2-68", %_4000000.0]
  call void @"_SM14java.io.WriterD5writeL16java.lang.StringuEO"(ptr dereferenceable_or_null(16) %_1, ptr dereferenceable_or_null(32) %_6000001)
  ret ptr %_1
_6000004.0:
  call ptr @"_SM34scala.scalanative.runtime.package$D16throwNullPointernEO"(ptr null)
  unreachable
}

define dereferenceable_or_null(16) ptr @"_SM14java.io.WriterD6appendL22java.lang.CharSequenceL20java.lang.AppendableEO"(ptr %_1, ptr %_2) alwaysinline personality ptr @__gxx_personality_v0 {
_3000000.0:
  %_3000004 = icmp ne ptr %_1, null
  br i1 %_3000004, label %_3000002.0, label %_3000003.0
_3000002.0:
  %_3000001 = call dereferenceable_or_null(16) ptr @"_SM14java.io.WriterD6appendL22java.lang.CharSequenceL14java.io.WriterEO"(ptr dereferenceable_or_null(16) %_1, ptr dereferenceable_or_null(8) %_2)
  ret ptr %_3000001
_3000003.0:
  call ptr @"_SM34scala.scalanative.runtime.package$D16throwNullPointernEO"(ptr null)
  unreachable
}