declare i32 @llvm.eh.typeid.for(ptr)
declare i32 @__gxx_personality_v0(...)
declare ptr @__cxa_begin_catch(ptr)
declare void @__cxa_end_catch()
@_ZTIN11scalanative16ExceptionWrapperE = external constant { ptr, ptr, ptr }

@"_SM7__constG1-0" = private unnamed_addr constant { ptr, i32, i32, [52 x i16] } { ptr @"_SM35scala.scalanative.runtime.CharArrayG4type", i32 52, i32 2, [52 x i16] [ i16 115, i16 99, i16 97, i16 108, i16 97, i16 46, i16 115, i16 99, i16 97, i16 108, i16 97, i16 110, i16 97, i16 116, i16 105, i16 118, i16 101, i16 46, i16 99, i16 111, i16 110, i16 99, i16 117, i16 114, i16 114, i16 101, i16 110, i16 116, i16 46, i16 78, i16 97, i16 116, i16 105, i16 118, i16 101, i16 69, i16 120, i16 101, i16 99, i16 117, i16 116, i16 105, i16 111, i16 110, i16 67, i16 111, i16 110, i16 116, i16 101, i16 120, i16 116, i16 36 ] }
@"_SM7__constG1-1" = private unnamed_addr constant { ptr, ptr, i32, i32, i32 } { ptr @"_SM16java.lang.StringG4type", ptr @"_SM7__constG1-0", i32 0, i32 52, i32 -1065166536 }
@"_SM7__constG1-2" = private unnamed_addr constant [3 x i32] [ i32 8, i32 16, i32 -1 ]
@"_SM7__constG1-3" = private unnamed_addr constant { ptr, i32, i32, [81 x i16] } { ptr @"_SM35scala.scalanative.runtime.CharArrayG4type", i32 81, i32 2, [81 x i16] [ i16 115, i16 99, i16 97, i16 108, i16 97, i16 46, i16 115, i16 99, i16 97, i16 108, i16 97, i16 110, i16 97, i16 116, i16 105, i16 118, i16 101, i16 46, i16 99, i16 111, i16 110, i16 99, i16 117, i16 114, i16 114, i16 101, i16 110, i16 116, i16 46, i16 78, i16 97, i16 116, i16 105, i16 118, i16 101, i16 69, i16 120, i16 101, i16 99, i16 117, i16 116, i16 105, i16 111, i16 110, i16 67, i16 111, i16 110, i16 116, i16 101, i16 120, i16 116, i16 36, i16 73, i16 110, i16 116, i16 101, i16 114, i16 110, i16 97, i16 108, i16 81, i16 117, i16 101, i16 117, i16 101, i16 69, i16 120, i16 101, i16 99, i16 117, i16 116, i16 105, i16 111, i16 110, i16 67, i16 111, i16 110, i16 116, i16 101, i16 120, i16 116 ] }
@"_SM7__constG1-4" = private unnamed_addr constant { ptr, ptr, i32, i32, i32 } { ptr @"_SM16java.lang.StringG4type", ptr @"_SM7__constG1-3", i32 0, i32 81, i32 -2074180205 }
@"_SM7__constG1-5" = private unnamed_addr constant { ptr, i32, i32, [73 x i16] } { ptr @"_SM35scala.scalanative.runtime.CharArrayG4type", i32 73, i32 2, [73 x i16] [ i16 115, i16 99, i16 97, i16 108, i16 97, i16 46, i16 115, i16 99, i16 97, i16 108, i16 97, i16 110, i16 97, i16 116, i16 105, i16 118, i16 101, i16 46, i16 99, i16 111, i16 110, i16 99, i16 117, i16 114, i16 114, i16 101, i16 110, i16 116, i16 46, i16 78, i16 97, i16 116, i16 105, i16 118, i16 101, i16 69, i16 120, i16 101, i16 99, i16 117, i16 116, i16 105, i16 111, i16 110, i16 67, i16 111, i16 110, i16 116, i16 101, i16 120, i16 116, i16 36, i16 81, i16 117, i16 101, i16 117, i16 101, i16 69, i16 120, i16 101, i16 99, i16 117, i16 116, i16 105, i16 111, i16 110, i16 67, i16 111, i16 110, i16 116, i16 101, i16 120, i16 116 ] }
@"_SM7__constG1-6" = private unnamed_addr constant { ptr, ptr, i32, i32, i32 } { ptr @"_SM16java.lang.StringG4type", ptr @"_SM7__constG1-5", i32 0, i32 73, i32 1864014928 }
@"_SM7__constG1-7" = private unnamed_addr constant { ptr, i32, i32, [64 x i16] } { ptr @"_SM35scala.scalanative.runtime.CharArrayG4type", i32 64, i32 2, [64 x i16] [ i16 115, i16 99, i16 97, i16 108, i16 97, i16 46, i16 115, i16 99, i16 97, i16 108, i16 97, i16 110, i16 97, i16 116, i16 105, i16 118, i16 101, i16 46, i16 99, i16 111, i16 110, i16 99, i16 117, i16 114, i16 114, i16 101, i16 110, i16 116, i16 46, i16 78, i16 97, i16 116, i16 105, i16 118, i16 101, i16 69, i16 120, i16 101, i16 99, i16 117, i16 116, i16 105, i16 111, i16 110, i16 67, i16 111, i16 110, i16 116, i16 101, i16 120, i16 116, i16 36, i16 87, i16 111, i16 114, i16 107, i16 83, i16 116, i16 101, i16 97, i16 108, i16 105, i16 110, i16 103 ] }
@"_SM7__constG1-8" = private unnamed_addr constant { ptr, ptr, i32, i32, i32 } { ptr @"_SM16java.lang.StringG4type", ptr @"_SM7__constG1-7", i32 0, i32 64, i32 -1866615876 }
@"_SM7__constG1-9" = private unnamed_addr constant { ptr, i32, i32, [54 x i16] } { ptr @"_SM35scala.scalanative.runtime.CharArrayG4type", i32 54, i32 2, [54 x i16] [ i16 115, i16 99, i16 97, i16 108, i16 97, i16 46, i16 115, i16 99, i16 97, i16 108, i16 97, i16 110, i16 97, i16 116, i16 105, i16 118, i16 101, i16 46, i16 99, i16 111, i16 110, i16 99, i16 117, i16 114, i16 114, i16 101, i16 110, i16 116, i16 46, i16 81, i16 117, i16 101, i16 117, i16 101, i16 69, i16 120, i16 101, i16 99, i16 117, i16 116, i16 105, i16 111, i16 110, i16 67, i16 111, i16 110, i16 116, i16 101, i16 120, i16 116, i16 73, i16 109, i16 112, i16 108 ] }
@"_SM7__constG2-10" = private unnamed_addr constant { ptr, ptr, i32, i32, i32 } { ptr @"_SM16java.lang.StringG4type", ptr @"_SM7__constG1-9", i32 0, i32 54, i32 213908842 }
@"_SM7__constG2-11" = private unnamed_addr constant [3 x i32] [ i32 8, i32 24, i32 -1 ]
@"_SM7__constG2-12" = private unnamed_addr constant { ptr, i32, i32, [60 x i16] } { ptr @"_SM35scala.scalanative.runtime.CharArrayG4type", i32 60, i32 2, [60 x i16] [ i16 115, i16 99, i16 97, i16 108, i16 97, i16 46, i16 115, i16 99, i16 97, i16 108, i16 97, i16 110, i16 97, i16 116, i16 105, i16 118, i16 101, i16 46, i16 99, i16 111, i16 110, i16 99, i16 117, i16 114, i16 114, i16 101, i16 110, i16 116, i16 46, i16 81, i16 117, i16 101, i16 117, i16 101, i16 69, i16 120, i16 101, i16 99, i16 117, i16 116, i16 105, i16 111, i16 110, i16 67, i16 111, i16 110, i16 116, i16 101, i16 120, i16 116, i16 73, i16 109, i16 112, i16 108, i16 36, i16 81, i16 117, i16 101, i16 117, i16 101 ] }
@"_SM7__constG2-13" = private unnamed_addr constant { ptr, ptr, i32, i32, i32 } { ptr @"_SM16java.lang.StringG4type", ptr @"_SM7__constG2-12", i32 0, i32 60, i32 -209885897 }
@"_SM7__constG2-14" = private unnamed_addr constant { ptr, i32, i32, [61 x i16] } { ptr @"_SM35scala.scalanative.runtime.CharArrayG4type", i32 61, i32 2, [61 x i16] [ i16 115, i16 99, i16 97, i16 108, i16 97, i16 46, i16 115, i16 99, i16 97, i16 108, i16 97, i16 110, i16 97, i16 116, i16 105, i16 118, i16 101, i16 46, i16 99, i16 111, i16 110, i16 99, i16 117, i16 114, i16 114, i16 101, i16 110, i16 116, i16 46, i16 81, i16 117, i16 101, i16 117, i16 101, i16 69, i16 120, i16 101, i16 99, i16 117, i16 116, i16 105, i16 111, i16 110, i16 67, i16 111, i16 110, i16 116, i16 101, i16 120, i16 116, i16 73, i16 109, i16 112, i16 108, i16 36, i16 81, i16 117, i16 101, i16 117, i16 101, i16 36 ] }
@"_SM7__constG2-15" = private unnamed_addr constant { ptr, ptr, i32, i32, i32 } { ptr @"_SM16java.lang.StringG4type", ptr @"_SM7__constG2-14", i32 0, i32 61, i32 2083471821 }
@"_SM7__constG2-16" = private unnamed_addr constant [2 x i32] [ i32 8, i32 -1 ]
@"_SM7__constG2-17" = private unnamed_addr constant { ptr, i32, i32, [75 x i16] } { ptr @"_SM35scala.scalanative.runtime.CharArrayG4type", i32 75, i32 2, [75 x i16] [ i16 115, i16 99, i16 97, i16 108, i16 97, i16 46, i16 115, i16 99, i16 97, i16 108, i16 97, i16 110, i16 97, i16 116, i16 105, i16 118, i16 101, i16 46, i16 99, i16 111, i16 110, i16 99, i16 117, i16 114, i16 114, i16 101, i16 110, i16 116, i16 46, i16 81, i16 117, i16 101, i16 117, i16 101, i16 69, i16 120, i16 101, i16 99, i16 117, i16 116, i16 105, i16 111, i16 110, i16 67, i16 111, i16 110, i16 116, i16 101, i16 120, i16 116, i16 73, i16 109, i16 112, i16 108, i16 36, i16 81, i16 117, i16 101, i16 117, i16 101, i16 36, i16 83, i16 105, i16 110, i16 103, i16 108, i16 101, i16 84, i16 104, i16 114, i16 101, i16 97, i16 100, i16 101, i16 100 ] }
@"_SM7__constG2-18" = private unnamed_addr constant { ptr, ptr, i32, i32, i32 } { ptr @"_SM16java.lang.StringG4type", ptr @"_SM7__constG2-17", i32 0, i32 75, i32 -683129922 }

declare nonnull dereferenceable(40) ptr @"_SM36scala.collection.mutable.ListBuffer$D5emptyL35scala.collection.mutable.ListBufferEO"(ptr)

declare void @"_SM33scala.concurrent.ExecutionContextD6$init$uEO"(ptr)

declare void @"_SM19java.lang.ThrowableD15printStackTraceuEO"(ptr)
@"_SM16java.lang.StringG4type" = external global { { ptr, i32, i32, ptr }, i32, i32, ptr, [3 x ptr] }
@"_SM15java.lang.ClassG4type" = external global { { ptr, i32, i32, ptr }, i32, i32, ptr, [3 x ptr] }

declare i1 @"_SM35scala.collection.mutable.ListBufferD7isEmptyzEO"(ptr)
@"_SM23scala.runtime.LazyVals$G8instance" = external global { ptr }
@"_SM35scala.scalanative.runtime.CharArrayG4type" = external global { { ptr, i32, i32, ptr }, i32, i32, ptr, [8 x ptr] }

declare i64 @"_SM23scala.runtime.LazyVals$D5STATEjijEO"(ptr, i64, i32)

declare i1 @"_SM35scala.scalanative.runtime.LazyVals$D3CASR_jiizEO"(ptr, ptr, i64, i32, i32) inlinehint

declare i32 @"_SM16java.lang.ObjectD8hashCodeiEO"(ptr) inlinehint
@"_SM30java.lang.NullPointerExceptionG4type" = external global { { ptr, i32, i32, ptr }, i32, i32, ptr, [4 x ptr] }
@"_SM35scala.scalanative.runtime.LazyVals$G8instance" = external global { ptr }

declare void @"_SM35scala.scalanative.runtime.LazyVals$D7setFlagR_iiuEO"(ptr, ptr, i32, i32) inlinehint

declare dereferenceable_or_null(32) ptr @"_SM16java.lang.ObjectD8toStringL16java.lang.StringEO"(ptr) inlinehint

declare i1 @"_SM33scala.collection.AbstractIterableD8nonEmptyzEO"(ptr)

declare ptr @"_SM34scala.scalanative.runtime.package$D14throwClassCastR_R_nEO"(ptr, ptr, ptr) noinline

declare dereferenceable_or_null(40) ptr @"_SM19java.lang.ThrowableD16fillInStackTraceL19java.lang.ThrowableEO"(ptr)

declare ptr @"_SM35scala.scalanative.runtime.LazyVals$D17wait4NotificationR_jiuEO"(ptr, ptr, i64, i32)

declare dereferenceable_or_null(8) ptr @"_SM35scala.collection.mutable.ListBufferD6removeiL16java.lang.ObjectEO"(ptr, i32)

declare i1 @"__check_class_has_trait"(i32, i32) alwaysinline

declare ptr @"scalanative_throw"(ptr)

declare i64 @"_SM35scala.scalanative.runtime.LazyVals$D3getR_jEO"(ptr, ptr) alwaysinline
@"__modules" = external global [229 x ptr]
@"_SM19java.lang.ThrowableG4type" = external global { { ptr, i32, i32, ptr }, i32, i32, ptr, [4 x ptr] }
@"_SM18java.lang.RunnableG4type" = external global { ptr, i32, i32, ptr }

declare i1 @"_SM16java.lang.ObjectD6equalsL16java.lang.ObjectzEO"(ptr, ptr) inlinehint

declare ptr @"_SM34scala.scalanative.runtime.package$D16throwNullPointernEO"(ptr) noinline

declare ptr @"scalanative_GC_alloc_small"(ptr, i64)

declare void @"_SM16java.lang.ThreadD3runuEO"(ptr)

declare dereferenceable_or_null(8) ptr @"_SM36scala.collection.mutable.ListBuffer$G4load"() noinline
@"_SM52scala.scalanative.concurrent.NativeExecutionContext$G4type" = hidden global { { ptr, i32, i32, ptr }, i32, i32, ptr, [3 x ptr] } { { ptr, i32, i32, ptr } { ptr @"_SM15java.lang.ClassG4type", i32 505, i32 -1, ptr @"_SM7__constG1-1" }, i32 24, i32 505, ptr @"_SM7__constG1-2", [3 x ptr] [ ptr @"_SM16java.lang.ObjectD8hashCodeiEO", ptr @"_SM16java.lang.ObjectD8toStringL16java.lang.StringEO", ptr @"_SM16java.lang.ObjectD6equalsL16java.lang.ObjectzEO" ] }
@"_SM81scala.scalanative.concurrent.NativeExecutionContext$InternalQueueExecutionContextG4type" = hidden global { ptr, i32, i32, ptr } { ptr @"_SM15java.lang.ClassG4type", i32 -137, i32 -1, ptr @"_SM7__constG1-4" }
@"_SM73scala.scalanative.concurrent.NativeExecutionContext$QueueExecutionContextG4type" = hidden global { ptr, i32, i32, ptr } { ptr @"_SM15java.lang.ClassG4type", i32 -136, i32 -1, ptr @"_SM7__constG1-6" }
@"_SM64scala.scalanative.concurrent.NativeExecutionContext$WorkStealingG4type" = hidden global { ptr, i32, i32, ptr } { ptr @"_SM15java.lang.ClassG4type", i32 -135, i32 -1, ptr @"_SM7__constG1-8" }
@"_SM54scala.scalanative.concurrent.QueueExecutionContextImplG4type" = hidden global { { ptr, i32, i32, ptr }, i32, i32, ptr, [3 x ptr] } { { ptr, i32, i32, ptr } { ptr @"_SM15java.lang.ClassG4type", i32 262, i32 -1, ptr @"_SM7__constG2-10" }, i32 40, i32 262, ptr @"_SM7__constG2-11", [3 x ptr] [ ptr @"_SM16java.lang.ObjectD8hashCodeiEO", ptr @"_SM16java.lang.ObjectD8toStringL16java.lang.StringEO", ptr @"_SM16java.lang.ObjectD6equalsL16java.lang.ObjectzEO" ] }
@"_SM60scala.scalanative.concurrent.QueueExecutionContextImpl$QueueG4type" = hidden global { ptr, i32, i32, ptr } { ptr @"_SM15java.lang.ClassG4type", i32 -134, i32 -1, ptr @"_SM7__constG2-13" }
@"_SM61scala.scalanative.concurrent.QueueExecutionContextImpl$Queue$G4type" = hidden global { { ptr, i32, i32, ptr }, i32, i32, ptr, [3 x ptr] } { { ptr, i32, i32, ptr } { ptr @"_SM15java.lang.ClassG4type", i32 573, i32 -1, ptr @"_SM7__constG2-15" }, i32 16, i32 573, ptr @"_SM7__constG2-16", [3 x ptr] [ ptr @"_SM16java.lang.ObjectD8hashCodeiEO", ptr @"_SM16java.lang.ObjectD8toStringL16java.lang.StringEO", ptr @"_SM16java.lang.ObjectD6equalsL16java.lang.ObjectzEO" ] }
@"_SM75scala.scalanative.concurrent.QueueExecutionContextImpl$Queue$SingleThreadedG4type" = hidden global { { ptr, i32, i32, ptr }, i32, i32, ptr, [3 x ptr] } { { ptr, i32, i32, ptr } { ptr @"_SM15java.lang.ClassG4type", i32 253, i32 -1, ptr @"_SM7__constG2-18" }, i32 24, i32 253, ptr @"_SM7__constG1-2", [3 x ptr] [ ptr @"_SM16java.lang.ObjectD8hashCodeiEO", ptr @"_SM16java.lang.ObjectD8toStringL16java.lang.StringEO", ptr @"_SM16java.lang.ObjectD6equalsL16java.lang.ObjectzEO" ] }

define dereferenceable_or_null(24) ptr @"_SM52scala.scalanative.concurrent.NativeExecutionContext$G4load"() noinline personality ptr @__gxx_personality_v0 {
_1.0:
  %_4 = getelementptr ptr, ptr @"__modules", i32 172
  %_5 = load ptr, ptr %_4, !dereferenceable_or_null !{i64 24}
  %_6 = icmp ne ptr %_5, null
  br i1 %_6, label %_2.0, label %_3.0
_2.0:
  ret ptr %_5
_3.0:
  %_7 = call dereferenceable_or_null(24) ptr @"scalanative_GC_alloc_small"(ptr @"_SM52scala.scalanative.concurrent.NativeExecutionContext$G4type", i64 24)
  store ptr %_7, ptr%_4, align 8
  call void @"_SM52scala.scalanative.concurrent.NativeExecutionContext$RE"(ptr dereferenceable_or_null(24) %_7)
  ret ptr %_7
}

define void @"_SM52scala.scalanative.concurrent.NativeExecutionContext$RE"(ptr %_1) personality ptr @__gxx_personality_v0 {
_2000000.0:
  %_2000001 = call dereferenceable_or_null(24) ptr @"_SM52scala.scalanative.concurrent.NativeExecutionContext$G4load"()
  %_4000001 = call dereferenceable_or_null(40) ptr @"scalanative_GC_alloc_small"(ptr @"_SM54scala.scalanative.concurrent.QueueExecutionContextImplG4type", i64 40)
  call void @"_SM33scala.concurrent.ExecutionContextD6$init$uEO"(ptr nonnull dereferenceable(40) %_4000001)
  br label %_6000000.0
_6000000.0:
  %_6000002 = call dereferenceable_or_null(16) ptr @"_SM54scala.scalanative.concurrent.QueueExecutionContextImplD5QueueL61scala.scalanative.concurrent.QueueExecutionContextImpl$Queue$EPT54scala.scalanative.concurrent.QueueExecutionContextImpl"(ptr nonnull dereferenceable(40) %_4000001)
  %_7000002 = icmp eq ptr %_6000002, null
  br i1 %_7000002, label %_8000000.0, label %_9000000.0
_9000000.0:
  br label %_21000000.0
_8000000.0:
  br label %_19000000.0
_19000000.0:
  %_19000001 = call dereferenceable_or_null(40) ptr @"scalanative_GC_alloc_small"(ptr @"_SM30java.lang.NullPointerExceptionG4type", i64 40)
  %_24000004 = getelementptr { { ptr }, ptr, ptr, ptr, i1, i1 }, { { ptr }, ptr, ptr, ptr, i1, i1 }* %_19000001, i32 0, i32 5
  %_24000005 = zext i1 true to i8
  store i8 %_24000005, ptr%_24000004, align 1
  %_24000007 = getelementptr { { ptr }, ptr, ptr, ptr, i1, i1 }, { { ptr }, ptr, ptr, ptr, i1, i1 }* %_19000001, i32 0, i32 4
  %_24000008 = zext i1 true to i8
  store i8 %_24000008, ptr%_24000007, align 1
  %_19000004 = call dereferenceable_or_null(40) ptr @"_SM19java.lang.ThrowableD16fillInStackTraceL19java.lang.ThrowableEO"(ptr nonnull dereferenceable(40) %_19000001)
  br label %_20000000.0
_20000000.0:
  call ptr @"scalanative_throw"(ptr nonnull dereferenceable(40) %_19000001)
  unreachable
_21000000.0:
  %_21000001 = call dereferenceable_or_null(8) ptr @"_SM36scala.collection.mutable.ListBuffer$G4load"()
  %_21000002 = call dereferenceable_or_null(40) ptr @"_SM36scala.collection.mutable.ListBuffer$D5emptyL35scala.collection.mutable.ListBufferEO"(ptr nonnull dereferenceable(8) %_21000001)
  br label %_23000000.0
_23000000.0:
  %_23000001 = call dereferenceable_or_null(24) ptr @"scalanative_GC_alloc_small"(ptr @"_SM75scala.scalanative.concurrent.QueueExecutionContextImpl$Queue$SingleThreadedG4type", i64 24)
  %_24000011 = getelementptr { { ptr }, ptr, ptr }, { { ptr }, ptr, ptr }* %_23000001, i32 0, i32 1
  store ptr %_21000002, ptr%_24000011, align 8
  %_24000013 = getelementptr { { ptr }, ptr, ptr }, { { ptr }, ptr, ptr }* %_23000001, i32 0, i32 2
  store ptr %_6000002, ptr%_24000013, align 8
  %_24000015 = getelementptr { { ptr }, ptr, i1, ptr, i64 }, { { ptr }, ptr, i1, ptr, i64 }* %_4000001, i32 0, i32 1
  store ptr %_23000001, ptr%_24000015, align 8
  %_24000017 = getelementptr { { ptr }, ptr, i1, ptr, i64 }, { { ptr }, ptr, i1, ptr, i64 }* %_4000001, i32 0, i32 2
  %_24000018 = zext i1 false to i8
  store i8 %_24000018, ptr%_24000017, align 1
  %_24000020 = getelementptr { { ptr }, ptr, ptr }, { { ptr }, ptr, ptr }* %_2000001, i32 0, i32 1
  store ptr %_4000001, ptr%_24000020, align 8
  %_24000021 = getelementptr { { ptr }, ptr, ptr }, { { ptr }, ptr, ptr }* %_2000001, i32 0, i32 1
  %_24000001 = load ptr, ptr %_24000021, !dereferenceable_or_null !{i64 8}
  %_24000023 = getelementptr { { ptr }, ptr, ptr }, { { ptr }, ptr, ptr }* %_2000001, i32 0, i32 2
  store ptr %_24000001, ptr%_24000023, align 8
  ret void
}

define i1 @"_SM73scala.scalanative.concurrent.NativeExecutionContext$QueueExecutionContextD8nonEmptyzEO"(ptr %_1) personality ptr @__gxx_personality_v0 {
_2000000.0:
  %_2000006 = icmp ne ptr %_1, null
  br i1 %_2000006, label %_2000004.0, label %_2000005.0
_2000004.0:
  %_2000001 = call i1 @"_SM54scala.scalanative.concurrent.QueueExecutionContextImplD7isEmptyzEO"(ptr dereferenceable_or_null(8) %_1)
  %_2000003 = xor i1 %_2000001, true
  ret i1 %_2000003
_2000005.0:
  call ptr @"_SM34scala.scalanative.runtime.package$D16throwNullPointernEO"(ptr null)
  unreachable
}

define void @"_SM54scala.scalanative.concurrent.QueueExecutionContextImplD11doStealWorkuEPT54scala.scalanative.concurrent.QueueExecutionContextImpl"(ptr %_1) personality ptr @__gxx_personality_v0 {
_2.0:
  br label %_3.0
_3.0:
  %_34 = icmp ne ptr %_1, null
  br i1 %_34, label %_32.0, label %_33.0
_32.0:
  %_35 = getelementptr { { ptr }, ptr, i1, ptr, i64 }, { { ptr }, ptr, i1, ptr, i64 }* %_1, i32 0, i32 1
  %_6 = load ptr, ptr %_35, !dereferenceable_or_null !{i64 8}
  %_37 = icmp ne ptr %_6, null
  br i1 %_37, label %_36.0, label %_33.0
_36.0:
  %_8 = call dereferenceable_or_null(8) ptr @"_SM75scala.scalanative.concurrent.QueueExecutionContextImpl$Queue$SingleThreadedD7dequeueL18java.lang.RunnableEO"(ptr dereferenceable_or_null(8) %_6)
  %_13 = icmp eq ptr null, %_8
  br i1 %_13, label %_9.0, label %_10.0
_9.0:
  br label %_4.0
_10.0:
  br label %_11.0
_11.0:
  br label %_16.0
_16.0:
  %_42 = icmp ne ptr %_8, null
  br i1 %_42, label %_39.0, label %_40.0
_39.0:
  invoke void @"_SM16java.lang.ThreadD3runuEO"(ptr dereferenceable_or_null(8) %_8) to label %_39.1 unwind label %_46.landingpad
_39.1:
  br label %_17.0
_15.0:
  %_18 = phi ptr [%_22, %_44.0], [%_20, %_38.0]
  %_51 = icmp eq ptr %_18, null
  br i1 %_51, label %_48.0, label %_49.0
_48.0:
  br label %_50.0
_49.0:
  %_52 = load ptr, ptr %_18
  %_53 = getelementptr { ptr, i32, i32, ptr }, { ptr, i32, i32, ptr }* %_52, i32 0, i32 1
  %_54 = load i32, ptr %_53
  %_55 = icmp sle i32 417, %_54
  %_56 = icmp sle i32 %_54, 474
  %_57 = and i1 %_55, %_56
  br label %_50.0
_50.0:
  %_24 = phi i1 [%_57, %_49.0], [false, %_48.0]
  br i1 %_24, label %_25.0, label %_26.0
_25.0:
  %_61 = icmp eq ptr %_18, null
  br i1 %_61, label %_59.0, label %_58.0
_58.0:
  %_62 = load ptr, ptr %_18
  %_63 = getelementptr { ptr, i32, i32, ptr }, { ptr, i32, i32, ptr }* %_62, i32 0, i32 1
  %_64 = load i32, ptr %_63
  %_65 = icmp sle i32 417, %_64
  %_66 = icmp sle i32 %_64, 474
  %_67 = and i1 %_65, %_66
  br i1 %_67, label %_59.0, label %_60.0
_59.0:
  call void @"_SM54scala.scalanative.concurrent.QueueExecutionContextImplD13reportFailureL19java.lang.ThrowableuEO"(ptr dereferenceable_or_null(40) %_1, ptr dereferenceable_or_null(40) %_18)
  br label %_17.0
_26.0:
  %_70 = icmp ne ptr %_18, null
  br i1 %_70, label %_69.0, label %_33.0
_69.0:
  call ptr @"scalanative_throw"(ptr dereferenceable_or_null(8) %_18)
  unreachable
_17.0:
  br label %_4.0
_4.0:
  ret void
_33.0:
  call ptr @"_SM34scala.scalanative.runtime.package$D16throwNullPointernEO"(ptr null)
  unreachable
_40.0:
  invoke ptr @"_SM34scala.scalanative.runtime.package$D16throwNullPointernEO"(ptr null) to label %_40.1 unwind label %_73.landingpad
_40.1:
  unreachable
_60.0:
  %_75 = phi ptr [%_18, %_58.0]
  %_76 = phi ptr [@"_SM19java.lang.ThrowableG4type", %_58.0]
  %_77 = load ptr, ptr %_75
  call ptr @"_SM34scala.scalanative.runtime.package$D14throwClassCastR_R_nEO"(ptr null, ptr %_77, ptr %_76)
  unreachable
_38.0:
  %_20 = phi ptr [%_41, %_41.landingpad.succ], [%_73, %_73.landingpad.succ], [%_43, %_43.landingpad.succ]
  br label %_15.0
_44.0:
  %_22 = phi ptr [%_46, %_46.landingpad.succ]
  br label %_15.0
_41.landingpad:
  %_94 = landingpad { ptr, i32 } catch ptr @_ZTIN11scalanative16ExceptionWrapperE
  %_95 = extractvalue { ptr, i32 } %_94, 0
  %_96 = extractvalue { ptr, i32 } %_94, 1
  %_97 = call i32 @llvm.eh.typeid.for(ptr @_ZTIN11scalanative16ExceptionWrapperE)
  %_98 = icmp eq i32 %_96, %_97
  br i1 %_98, label %_41.landingpad.succ, label %_41.landingpad.fail
_41.landingpad.succ:
  %_99 = call ptr @__cxa_begin_catch(ptr %_95)
  %_101 = getelementptr ptr, ptr %_99, i32 1
  %_41 = load ptr, ptr %_101
  call void @__cxa_end_catch()br label %_38.0
_41.landingpad.fail:
  resume { ptr, i32 } %_94
_43.landingpad:
  %_102 = landingpad { ptr, i32 } catch ptr @_ZTIN11scalanative16ExceptionWrapperE
  %_103 = extractvalue { ptr, i32 } %_102, 0
  %_104 = extractvalue { ptr, i32 } %_102, 1
  %_105 = call i32 @llvm.eh.typeid.for(ptr @_ZTIN11scalanative16ExceptionWrapperE)
  %_106 = icmp eq i32 %_104, %_105
  br i1 %_106, label %_43.landingpad.succ, label %_43.landingpad.fail
_43.landingpad.succ:
  %_107 = call ptr @__cxa_begin_catch(ptr %_103)
  %_109 = getelementptr ptr, ptr %_107, i32 1
  %_43 = load ptr, ptr %_109
  call void @__cxa_end_catch()br label %_38.0
_43.landingpad.fail:
  resume { ptr, i32 } %_102
_46.landingpad:
  %_110 = landingpad { ptr, i32 } catch ptr @_ZTIN11scalanative16ExceptionWrapperE
  %_111 = extractvalue { ptr, i32 } %_110, 0
  %_112 = extractvalue { ptr, i32 } %_110, 1
  %_113 = call i32 @llvm.eh.typeid.for(ptr @_ZTIN11scalanative16ExceptionWrapperE)
  %_114 = icmp eq i32 %_112, %_113
  br i1 %_114, label %_46.landingpad.succ, label %_46.landingpad.fail
_46.landingpad.succ:
  %_115 = call ptr @__cxa_begin_catch(ptr %_111)
  %_117 = getelementptr ptr, ptr %_115, i32 1
  %_46 = load ptr, ptr %_117
  call void @__cxa_end_catch()br label %_44.0
_46.landingpad.fail:
  resume { ptr, i32 } %_110
_73.landingpad:
  %_118 = landingpad { ptr, i32 } catch ptr @_ZTIN11scalanative16ExceptionWrapperE
  %_119 = extractvalue { ptr, i32 } %_118, 0
  %_120 = extractvalue { ptr, i32 } %_118, 1
  %_121 = call i32 @llvm.eh.typeid.for(ptr @_ZTIN11scalanative16ExceptionWrapperE)
  %_122 = icmp eq i32 %_120, %_121
  br i1 %_122, label %_73.landingpad.succ, label %_73.landingpad.fail
_73.landingpad.succ:
  %_123 = call ptr @__cxa_begin_catch(ptr %_119)
  %_125 = getelementptr ptr, ptr %_123, i32 1
  %_73 = load ptr, ptr %_125
  call void @__cxa_end_catch()br label %_38.0
_73.landingpad.fail:
  resume { ptr, i32 } %_118
}

define void @"_SM54scala.scalanative.concurrent.QueueExecutionContextImplD12helpCompleteuEO"(ptr %_1) personality ptr @__gxx_personality_v0 {
_2000000.0:
  %_6000003 = icmp ne ptr %_1, null
  br i1 %_6000003, label %_6000001.0, label %_6000002.0
_6000001.0:
  br label %_3000000.0
_3000000.0:
  %_4000001 = call i1 @"_SM73scala.scalanative.concurrent.NativeExecutionContext$QueueExecutionContextD8nonEmptyzEO"(ptr dereferenceable_or_null(40) %_1)
  br i1 %_4000001, label %_5000000.0, label %_6000000.0
_5000000.0:
  call void @"_SM54scala.scalanative.concurrent.QueueExecutionContextImplD9stealWorkiuEO"(ptr dereferenceable_or_null(40) %_1, i32 2147483647)
  br label %_3000000.0
_6000000.0:
  ret void
_6000002.0:
  call ptr @"_SM34scala.scalanative.runtime.package$D16throwNullPointernEO"(ptr null)
  unreachable
}

define void @"_SM54scala.scalanative.concurrent.QueueExecutionContextImplD13reportFailureL19java.lang.ThrowableuEO"(ptr %_1, ptr %_2) personality ptr @__gxx_personality_v0 {
_3000000.0:
  call void @"_SM19java.lang.ThrowableD15printStackTraceuEO"(ptr dereferenceable_or_null(40) %_2)
  ret void
}

define dereferenceable_or_null(16) ptr @"_SM54scala.scalanative.concurrent.QueueExecutionContextImplD5QueueL61scala.scalanative.concurrent.QueueExecutionContextImpl$Queue$EPT54scala.scalanative.concurrent.QueueExecutionContextImpl"(ptr %_1) alwaysinline personality ptr @__gxx_personality_v0 {
_2.0:
  br label %_3.0
_3.0:
  br i1 true, label %_4.0, label %_5.0
_4.0:
  %_74 = icmp ne ptr %_1, null
  br i1 %_74, label %_72.0, label %_73.0
_72.0:
  %_75 = getelementptr { { ptr }, ptr, i1, ptr, i64 }, { { ptr }, ptr, i1, ptr, i64 }* %_1, i32 0, i32 4
  %_9 = call i64 @"_SM35scala.scalanative.runtime.LazyVals$D3getR_jEO"(ptr nonnull dereferenceable(8) @"_SM35scala.scalanative.runtime.LazyVals$G8instance", ptr %_75)
  %_12 = call i64 @"_SM23scala.runtime.LazyVals$D5STATEjijEO"(ptr nonnull dereferenceable(8) @"_SM23scala.runtime.LazyVals$G8instance", i64 %_9, i32 0)
  %_17 = sext i32 3 to i64
  %_18 = icmp eq i64 %_12, %_17
  br i1 %_18, label %_13.0, label %_14.0
_13.0:
  %_76 = getelementptr { { ptr }, ptr, i1, ptr, i64 }, { { ptr }, ptr, i1, ptr, i64 }* %_1, i32 0, i32 3
  %_19 = load ptr, ptr %_76, !dereferenceable_or_null !{i64 16}
  ret ptr %_19
_14.0:
  %_25 = sext i32 0 to i64
  %_26 = icmp eq i64 %_12, %_25
  br i1 %_26, label %_21.0, label %_22.0
_21.0:
  %_77 = getelementptr { { ptr }, ptr, i1, ptr, i64 }, { { ptr }, ptr, i1, ptr, i64 }* %_1, i32 0, i32 4
  %_34 = call i1 @"_SM35scala.scalanative.runtime.LazyVals$D3CASR_jiizEO"(ptr nonnull dereferenceable(8) @"_SM35scala.scalanative.runtime.LazyVals$G8instance", ptr %_77, i64 %_9, i32 1, i32 0)
  br i1 %_34, label %_27.0, label %_28.0
_27.0:
  br label %_36.0
_36.0:
  %_41 = invoke dereferenceable_or_null(16) ptr @"scalanative_GC_alloc_small"(ptr @"_SM61scala.scalanative.concurrent.QueueExecutionContextImpl$Queue$G4type", i64 16) to label %_36.1 unwind label %_79.landingpad
_36.1:
  invoke void @"_SM61scala.scalanative.concurrent.QueueExecutionContextImpl$Queue$RL54scala.scalanative.concurrent.QueueExecutionContextImplE"(ptr nonnull dereferenceable(16) %_41, ptr dereferenceable_or_null(40) %_1) to label %_36.2 unwind label %_82.landingpad
_36.2:
  %_87 = getelementptr { { ptr }, ptr, i1, ptr, i64 }, { { ptr }, ptr, i1, ptr, i64 }* %_1, i32 0, i32 3
  store ptr %_41, ptr%_87, align 8
  %_94 = getelementptr { { ptr }, ptr, i1, ptr, i64 }, { { ptr }, ptr, i1, ptr, i64 }* %_1, i32 0, i32 4
  invoke void @"_SM35scala.scalanative.runtime.LazyVals$D7setFlagR_iiuEO"(ptr nonnull dereferenceable(8) @"_SM35scala.scalanative.runtime.LazyVals$G8instance", ptr %_94, i32 3, i32 0) to label %_36.3 unwind label %_100.landingpad
_36.3:
  ret ptr %_41
_35.0:
  %_38 = phi ptr [%_52, %_98.0], [%_50, %_96.0], [%_48, %_92.0], [%_46, %_90.0], [%_44, %_84.0], [%_42, %_80.0], [%_40, %_78.0]
  %_105 = icmp eq ptr %_38, null
  br i1 %_105, label %_102.0, label %_103.0
_102.0:
  br label %_104.0
_103.0:
  %_106 = load ptr, ptr %_38
  %_107 = getelementptr { ptr, i32, i32, ptr }, { ptr, i32, i32, ptr }* %_106, i32 0, i32 1
  %_108 = load i32, ptr %_107
  %_109 = icmp sle i32 417, %_108
  %_110 = icmp sle i32 %_108, 474
  %_111 = and i1 %_109, %_110
  br label %_104.0
_104.0:
  %_55 = phi i1 [%_111, %_103.0], [false, %_102.0]
  br i1 %_55, label %_56.0, label %_57.0
_56.0:
  %_115 = icmp eq ptr %_38, null
  br i1 %_115, label %_113.0, label %_112.0
_112.0:
  %_116 = load ptr, ptr %_38
  %_117 = getelementptr { ptr, i32, i32, ptr }, { ptr, i32, i32, ptr }* %_116, i32 0, i32 1
  %_118 = load i32, ptr %_117
  %_119 = icmp sle i32 417, %_118
  %_120 = icmp sle i32 %_118, 474
  %_121 = and i1 %_119, %_120
  br i1 %_121, label %_113.0, label %_114.0
_113.0:
  %_122 = getelementptr { { ptr }, ptr, i1, ptr, i64 }, { { ptr }, ptr, i1, ptr, i64 }* %_1, i32 0, i32 4
  call void @"_SM35scala.scalanative.runtime.LazyVals$D7setFlagR_iiuEO"(ptr nonnull dereferenceable(8) @"_SM35scala.scalanative.runtime.LazyVals$G8instance", ptr %_122, i32 0, i32 0)
  %_125 = icmp ne ptr %_38, null
  br i1 %_125, label %_124.0, label %_73.0
_124.0:
  call ptr @"scalanative_throw"(ptr dereferenceable_or_null(40) %_38)
  unreachable
_57.0:
  %_128 = icmp ne ptr %_38, null
  br i1 %_128, label %_127.0, label %_73.0
_127.0:
  call ptr @"scalanative_throw"(ptr dereferenceable_or_null(8) %_38)
  unreachable
_28.0:
  br label %_29.0
_29.0:
  br label %_23.0
_22.0:
  %_130 = getelementptr { { ptr }, ptr, i1, ptr, i64 }, { { ptr }, ptr, i1, ptr, i64 }* %_1, i32 0, i32 4
  call void @"_SM35scala.scalanative.runtime.LazyVals$D17wait4NotificationR_jiuEO"(ptr nonnull dereferenceable(8) @"_SM35scala.scalanative.runtime.LazyVals$G8instance", ptr %_130, i64 %_9, i32 0)
  br label %_23.0
_23.0:
  br label %_15.0
_15.0:
  br label %_3.0
_5.0:
  ret ptr zeroinitializer
_73.0:
  call ptr @"_SM34scala.scalanative.runtime.package$D16throwNullPointernEO"(ptr null)
  unreachable
_114.0:
  %_133 = phi ptr [%_38, %_112.0]
  %_134 = phi ptr [@"_SM19java.lang.ThrowableG4type", %_112.0]
  %_135 = load ptr, ptr %_133
  call ptr @"_SM34scala.scalanative.runtime.package$D14throwClassCastR_R_nEO"(ptr null, ptr %_135, ptr %_134)
  unreachable
_78.0:
  %_40 = phi ptr [%_79, %_79.landingpad.succ]
  br label %_35.0
_80.0:
  %_42 = phi ptr [%_82, %_82.landingpad.succ]
  br label %_35.0
_84.0:
  %_44 = phi ptr [%_86, %_86.landingpad.succ], [%_88, %_88.landingpad.succ]
  br label %_35.0
_90.0:
  %_46 = phi ptr [%_91, %_91.landingpad.succ]
  br label %_35.0
_92.0:
  %_48 = phi ptr [%_93, %_93.landingpad.succ], [%_95, %_95.landingpad.succ]
  br label %_35.0
_96.0:
  %_50 = phi ptr [%_97, %_97.landingpad.succ]
  br label %_35.0
_98.0:
  %_52 = phi ptr [%_100, %_100.landingpad.succ]
  br label %_35.0
_79.landingpad:
  %_169 = landingpad { ptr, i32 } catch ptr @_ZTIN11scalanative16ExceptionWrapperE
  %_170 = extractvalue { ptr, i32 } %_169, 0
  %_171 = extractvalue { ptr, i32 } %_169, 1
  %_172 = call i32 @llvm.eh.typeid.for(ptr @_ZTIN11scalanative16ExceptionWrapperE)
  %_173 = icmp eq i32 %_171, %_172
  br i1 %_173, label %_79.landingpad.succ, label %_79.landingpad.fail
_79.landingpad.succ:
  %_174 = call ptr @__cxa_begin_catch(ptr %_170)
  %_176 = getelementptr ptr, ptr %_174, i32 1
  %_79 = load ptr, ptr %_176
  call void @__cxa_end_catch()br label %_78.0
_79.landingpad.fail:
  resume { ptr, i32 } %_169
_82.landingpad:
  %_177 = landingpad { ptr, i32 } catch ptr @_ZTIN11scalanative16ExceptionWrapperE
  %_178 = extractvalue { ptr, i32 } %_177, 0
  %_179 = extractvalue { ptr, i32 } %_177, 1
  %_180 = call i32 @llvm.eh.typeid.for(ptr @_ZTIN11scalanative16ExceptionWrapperE)
  %_181 = icmp eq i32 %_179, %_180
  br i1 %_181, label %_82.landingpad.succ, label %_82.landingpad.fail
_82.landingpad.succ:
  %_182 = call ptr @__cxa_begin_catch(ptr %_178)
  %_184 = getelementptr ptr, ptr %_182, i32 1
  %_82 = load ptr, ptr %_184
  call void @__cxa_end_catch()br label %_80.0
_82.landingpad.fail:
  resume { ptr, i32 } %_177
_86.landingpad:
  %_185 = landingpad { ptr, i32 } catch ptr @_ZTIN11scalanative16ExceptionWrapperE
  %_186 = extractvalue { ptr, i32 } %_185, 0
  %_187 = extractvalue { ptr, i32 } %_185, 1
  %_188 = call i32 @llvm.eh.typeid.for(ptr @_ZTIN11scalanative16ExceptionWrapperE)
  %_189 = icmp eq i32 %_187, %_188
  br i1 %_189, label %_86.landingpad.succ, label %_86.landingpad.fail
_86.landingpad.succ:
  %_190 = call ptr @__cxa_begin_catch(ptr %_186)
  %_192 = getelementptr ptr, ptr %_190, i32 1
  %_86 = load ptr, ptr %_192
  call void @__cxa_end_catch()br label %_84.0
_86.landingpad.fail:
  resume { ptr, i32 } %_185
_88.landingpad:
  %_193 = landingpad { ptr, i32 } catch ptr @_ZTIN11scalanative16ExceptionWrapperE
  %_194 = extractvalue { ptr, i32 } %_193, 0
  %_195 = extractvalue { ptr, i32 } %_193, 1
  %_196 = call i32 @llvm.eh.typeid.for(ptr @_ZTIN11scalanative16ExceptionWrapperE)
  %_197 = icmp eq i32 %_195, %_196
  br i1 %_197, label %_88.landingpad.succ, label %_88.landingpad.fail
_88.landingpad.succ:
  %_198 = call ptr @__cxa_begin_catch(ptr %_194)
  %_200 = getelementptr ptr, ptr %_198, i32 1
  %_88 = load ptr, ptr %_200
  call void @__cxa_end_catch()br label %_84.0
_88.landingpad.fail:
  resume { ptr, i32 } %_193
_91.landingpad:
  %_201 = landingpad { ptr, i32 } catch ptr @_ZTIN11scalanative16ExceptionWrapperE
  %_202 = extractvalue { ptr, i32 } %_201, 0
  %_203 = extractvalue { ptr, i32 } %_201, 1
  %_204 = call i32 @llvm.eh.typeid.for(ptr @_ZTIN11scalanative16ExceptionWrapperE)
  %_205 = icmp eq i32 %_203, %_204
  br i1 %_205, label %_91.landingpad.succ, label %_91.landingpad.fail
_91.landingpad.succ:
  %_206 = call ptr @__cxa_begin_catch(ptr %_202)
  %_208 = getelementptr ptr, ptr %_206, i32 1
  %_91 = load ptr, ptr %_208
  call void @__cxa_end_catch()br label %_90.0
_91.landingpad.fail:
  resume { ptr, i32 } %_201
_93.landingpad:
  %_209 = landingpad { ptr, i32 } catch ptr @_ZTIN11scalanative16ExceptionWrapperE
  %_210 = extractvalue { ptr, i32 } %_209, 0
  %_211 = extractvalue { ptr, i32 } %_209, 1
  %_212 = call i32 @llvm.eh.typeid.for(ptr @_ZTIN11scalanative16ExceptionWrapperE)
  %_213 = icmp eq i32 %_211, %_212
  br i1 %_213, label %_93.landingpad.succ, label %_93.landingpad.fail
_93.landingpad.succ:
  %_214 = call ptr @__cxa_begin_catch(ptr %_210)
  %_216 = getelementptr ptr, ptr %_214, i32 1
  %_93 = load ptr, ptr %_216
  call void @__cxa_end_catch()br label %_92.0
_93.landingpad.fail:
  resume { ptr, i32 } %_209
_95.landingpad:
  %_217 = landingpad { ptr, i32 } catch ptr @_ZTIN11scalanative16ExceptionWrapperE
  %_218 = extractvalue { ptr, i32 } %_217, 0
  %_219 = extractvalue { ptr, i32 } %_217, 1
  %_220 = call i32 @llvm.eh.typeid.for(ptr @_ZTIN11scalanative16ExceptionWrapperE)
  %_221 = icmp eq i32 %_219, %_220
  br i1 %_221, label %_95.landingpad.succ, label %_95.landingpad.fail
_95.landingpad.succ:
  %_222 = call ptr @__cxa_begin_catch(ptr %_218)
  %_224 = getelementptr ptr, ptr %_222, i32 1
  %_95 = load ptr, ptr %_224
  call void @__cxa_end_catch()br label %_92.0
_95.landingpad.fail:
  resume { ptr, i32 } %_217
_97.landingpad:
  %_225 = landingpad { ptr, i32 } catch ptr @_ZTIN11scalanative16ExceptionWrapperE
  %_226 = extractvalue { ptr, i32 } %_225, 0
  %_227 = extractvalue { ptr, i32 } %_225, 1
  %_228 = call i32 @llvm.eh.typeid.for(ptr @_ZTIN11scalanative16ExceptionWrapperE)
  %_229 = icmp eq i32 %_227, %_228
  br i1 %_229, label %_97.landingpad.succ, label %_97.landingpad.fail
_97.landingpad.succ:
  %_230 = call ptr @__cxa_begin_catch(ptr %_226)
  %_232 = getelementptr ptr, ptr %_230, i32 1
  %_97 = load ptr, ptr %_232
  call void @__cxa_end_catch()br label %_96.0
_97.landingpad.fail:
  resume { ptr, i32 } %_225
_100.landingpad:
  %_233 = landingpad { ptr, i32 } catch ptr @_ZTIN11scalanative16ExceptionWrapperE
  %_234 = extractvalue { ptr, i32 } %_233, 0
  %_235 = extractvalue { ptr, i32 } %_233, 1
  %_236 = call i32 @llvm.eh.typeid.for(ptr @_ZTIN11scalanative16ExceptionWrapperE)
  %_237 = icmp eq i32 %_235, %_236
  br i1 %_237, label %_100.landingpad.succ, label %_100.landingpad.fail
_100.landingpad.succ:
  %_238 = call ptr @__cxa_begin_catch(ptr %_234)
  %_240 = getelementptr ptr, ptr %_238, i32 1
  %_100 = load ptr, ptr %_240
  call void @__cxa_end_catch()br label %_98.0
_100.landingpad.fail:
  resume { ptr, i32 } %_233
}

define i1 @"_SM54scala.scalanative.concurrent.QueueExecutionContextImplD7isEmptyzEO"(ptr %_1) personality ptr @__gxx_personality_v0 {
_2000000.0:
  %_2000005 = icmp ne ptr %_1, null
  br i1 %_2000005, label %_2000003.0, label %_2000004.0
_2000003.0:
  %_2000006 = getelementptr { { ptr }, ptr, i1, ptr, i64 }, { { ptr }, ptr, i1, ptr, i64 }* %_1, i32 0, i32 1
  %_2000001 = load ptr, ptr %_2000006, !dereferenceable_or_null !{i64 8}
  %_2000002 = call i1 @"_SM75scala.scalanative.concurrent.QueueExecutionContextImpl$Queue$SingleThreadedD7isEmptyzEO"(ptr dereferenceable_or_null(8) %_2000001)
  ret i1 %_2000002
_2000004.0:
  call ptr @"_SM34scala.scalanative.runtime.package$D16throwNullPointernEO"(ptr null)
  unreachable
}

define void @"_SM54scala.scalanative.concurrent.QueueExecutionContextImplD9stealWorkiuEO"(ptr %_1, i32 %_2) personality ptr @__gxx_personality_v0 {
_3000000.0:
  %_14000004 = icmp ne ptr %_1, null
  br i1 %_14000004, label %_14000002.0, label %_14000003.0
_14000002.0:
  %_3000003 = icmp sgt i32 %_2, 0
  br i1 %_3000003, label %_4000000.0, label %_5000000.0
_4000000.0:
  br label %_6000000.0
_6000000.0:
  %_6000001 = phi i32 [0, %_4000000.0], [%_11000003, %_11000000.0]
  %_13000001 = call i1 @"_SM73scala.scalanative.concurrent.NativeExecutionContext$QueueExecutionContextD8nonEmptyzEO"(ptr dereferenceable_or_null(40) %_1)
  br i1 %_13000001, label %_8000000.0, label %_9000000.0
_8000000.0:
  %_8000002 = icmp slt i32 %_6000001, %_2
  br label %_10000000.0
_9000000.0:
  br label %_10000000.0
_10000000.0:
  %_10000001 = phi i1 [false, %_9000000.0], [%_8000002, %_8000000.0]
  br i1 %_10000001, label %_11000000.0, label %_12000000.0
_11000000.0:
  call void @"_SM54scala.scalanative.concurrent.QueueExecutionContextImplD11doStealWorkuEPT54scala.scalanative.concurrent.QueueExecutionContextImpl"(ptr dereferenceable_or_null(40) %_1)
  %_11000003 = add i32 %_6000001, 1
  br label %_6000000.0
_12000000.0:
  br label %_14000000.0
_5000000.0:
  br label %_14000000.0
_14000000.0:
  %_14000001 = phi i32 [0, %_5000000.0], [%_6000001, %_12000000.0]
  ret void
_14000003.0:
  call ptr @"_SM34scala.scalanative.runtime.package$D16throwNullPointernEO"(ptr null)
  unreachable
}

define void @"_SM61scala.scalanative.concurrent.QueueExecutionContextImpl$Queue$RL54scala.scalanative.concurrent.QueueExecutionContextImplE"(ptr %_1, ptr %_2) personality ptr @__gxx_personality_v0 {
_3000000.0:
  %_17000004 = icmp ne ptr %_1, null
  br i1 %_17000004, label %_17000002.0, label %_17000003.0
_17000002.0:
  %_3000002 = icmp eq ptr %_2, null
  br i1 %_3000002, label %_4000000.0, label %_5000000.0
_5000000.0:
  br label %_17000000.0
_17000000.0:
  %_17000006 = getelementptr { { ptr }, ptr }, { { ptr }, ptr }* %_1, i32 0, i32 1
  store ptr %_2, ptr%_17000006, align 8
  ret void
_4000000.0:
  br label %_15000000.0
_15000000.0:
  %_15000001 = call dereferenceable_or_null(40) ptr @"scalanative_GC_alloc_small"(ptr @"_SM30java.lang.NullPointerExceptionG4type", i64 40)
  %_17000008 = getelementptr { { ptr }, ptr, ptr, ptr, i1, i1 }, { { ptr }, ptr, ptr, ptr, i1, i1 }* %_15000001, i32 0, i32 5
  %_17000009 = zext i1 true to i8
  store i8 %_17000009, ptr%_17000008, align 1
  %_17000011 = getelementptr { { ptr }, ptr, ptr, ptr, i1, i1 }, { { ptr }, ptr, ptr, ptr, i1, i1 }* %_15000001, i32 0, i32 4
  %_17000012 = zext i1 true to i8
  store i8 %_17000012, ptr%_17000011, align 1
  %_15000004 = call dereferenceable_or_null(40) ptr @"_SM19java.lang.ThrowableD16fillInStackTraceL19java.lang.ThrowableEO"(ptr nonnull dereferenceable(40) %_15000001)
  br label %_16000000.0
_16000000.0:
  call ptr @"scalanative_throw"(ptr nonnull dereferenceable(40) %_15000001)
  unreachable
_17000003.0:
  call ptr @"_SM34scala.scalanative.runtime.package$D16throwNullPointernEO"(ptr null)
  unreachable
}

define dereferenceable_or_null(8) ptr @"_SM75scala.scalanative.concurrent.QueueExecutionContextImpl$Queue$SingleThreadedD7dequeueL18java.lang.RunnableEO"(ptr %_1) personality ptr @__gxx_personality_v0 {
_2000000.0:
  %_5000004 = icmp ne ptr %_1, null
  br i1 %_5000004, label %_5000002.0, label %_5000003.0
_5000002.0:
  %_5000005 = getelementptr { { ptr }, ptr, ptr }, { { ptr }, ptr, ptr }* %_1, i32 0, i32 1
  %_2000001 = load ptr, ptr %_5000005, !dereferenceable_or_null !{i64 40}
  %_2000002 = call i1 @"_SM33scala.collection.AbstractIterableD8nonEmptyzEO"(ptr dereferenceable_or_null(40) %_2000001)
  br i1 %_2000002, label %_3000000.0, label %_4000000.0
_3000000.0:
  %_5000006 = getelementptr { { ptr }, ptr, ptr }, { { ptr }, ptr, ptr }* %_1, i32 0, i32 1
  %_3000001 = load ptr, ptr %_5000006, !dereferenceable_or_null !{i64 40}
  %_3000002 = call dereferenceable_or_null(8) ptr @"_SM35scala.collection.mutable.ListBufferD6removeiL16java.lang.ObjectEO"(ptr dereferenceable_or_null(40) %_3000001, i32 0)
  %_5000010 = icmp eq ptr %_3000002, null
  br i1 %_5000010, label %_5000008.0, label %_5000007.0
_5000007.0:
  %_5000011 = load ptr, ptr %_3000002
  %_5000012 = getelementptr { ptr, i32, i32, ptr }, { ptr, i32, i32, ptr }* %_5000011, i32 0, i32 1
  %_5000013 = load i32, ptr %_5000012
  %_5000014 = call i1 @"__check_class_has_trait"(i32 %_5000013, i32 14)
  br i1 %_5000014, label %_5000008.0, label %_5000009.0
_5000008.0:
  br label %_5000000.0
_4000000.0:
  br label %_5000000.0
_5000000.0:
  %_5000001 = phi ptr [null, %_4000000.0], [%_3000002, %_5000008.0]
  ret ptr %_5000001
_5000003.0:
  call ptr @"_SM34scala.scalanative.runtime.package$D16throwNullPointernEO"(ptr null)
  unreachable
_5000009.0:
  %_5000016 = phi ptr [%_3000002, %_5000007.0]
  %_5000017 = phi ptr [@"_SM18java.lang.RunnableG4type", %_5000007.0]
  %_5000018 = load ptr, ptr %_5000016
  call ptr @"_SM34scala.scalanative.runtime.package$D14throwClassCastR_R_nEO"(ptr null, ptr %_5000018, ptr %_5000017)
  unreachable
}

define i1 @"_SM75scala.scalanative.concurrent.QueueExecutionContextImpl$Queue$SingleThreadedD7isEmptyzEO"(ptr %_1) personality ptr @__gxx_personality_v0 {
_2000000.0:
  %_2000005 = icmp ne ptr %_1, null
  br i1 %_2000005, label %_2000003.0, label %_2000004.0
_2000003.0:
  %_2000006 = getelementptr { { ptr }, ptr, ptr }, { { ptr }, ptr, ptr }* %_1, i32 0, i32 1
  %_2000001 = load ptr, ptr %_2000006, !dereferenceable_or_null !{i64 40}
  %_2000002 = call i1 @"_SM35scala.collection.mutable.ListBufferD7isEmptyzEO"(ptr dereferenceable_or_null(40) %_2000001)
  ret i1 %_2000002
_2000004.0:
  call ptr @"_SM34scala.scalanative.runtime.package$D16throwNullPointernEO"(ptr null)
  unreachable
}