declare i32 @llvm.eh.typeid.for(ptr)
declare i32 @__gxx_personality_v0(...)
declare ptr @__cxa_begin_catch(ptr)
declare void @__cxa_end_catch()
@_ZTIN11scalanative16ExceptionWrapperE = external constant { ptr, ptr, ptr }

@"_SM7__constG1-0" = private unnamed_addr constant { ptr, i32, i32, [41 x i16] } { ptr @"_SM35scala.scalanative.runtime.CharArrayG4type", i32 41, i32 2, [41 x i16] [ i16 106, i16 97, i16 118, i16 97, i16 46, i16 110, i16 105, i16 111, i16 46, i16 99, i16 104, i16 97, i16 114, i16 115, i16 101, i16 116, i16 46, i16 67, i16 104, i16 97, i16 114, i16 97, i16 99, i16 116, i16 101, i16 114, i16 67, i16 111, i16 100, i16 105, i16 110, i16 103, i16 69, i16 120, i16 99, i16 101, i16 112, i16 116, i16 105, i16 111, i16 110 ] }
@"_SM7__constG1-1" = private unnamed_addr constant { ptr, ptr, i32, i32, i32 } { ptr @"_SM16java.lang.StringG4type", ptr @"_SM7__constG1-0", i32 0, i32 41, i32 -364395260 }
@"_SM7__constG1-2" = private unnamed_addr constant [4 x i32] [ i32 8, i32 16, i32 24, i32 -1 ]
@"_SM7__constG1-3" = private unnamed_addr constant { ptr, i32, i32, [24 x i16] } { ptr @"_SM35scala.scalanative.runtime.CharArrayG4type", i32 24, i32 2, [24 x i16] [ i16 106, i16 97, i16 118, i16 97, i16 46, i16 110, i16 105, i16 111, i16 46, i16 99, i16 104, i16 97, i16 114, i16 115, i16 101, i16 116, i16 46, i16 67, i16 104, i16 97, i16 114, i16 115, i16 101, i16 116 ] }
@"_SM7__constG1-4" = private unnamed_addr constant { ptr, ptr, i32, i32, i32 } { ptr @"_SM16java.lang.StringG4type", ptr @"_SM7__constG1-3", i32 0, i32 24, i32 1479543012 }
@"_SM7__constG1-5" = private unnamed_addr constant { ptr, i32, i32, [25 x i16] } { ptr @"_SM35scala.scalanative.runtime.CharArrayG4type", i32 25, i32 2, [25 x i16] [ i16 106, i16 97, i16 118, i16 97, i16 46, i16 110, i16 105, i16 111, i16 46, i16 99, i16 104, i16 97, i16 114, i16 115, i16 101, i16 116, i16 46, i16 67, i16 104, i16 97, i16 114, i16 115, i16 101, i16 116, i16 36 ] }
@"_SM7__constG1-6" = private unnamed_addr constant { ptr, ptr, i32, i32, i32 } { ptr @"_SM16java.lang.StringG4type", ptr @"_SM7__constG1-5", i32 0, i32 25, i32 -1378806848 }
@"_SM7__constG1-7" = private unnamed_addr constant [1 x i32] [ i32 -1 ]
@"_SM7__constG1-8" = private unnamed_addr constant { ptr, i32, i32, [34 x i16] } { ptr @"_SM35scala.scalanative.runtime.CharArrayG4type", i32 34, i32 2, [34 x i16] [ i16 106, i16 97, i16 118, i16 97, i16 46, i16 110, i16 105, i16 111, i16 46, i16 99, i16 104, i16 97, i16 114, i16 115, i16 101, i16 116, i16 46, i16 67, i16 104, i16 97, i16 114, i16 115, i16 101, i16 116, i16 36, i16 36, i16 76, i16 97, i16 109, i16 98, i16 100, i16 97, i16 36, i16 49 ] }
@"_SM7__constG1-9" = private unnamed_addr constant { ptr, ptr, i32, i32, i32 } { ptr @"_SM16java.lang.StringG4type", ptr @"_SM7__constG1-8", i32 0, i32 34, i32 1930602264 }
@"_SM7__constG2-10" = private unnamed_addr constant [2 x i32] [ i32 8, i32 -1 ]
@"_SM7__constG2-11" = private unnamed_addr constant { ptr, i32, i32, [31 x i16] } { ptr @"_SM35scala.scalanative.runtime.CharArrayG4type", i32 31, i32 2, [31 x i16] [ i16 106, i16 97, i16 118, i16 97, i16 46, i16 110, i16 105, i16 111, i16 46, i16 99, i16 104, i16 97, i16 114, i16 115, i16 101, i16 116, i16 46, i16 67, i16 104, i16 97, i16 114, i16 115, i16 101, i16 116, i16 68, i16 101, i16 99, i16 111, i16 100, i16 101, i16 114 ] }
@"_SM7__constG2-12" = private unnamed_addr constant { ptr, ptr, i32, i32, i32 } { ptr @"_SM16java.lang.StringG4type", ptr @"_SM7__constG2-11", i32 0, i32 31, i32 1592472256 }
@"_SM7__constG2-13" = private unnamed_addr constant [5 x i32] [ i32 16, i32 24, i32 32, i32 48, i32 -1 ]
@"_SM7__constG2-14" = private unnamed_addr constant { ptr, i32, i32, [31 x i16] } { ptr @"_SM35scala.scalanative.runtime.CharArrayG4type", i32 31, i32 2, [31 x i16] [ i16 106, i16 97, i16 118, i16 97, i16 46, i16 110, i16 105, i16 111, i16 46, i16 99, i16 104, i16 97, i16 114, i16 115, i16 101, i16 116, i16 46, i16 67, i16 104, i16 97, i16 114, i16 115, i16 101, i16 116, i16 69, i16 110, i16 99, i16 111, i16 100, i16 101, i16 114 ] }
@"_SM7__constG2-15" = private unnamed_addr constant { ptr, ptr, i32, i32, i32 } { ptr @"_SM16java.lang.StringG4type", ptr @"_SM7__constG2-14", i32 0, i32 31, i32 -1557329000 }
@"_SM7__constG2-16" = private unnamed_addr constant { ptr, i32, i32, [38 x i16] } { ptr @"_SM35scala.scalanative.runtime.CharArrayG4type", i32 38, i32 2, [38 x i16] [ i16 106, i16 97, i16 118, i16 97, i16 46, i16 110, i16 105, i16 111, i16 46, i16 99, i16 104, i16 97, i16 114, i16 115, i16 101, i16 116, i16 46, i16 67, i16 111, i16 100, i16 101, i16 114, i16 77, i16 97, i16 108, i16 102, i16 117, i16 110, i16 99, i16 116, i16 105, i16 111, i16 110, i16 69, i16 114, i16 114, i16 111, i16 114 ] }
@"_SM7__constG2-17" = private unnamed_addr constant { ptr, ptr, i32, i32, i32 } { ptr @"_SM16java.lang.StringG4type", ptr @"_SM7__constG2-16", i32 0, i32 38, i32 -1965373803 }
@"_SM7__constG2-18" = private unnamed_addr constant { ptr, i32, i32, [28 x i16] } { ptr @"_SM35scala.scalanative.runtime.CharArrayG4type", i32 28, i32 2, [28 x i16] [ i16 106, i16 97, i16 118, i16 97, i16 46, i16 110, i16 105, i16 111, i16 46, i16 99, i16 104, i16 97, i16 114, i16 115, i16 101, i16 116, i16 46, i16 67, i16 111, i16 100, i16 101, i16 114, i16 82, i16 101, i16 115, i16 117, i16 108, i16 116 ] }
@"_SM7__constG2-19" = private unnamed_addr constant { ptr, ptr, i32, i32, i32 } { ptr @"_SM16java.lang.StringG4type", ptr @"_SM7__constG2-18", i32 0, i32 28, i32 199847994 }
@"_SM7__constG2-20" = private unnamed_addr constant { ptr, i32, i32, [29 x i16] } { ptr @"_SM35scala.scalanative.runtime.CharArrayG4type", i32 29, i32 2, [29 x i16] [ i16 106, i16 97, i16 118, i16 97, i16 46, i16 110, i16 105, i16 111, i16 46, i16 99, i16 104, i16 97, i16 114, i16 115, i16 101, i16 116, i16 46, i16 67, i16 111, i16 100, i16 101, i16 114, i16 82, i16 101, i16 115, i16 117, i16 108, i16 116, i16 36 ] }
@"_SM7__constG2-21" = private unnamed_addr constant { ptr, ptr, i32, i32, i32 } { ptr @"_SM16java.lang.StringG4type", ptr @"_SM7__constG2-20", i32 0, i32 29, i32 1900320554 }
@"_SM7__constG2-22" = private unnamed_addr constant [13 x i32] [ i32 8, i32 16, i32 24, i32 32, i32 40, i32 48, i32 56, i32 64, i32 72, i32 80, i32 88, i32 96, i32 -1 ]
@"_SM7__constG2-23" = private unnamed_addr constant { ptr, i32, i32, [39 x i16] } { ptr @"_SM35scala.scalanative.runtime.CharArrayG4type", i32 39, i32 2, [39 x i16] [ i16 106, i16 97, i16 118, i16 97, i16 46, i16 110, i16 105, i16 111, i16 46, i16 99, i16 104, i16 97, i16 114, i16 115, i16 101, i16 116, i16 46, i16 67, i16 111, i16 100, i16 101, i16 114, i16 82, i16 101, i16 115, i16 117, i16 108, i16 116, i16 36, i16 36, i16 36, i16 76, i16 97, i16 109, i16 98, i16 100, i16 97, i16 36, i16 49 ] }
@"_SM7__constG2-24" = private unnamed_addr constant { ptr, ptr, i32, i32, i32 } { ptr @"_SM16java.lang.StringG4type", ptr @"_SM7__constG2-23", i32 0, i32 39, i32 -724134434 }
@"_SM7__constG2-25" = private unnamed_addr constant { ptr, i32, i32, [34 x i16] } { ptr @"_SM35scala.scalanative.runtime.CharArrayG4type", i32 34, i32 2, [34 x i16] [ i16 106, i16 97, i16 118, i16 97, i16 46, i16 110, i16 105, i16 111, i16 46, i16 99, i16 104, i16 97, i16 114, i16 115, i16 101, i16 116, i16 46, i16 67, i16 111, i16 100, i16 105, i16 110, i16 103, i16 69, i16 114, i16 114, i16 111, i16 114, i16 65, i16 99, i16 116, i16 105, i16 111, i16 110 ] }
@"_SM7__constG2-26" = private unnamed_addr constant { ptr, ptr, i32, i32, i32 } { ptr @"_SM16java.lang.StringG4type", ptr @"_SM7__constG2-25", i32 0, i32 34, i32 -755311060 }
@"_SM7__constG2-27" = private unnamed_addr constant { ptr, i32, i32, [35 x i16] } { ptr @"_SM35scala.scalanative.runtime.CharArrayG4type", i32 35, i32 2, [35 x i16] [ i16 106, i16 97, i16 118, i16 97, i16 46, i16 110, i16 105, i16 111, i16 46, i16 99, i16 104, i16 97, i16 114, i16 115, i16 101, i16 116, i16 46, i16 67, i16 111, i16 100, i16 105, i16 110, i16 103, i16 69, i16 114, i16 114, i16 111, i16 114, i16 65, i16 99, i16 116, i16 105, i16 111, i16 110, i16 36 ] }
@"_SM7__constG2-28" = private unnamed_addr constant { ptr, ptr, i32, i32, i32 } { ptr @"_SM16java.lang.StringG4type", ptr @"_SM7__constG2-27", i32 0, i32 35, i32 -1939806344 }
@"_SM7__constG2-29" = private unnamed_addr constant { ptr, i32, i32, [40 x i16] } { ptr @"_SM35scala.scalanative.runtime.CharArrayG4type", i32 40, i32 2, [40 x i16] [ i16 106, i16 97, i16 118, i16 97, i16 46, i16 110, i16 105, i16 111, i16 46, i16 99, i16 104, i16 97, i16 114, i16 115, i16 101, i16 116, i16 46, i16 77, i16 97, i16 108, i16 102, i16 111, i16 114, i16 109, i16 101, i16 100, i16 73, i16 110, i16 112, i16 117, i16 116, i16 69, i16 120, i16 99, i16 101, i16 112, i16 116, i16 105, i16 111, i16 110 ] }
@"_SM7__constG2-30" = private unnamed_addr constant { ptr, ptr, i32, i32, i32 } { ptr @"_SM16java.lang.StringG4type", ptr @"_SM7__constG2-29", i32 0, i32 40, i32 2111608792 }
@"_SM7__constG2-31" = private unnamed_addr constant { ptr, i32, i32, [34 x i16] } { ptr @"_SM35scala.scalanative.runtime.CharArrayG4type", i32 34, i32 2, [34 x i16] [ i16 106, i16 97, i16 118, i16 97, i16 46, i16 110, i16 105, i16 111, i16 46, i16 99, i16 104, i16 97, i16 114, i16 115, i16 101, i16 116, i16 46, i16 83, i16 116, i16 97, i16 110, i16 100, i16 97, i16 114, i16 100, i16 67, i16 104, i16 97, i16 114, i16 115, i16 101, i16 116, i16 115, i16 36 ] }
@"_SM7__constG2-32" = private unnamed_addr constant { ptr, ptr, i32, i32, i32 } { ptr @"_SM16java.lang.StringG4type", ptr @"_SM7__constG2-31", i32 0, i32 34, i32 -1282303048 }
@"_SM7__constG2-33" = private unnamed_addr constant { ptr, i32, i32, [45 x i16] } { ptr @"_SM35scala.scalanative.runtime.CharArrayG4type", i32 45, i32 2, [45 x i16] [ i16 106, i16 97, i16 118, i16 97, i16 46, i16 110, i16 105, i16 111, i16 46, i16 99, i16 104, i16 97, i16 114, i16 115, i16 101, i16 116, i16 46, i16 85, i16 110, i16 109, i16 97, i16 112, i16 112, i16 97, i16 98, i16 108, i16 101, i16 67, i16 104, i16 97, i16 114, i16 97, i16 99, i16 116, i16 101, i16 114, i16 69, i16 120, i16 99, i16 101, i16 112, i16 116, i16 105, i16 111, i16 110 ] }
@"_SM7__constG2-34" = private unnamed_addr constant { ptr, ptr, i32, i32, i32 } { ptr @"_SM16java.lang.StringG4type", ptr @"_SM7__constG2-33", i32 0, i32 45, i32 2141149813 }
@"_SM7__constG2-35" = private unnamed_addr constant { ptr, i32, i32, [19 x i16] } { ptr @"_SM35scala.scalanative.runtime.CharArrayG4type", i32 19, i32 2, [19 x i16] [ i16 115, i16 104, i16 111, i16 117, i16 108, i16 100, i16 32, i16 110, i16 111, i16 116, i16 32, i16 103, i16 101, i16 116, i16 32, i16 104, i16 101, i16 114, i16 101 ] }
@"_SM7__constG2-36" = private unnamed_addr constant { ptr, ptr, i32, i32, i32 } { ptr @"_SM16java.lang.StringG4type", ptr @"_SM7__constG2-35", i32 0, i32 19, i32 -849617292 }
@"_SM7__constG2-37" = private unnamed_addr constant { ptr, i32, i32, [22 x i16] } { ptr @"_SM35scala.scalanative.runtime.CharArrayG4type", i32 22, i32 2, [22 x i16] [ i16 110, i16 117, i16 108, i16 108, i16 32, i16 67, i16 111, i16 100, i16 105, i16 110, i16 103, i16 69, i16 114, i16 114, i16 111, i16 114, i16 65, i16 99, i16 116, i16 105, i16 111, i16 110 ] }
@"_SM7__constG2-38" = private unnamed_addr constant { ptr, ptr, i32, i32, i32 } { ptr @"_SM16java.lang.StringG4type", ptr @"_SM7__constG2-37", i32 0, i32 22, i32 -646354405 }
@"_SM7__constG2-39" = private unnamed_addr constant { ptr, i32, i32, [6 x i16] } { ptr @"_SM35scala.scalanative.runtime.CharArrayG4type", i32 6, i32 2, [6 x i16] [ i16 73, i16 71, i16 78, i16 79, i16 82, i16 69 ] }
@"_SM7__constG2-40" = private unnamed_addr constant { ptr, ptr, i32, i32, i32 } { ptr @"_SM16java.lang.StringG4type", ptr @"_SM7__constG2-39", i32 0, i32 6, i32 -2137067054 }
@"_SM7__constG2-41" = private unnamed_addr constant { ptr, i32, i32, [7 x i16] } { ptr @"_SM35scala.scalanative.runtime.CharArrayG4type", i32 7, i32 2, [7 x i16] [ i16 82, i16 69, i16 80, i16 76, i16 65, i16 67, i16 69 ] }
@"_SM7__constG2-42" = private unnamed_addr constant { ptr, ptr, i32, i32, i32 } { ptr @"_SM16java.lang.StringG4type", ptr @"_SM7__constG2-41", i32 0, i32 7, i32 1812479636 }
@"_SM7__constG2-43" = private unnamed_addr constant { ptr, i32, i32, [6 x i16] } { ptr @"_SM35scala.scalanative.runtime.CharArrayG4type", i32 6, i32 2, [6 x i16] [ i16 82, i16 69, i16 80, i16 79, i16 82, i16 84 ] }
@"_SM7__constG2-44" = private unnamed_addr constant { ptr, ptr, i32, i32, i32 } { ptr @"_SM16java.lang.StringG4type", ptr @"_SM7__constG2-43", i32 0, i32 6, i32 -1881192140 }
@"_SM7__constG2-45" = private unnamed_addr constant { ptr, i32, i32, [15 x i16] } { ptr @"_SM35scala.scalanative.runtime.CharArrayG4type", i32 15, i32 2, [15 x i16] [ i16 73, i16 110, i16 112, i16 117, i16 116, i16 32, i16 108, i16 101, i16 110, i16 103, i16 116, i16 104, i16 32, i16 61, i16 32 ] }
@"_SM7__constG2-46" = private unnamed_addr constant { ptr, ptr, i32, i32, i32 } { ptr @"_SM16java.lang.StringG4type", ptr @"_SM7__constG2-45", i32 0, i32 15, i32 -2060905977 }
@"_SM36scala.scalanative.runtime.CharArray$G8instance" = external global { ptr }

declare dereferenceable_or_null(32) ptr @"_SM23java.lang.StringBuilderD8toStringL16java.lang.StringEO"(ptr)

declare i1 @"_SM15java.nio.BufferD12hasRemainingzEO"(ptr) inlinehint

declare dereferenceable_or_null(48) ptr @"_SM19java.nio.CharBufferD3putL19java.nio.CharBufferL19java.nio.CharBufferEO"(ptr, ptr) noinline
@"_SM31java.lang.IllegalStateExceptionG4type" = external global { { ptr, i32, i32, ptr }, i32, i32, ptr, [4 x ptr] }
@"_SM34java.lang.IllegalArgumentExceptionG4type" = external global { { ptr, i32, i32, ptr }, i32, i32, ptr, [4 x ptr] }
@"_SM28niocharset.StandardCharsets$G8instance" = external global { ptr }

declare dereferenceable_or_null(8) ptr @"_SM32scala.collection.mutable.HashMapD15getOrElseUpdateL16java.lang.ObjectL15scala.Function0L16java.lang.ObjectEO"(ptr, ptr, ptr)
@"_SM19java.lang.ThrowableG4type" = external global { { ptr, i32, i32, ptr }, i32, i32, ptr, [4 x ptr] }

declare dereferenceable_or_null(16) ptr @"_SM22java.lang.ThreadLocal$G4load"() noinline
@"_SM39java.lang.UnsupportedOperationExceptionG4type" = external global { { ptr, i32, i32, ptr }, i32, i32, ptr, [4 x ptr] }

declare ptr @"_SM34scala.scalanative.runtime.package$D16throwNullPointernEO"(ptr) noinline

declare nonnull dereferenceable(56) ptr @"_SM17niocharset.UTF_8$D10newDecoderL31java.nio.charset.CharsetDecoderEO"(ptr)

declare dereferenceable_or_null(16) ptr @"_SM36scala.scalanative.runtime.CharArray$D5allociL35scala.scalanative.runtime.CharArrayEO"(ptr, i32) inlinehint
@"_SM28scala.collection.mutable.MapG4type" = external global { ptr, i32, i32, ptr }
@"_SM23scala.runtime.LazyVals$G8instance" = external global { ptr }
@"_SM35scala.scalanative.runtime.CharArrayG4type" = external global { { ptr, i32, i32, ptr }, i32, i32, ptr, [8 x ptr] }
@"_SM28scala.runtime.Scala3RunTime$G8instance" = external global { ptr }

declare dereferenceable_or_null(48) ptr @"_SM19java.nio.CharBufferD4flipL19java.nio.CharBufferEO"(ptr) inlinehint

declare i64 @"_SM23scala.runtime.LazyVals$D5STATEjijEO"(ptr, i64, i32)

declare dereferenceable_or_null(24) ptr @"_SM23java.lang.StringBuilderD6appendiL23java.lang.StringBuilderEO"(ptr, i32)
@"_SM35scala.scalanative.runtime.LazyVals$G8instance" = external global { ptr }

declare void @"_SM35scala.scalanative.runtime.LazyVals$D7setFlagR_iiuEO"(ptr, ptr, i32, i32) inlinehint
@"_SM16scala.MatchErrorG4type" = external global { { ptr, i32, i32, ptr }, i32, i32, ptr, [4 x ptr] }
@"_SM23java.lang.StringBuilderG4type" = external global { { ptr, i32, i32, ptr }, i32, i32, ptr, [3 x ptr] }

declare dereferenceable_or_null(40) ptr @"_SM19java.lang.ThrowableD16fillInStackTraceL19java.lang.ThrowableEO"(ptr)

declare dereferenceable_or_null(8) ptr @"_SM21java.lang.ThreadLocalD3getL16java.lang.ObjectEO"(ptr)

declare dereferenceable_or_null(16) ptr @"_SM29scala.collection.mutable.Map$G4load"() noinline

declare dereferenceable_or_null(48) ptr @"_SM19java.nio.CharBufferD8positioniL19java.nio.CharBufferEO"(ptr, i32) inlinehint

declare dereferenceable_or_null(16) ptr @"_SM24niocharset.UTF_8$DecoderD10decodeLoopL19java.nio.ByteBufferL19java.nio.CharBufferL28java.nio.charset.CoderResultEO"(ptr, ptr, ptr)

declare i1 @"_SM16java.lang.ObjectD6equalsL16java.lang.ObjectzEO"(ptr, ptr) inlinehint

declare dereferenceable_or_null(56) ptr @"_SM19java.nio.ByteBufferD8positioniL19java.nio.ByteBufferEO"(ptr, i32) inlinehint
@"_SM16java.lang.StringG4type" = external global { { ptr, i32, i32, ptr }, i32, i32, ptr, [3 x ptr] }

declare dereferenceable_or_null(24) ptr @"_SM23java.lang.StringBuilderD6appendL16java.lang.StringL23java.lang.StringBuilderEO"(ptr, ptr)

declare nonnull dereferenceable(32) ptr @"_SM22java.lang.ThreadLocal$D11withInitialL27java.util.function.SupplierL21java.lang.ThreadLocalEO"(ptr, ptr)

declare dereferenceable_or_null(16) ptr @"_SM24niocharset.UTF_8$EncoderD10encodeLoopL19java.nio.CharBufferL19java.nio.ByteBufferL28java.nio.charset.CoderResultEO"(ptr, ptr, ptr)

declare i32 @"_SM16java.lang.ObjectD8hashCodeiEO"(ptr) inlinehint
@"_SM33java.nio.BufferUnderflowExceptionG4type" = external global { { ptr, i32, i32, ptr }, i32, i32, ptr, [4 x ptr] }

declare dereferenceable_or_null(8) ptr @"_SM36scala.collection.MapFactory$DelegateD5emptyL16java.lang.ObjectEO"(ptr)

declare dereferenceable_or_null(32) ptr @"_SM19java.lang.ThrowableD8toStringL16java.lang.StringEO"(ptr)

declare dereferenceable_or_null(48) ptr @"_SM19java.nio.CharBufferD3putL16java.lang.StringL19java.nio.CharBufferEO"(ptr, ptr)

declare ptr @"_SM34scala.scalanative.runtime.package$D14throwClassCastR_R_nEO"(ptr, ptr, ptr) noinline

declare ptr @"scalanative_throw"(ptr)

declare i32 @"_SM21scala.runtime.StaticsD7anyHashL16java.lang.ObjectiEo"(ptr) inlinehint
@"__modules" = external global [229 x ptr]

declare i32 @"_SM15java.nio.BufferD9remainingiEO"(ptr) inlinehint

declare i32 @"_SM16java.lang.StringD6lengthiEO"(ptr)
@"_SM15java.lang.ClassG4type" = external global { { ptr, i32, i32, ptr }, i32, i32, ptr, [3 x ptr] }

declare i32 @"_SM15java.nio.BufferD8capacityiEO"(ptr)

declare dereferenceable_or_null(16) ptr @"_SM27scala.runtime.BoxesRunTime$D12boxToIntegeriL17java.lang.IntegerEO"(ptr, i32) inlinehint

declare i1 @"_SM35scala.scalanative.runtime.LazyVals$D3CASR_jiizEO"(ptr, ptr, i64, i32, i32) inlinehint

declare dereferenceable_or_null(56) ptr @"_SM19java.nio.ByteBufferD3putLAb_L19java.nio.ByteBufferEO"(ptr, ptr)

declare dereferenceable_or_null(32) ptr @"_SM19java.lang.ThrowableD10getMessageL16java.lang.StringEO"(ptr)

declare dereferenceable_or_null(32) ptr @"_SM16java.lang.ObjectD8toStringL16java.lang.StringEO"(ptr) inlinehint

declare void @"_SM16scala.MatchErrorRL16java.lang.ObjectE"(ptr, ptr)

declare ptr @"_SM35scala.scalanative.runtime.LazyVals$D17wait4NotificationR_jiuEO"(ptr, ptr, i64, i32)

declare i32 @"_SM15java.nio.BufferD8positioniEO"(ptr)

declare i1 @"__check_class_has_trait"(i32, i32) alwaysinline

declare nonnull dereferenceable(56) ptr @"_SM28niocharset.StandardCharsets$D5UTF_8L24java.nio.charset.CharsetEO"(ptr)

declare i64 @"_SM35scala.scalanative.runtime.LazyVals$D3getR_jEO"(ptr, ptr) alwaysinline
@"_SM32java.nio.BufferOverflowExceptionG4type" = external global { { ptr, i32, i32, ptr }, i32, i32, ptr, [4 x ptr] }

declare ptr @"_SM28scala.runtime.Scala3RunTime$D12assertFailednEO"(ptr)
@"_SM24java.lang.AssertionErrorG4type" = external global { { ptr, i32, i32, ptr }, i32, i32, ptr, [4 x ptr] }

declare i1 @"_SM16java.lang.StringD6equalsL16java.lang.ObjectzEO"(ptr, ptr)

declare dereferenceable_or_null(48) ptr @"_SM20java.nio.CharBuffer$D8allocateiL19java.nio.CharBufferEO"(ptr, i32)
@"_SM20java.nio.CharBuffer$G8instance" = external global { ptr }

declare ptr @"_SM34scala.scalanative.runtime.package$D14throwUndefinednEO"(ptr) noinline

declare ptr @"scalanative_GC_alloc_small"(ptr, i64)

declare dereferenceable_or_null(32) ptr @"_SM16java.lang.StringD8toStringL16java.lang.StringEO"(ptr)
@"_SM41java.nio.charset.CharacterCodingExceptionG4type" = hidden global { { ptr, i32, i32, ptr }, i32, i32, ptr, [4 x ptr] } { { ptr, i32, i32, ptr } { ptr @"_SM15java.lang.ClassG4type", i32 463, i32 -1, ptr @"_SM7__constG1-1" }, i32 40, i32 465, ptr @"_SM7__constG1-2", [4 x ptr] [ ptr @"_SM16java.lang.ObjectD8hashCodeiEO", ptr @"_SM19java.lang.ThrowableD8toStringL16java.lang.StringEO", ptr @"_SM16java.lang.ObjectD6equalsL16java.lang.ObjectzEO", ptr @"_SM19java.lang.ThrowableD10getMessageL16java.lang.StringEO" ] }
@"_SM24java.nio.charset.CharsetG4type" = hidden global { { ptr, i32, i32, ptr }, i32, i32, ptr, [3 x ptr] } { { ptr, i32, i32, ptr } { ptr @"_SM15java.lang.ClassG4type", i32 482, i32 -1, ptr @"_SM7__constG1-4" }, i32 40, i32 483, ptr @"_SM7__constG1-2", [3 x ptr] [ ptr @"_SM24java.nio.charset.CharsetD8hashCodeiEO", ptr @"_SM24java.nio.charset.CharsetD8toStringL16java.lang.StringEO", ptr @"_SM24java.nio.charset.CharsetD6equalsL16java.lang.ObjectzEO" ] }
@"_SM25java.nio.charset.Charset$G4type" = hidden global { { ptr, i32, i32, ptr }, i32, i32, ptr, [3 x ptr] } { { ptr, i32, i32, ptr } { ptr @"_SM15java.lang.ClassG4type", i32 272, i32 -1, ptr @"_SM7__constG1-6" }, i32 8, i32 272, ptr @"_SM7__constG1-7", [3 x ptr] [ ptr @"_SM16java.lang.ObjectD8hashCodeiEO", ptr @"_SM16java.lang.ObjectD8toStringL16java.lang.StringEO", ptr @"_SM16java.lang.ObjectD6equalsL16java.lang.ObjectzEO" ] }
@"_SM25java.nio.charset.Charset$G8instance" = hidden global { ptr } { ptr @"_SM25java.nio.charset.Charset$G4type" }
@"_SM34java.nio.charset.Charset$$Lambda$1G4type" = hidden global { { ptr, i32, i32, ptr }, i32, i32, ptr, [3 x ptr] } { { ptr, i32, i32, ptr } { ptr @"_SM15java.lang.ClassG4type", i32 75, i32 -1, ptr @"_SM7__constG1-9" }, i32 16, i32 75, ptr @"_SM7__constG2-10", [3 x ptr] [ ptr @"_SM16java.lang.ObjectD8hashCodeiEO", ptr @"_SM16java.lang.ObjectD8toStringL16java.lang.StringEO", ptr @"_SM16java.lang.ObjectD6equalsL16java.lang.ObjectzEO" ] }
@"_SM31java.nio.charset.CharsetDecoderG4type" = hidden global { { ptr, i32, i32, ptr }, i32, i32, ptr, [3 x ptr] } { { ptr, i32, i32, ptr } { ptr @"_SM15java.lang.ClassG4type", i32 528, i32 -1, ptr @"_SM7__constG2-12" }, i32 56, i32 529, ptr @"_SM7__constG2-13", [3 x ptr] [ ptr @"_SM16java.lang.ObjectD8hashCodeiEO", ptr @"_SM16java.lang.ObjectD8toStringL16java.lang.StringEO", ptr @"_SM16java.lang.ObjectD6equalsL16java.lang.ObjectzEO" ] }
@"_SM31java.nio.charset.CharsetEncoderG4type" = hidden global { { ptr, i32, i32, ptr }, i32, i32, ptr, [3 x ptr] } { { ptr, i32, i32, ptr } { ptr @"_SM15java.lang.ClassG4type", i32 295, i32 -1, ptr @"_SM7__constG2-15" }, i32 56, i32 296, ptr @"_SM7__constG2-13", [3 x ptr] [ ptr @"_SM16java.lang.ObjectD8hashCodeiEO", ptr @"_SM16java.lang.ObjectD8toStringL16java.lang.StringEO", ptr @"_SM16java.lang.ObjectD6equalsL16java.lang.ObjectzEO" ] }
@"_SM38java.nio.charset.CoderMalfunctionErrorG4type" = hidden global { { ptr, i32, i32, ptr }, i32, i32, ptr, [4 x ptr] } { { ptr, i32, i32, ptr } { ptr @"_SM15java.lang.ClassG4type", i32 470, i32 -1, ptr @"_SM7__constG2-17" }, i32 40, i32 470, ptr @"_SM7__constG1-2", [4 x ptr] [ ptr @"_SM16java.lang.ObjectD8hashCodeiEO", ptr @"_SM19java.lang.ThrowableD8toStringL16java.lang.StringEO", ptr @"_SM16java.lang.ObjectD6equalsL16java.lang.ObjectzEO", ptr @"_SM19java.lang.ThrowableD10getMessageL16java.lang.StringEO" ] }
@"_SM28java.nio.charset.CoderResultG4type" = hidden global { { ptr, i32, i32, ptr }, i32, i32, ptr, [3 x ptr] } { { ptr, i32, i32, ptr } { ptr @"_SM15java.lang.ClassG4type", i32 219, i32 -1, ptr @"_SM7__constG2-19" }, i32 16, i32 219, ptr @"_SM7__constG1-7", [3 x ptr] [ ptr @"_SM16java.lang.ObjectD8hashCodeiEO", ptr @"_SM16java.lang.ObjectD8toStringL16java.lang.StringEO", ptr @"_SM16java.lang.ObjectD6equalsL16java.lang.ObjectzEO" ] }
@"_SM29java.nio.charset.CoderResult$G4type" = hidden global { { ptr, i32, i32, ptr }, i32, i32, ptr, [3 x ptr] } { { ptr, i32, i32, ptr } { ptr @"_SM15java.lang.ClassG4type", i32 282, i32 -1, ptr @"_SM7__constG2-21" }, i32 104, i32 282, ptr @"_SM7__constG2-22", [3 x ptr] [ ptr @"_SM16java.lang.ObjectD8hashCodeiEO", ptr @"_SM16java.lang.ObjectD8toStringL16java.lang.StringEO", ptr @"_SM16java.lang.ObjectD6equalsL16java.lang.ObjectzEO" ] }
@"_SM39java.nio.charset.CoderResult$$$Lambda$1G4type" = hidden global { { ptr, i32, i32, ptr }, i32, i32, ptr, [3 x ptr] } { { ptr, i32, i32, ptr } { ptr @"_SM15java.lang.ClassG4type", i32 103, i32 12, ptr @"_SM7__constG2-24" }, i32 24, i32 103, ptr @"_SM7__constG2-10", [3 x ptr] [ ptr @"_SM16java.lang.ObjectD8hashCodeiEO", ptr @"_SM16java.lang.ObjectD8toStringL16java.lang.StringEO", ptr @"_SM16java.lang.ObjectD6equalsL16java.lang.ObjectzEO" ] }
@"_SM34java.nio.charset.CodingErrorActionG4type" = hidden global { { ptr, i32, i32, ptr }, i32, i32, ptr, [3 x ptr] } { { ptr, i32, i32, ptr } { ptr @"_SM15java.lang.ClassG4type", i32 406, i32 -1, ptr @"_SM7__constG2-26" }, i32 16, i32 406, ptr @"_SM7__constG2-10", [3 x ptr] [ ptr @"_SM16java.lang.ObjectD8hashCodeiEO", ptr @"_SM34java.nio.charset.CodingErrorActionD8toStringL16java.lang.StringEO", ptr @"_SM16java.lang.ObjectD6equalsL16java.lang.ObjectzEO" ] }
@"_SM35java.nio.charset.CodingErrorAction$G4type" = hidden global { { ptr, i32, i32, ptr }, i32, i32, ptr, [3 x ptr] } { { ptr, i32, i32, ptr } { ptr @"_SM15java.lang.ClassG4type", i32 118, i32 -1, ptr @"_SM7__constG2-28" }, i32 32, i32 118, ptr @"_SM7__constG1-2", [3 x ptr] [ ptr @"_SM16java.lang.ObjectD8hashCodeiEO", ptr @"_SM16java.lang.ObjectD8toStringL16java.lang.StringEO", ptr @"_SM16java.lang.ObjectD6equalsL16java.lang.ObjectzEO" ] }
@"_SM40java.nio.charset.MalformedInputExceptionG4type" = hidden global { { ptr, i32, i32, ptr }, i32, i32, ptr, [4 x ptr] } { { ptr, i32, i32, ptr } { ptr @"_SM15java.lang.ClassG4type", i32 464, i32 -1, ptr @"_SM7__constG2-30" }, i32 40, i32 464, ptr @"_SM7__constG1-2", [4 x ptr] [ ptr @"_SM16java.lang.ObjectD8hashCodeiEO", ptr @"_SM19java.lang.ThrowableD8toStringL16java.lang.StringEO", ptr @"_SM16java.lang.ObjectD6equalsL16java.lang.ObjectzEO", ptr @"_SM40java.nio.charset.MalformedInputExceptionD10getMessageL16java.lang.StringEO" ] }
@"_SM34java.nio.charset.StandardCharsets$G4type" = hidden global { { ptr, i32, i32, ptr }, i32, i32, ptr, [3 x ptr] } { { ptr, i32, i32, ptr } { ptr @"_SM15java.lang.ClassG4type", i32 206, i32 -1, ptr @"_SM7__constG2-32" }, i32 8, i32 206, ptr @"_SM7__constG1-7", [3 x ptr] [ ptr @"_SM16java.lang.ObjectD8hashCodeiEO", ptr @"_SM16java.lang.ObjectD8toStringL16java.lang.StringEO", ptr @"_SM16java.lang.ObjectD6equalsL16java.lang.ObjectzEO" ] }
@"_SM34java.nio.charset.StandardCharsets$G8instance" = hidden global { ptr } { ptr @"_SM34java.nio.charset.StandardCharsets$G4type" }
@"_SM45java.nio.charset.UnmappableCharacterExceptionG4type" = hidden global { { ptr, i32, i32, ptr }, i32, i32, ptr, [4 x ptr] } { { ptr, i32, i32, ptr } { ptr @"_SM15java.lang.ClassG4type", i32 465, i32 -1, ptr @"_SM7__constG2-34" }, i32 40, i32 465, ptr @"_SM7__constG1-2", [4 x ptr] [ ptr @"_SM16java.lang.ObjectD8hashCodeiEO", ptr @"_SM19java.lang.ThrowableD8toStringL16java.lang.StringEO", ptr @"_SM16java.lang.ObjectD6equalsL16java.lang.ObjectzEO", ptr @"_SM45java.nio.charset.UnmappableCharacterExceptionD10getMessageL16java.lang.StringEO" ] }

define dereferenceable_or_null(24) ptr @"_SM24java.nio.charset.CharsetD13cachedDecoderL21java.lang.ThreadLocalEPT24java.nio.charset.Charset"(ptr %_1) alwaysinline personality ptr @__gxx_personality_v0 {
_2.0:
  br label %_3.0
_3.0:
  br i1 true, label %_4.0, label %_5.0
_4.0:
  %_80 = icmp ne ptr %_1, null
  br i1 %_80, label %_78.0, label %_79.0
_78.0:
  %_81 = getelementptr { { ptr }, ptr, ptr, ptr, i64 }, { { ptr }, ptr, ptr, ptr, i64 }* %_1, i32 0, i32 4
  %_9 = call i64 @"_SM35scala.scalanative.runtime.LazyVals$D3getR_jEO"(ptr nonnull dereferenceable(8) @"_SM35scala.scalanative.runtime.LazyVals$G8instance", ptr %_81)
  %_12 = call i64 @"_SM23scala.runtime.LazyVals$D5STATEjijEO"(ptr nonnull dereferenceable(8) @"_SM23scala.runtime.LazyVals$G8instance", i64 %_9, i32 1)
  %_17 = sext i32 3 to i64
  %_18 = icmp eq i64 %_12, %_17
  br i1 %_18, label %_13.0, label %_14.0
_13.0:
  %_82 = getelementptr { { ptr }, ptr, ptr, ptr, i64 }, { { ptr }, ptr, ptr, ptr, i64 }* %_1, i32 0, i32 3
  %_19 = load ptr, ptr %_82, !dereferenceable_or_null !{i64 24}
  ret ptr %_19
_14.0:
  %_25 = sext i32 0 to i64
  %_26 = icmp eq i64 %_12, %_25
  br i1 %_26, label %_21.0, label %_22.0
_21.0:
  %_83 = getelementptr { { ptr }, ptr, ptr, ptr, i64 }, { { ptr }, ptr, ptr, ptr, i64 }* %_1, i32 0, i32 4
  %_34 = call i1 @"_SM35scala.scalanative.runtime.LazyVals$D3CASR_jiizEO"(ptr nonnull dereferenceable(8) @"_SM35scala.scalanative.runtime.LazyVals$G8instance", ptr %_83, i64 %_9, i32 1, i32 1)
  br i1 %_34, label %_27.0, label %_28.0
_27.0:
  br label %_36.0
_36.0:
  %_41 = invoke dereferenceable_or_null(16) ptr @"_SM22java.lang.ThreadLocal$G4load"() to label %_36.1 unwind label %_85.landingpad
_36.1:
  %_43 = invoke dereferenceable_or_null(16) ptr @"scalanative_GC_alloc_small"(ptr @"_SM34java.nio.charset.Charset$$Lambda$1G4type", i64 16) to label %_36.2 unwind label %_87.landingpad
_36.2:
  invoke void @"_SM34java.nio.charset.Charset$$Lambda$1RL24java.nio.charset.CharsetE"(ptr nonnull dereferenceable(16) %_43, ptr dereferenceable_or_null(40) %_1) to label %_36.3 unwind label %_90.landingpad
_36.3:
  %_49 = invoke dereferenceable_or_null(24) ptr @"_SM22java.lang.ThreadLocal$D11withInitialL27java.util.function.SupplierL21java.lang.ThreadLocalEO"(ptr nonnull dereferenceable(16) %_41, ptr nonnull dereferenceable(16) %_43) to label %_36.4 unwind label %_95.landingpad
_36.4:
  %_99 = getelementptr { { ptr }, ptr, ptr, ptr, i64 }, { { ptr }, ptr, ptr, ptr, i64 }* %_1, i32 0, i32 3
  store ptr %_49, ptr%_99, align 8
  %_106 = getelementptr { { ptr }, ptr, ptr, ptr, i64 }, { { ptr }, ptr, ptr, ptr, i64 }* %_1, i32 0, i32 4
  invoke void @"_SM35scala.scalanative.runtime.LazyVals$D7setFlagR_iiuEO"(ptr nonnull dereferenceable(8) @"_SM35scala.scalanative.runtime.LazyVals$G8instance", ptr %_106, i32 3, i32 1) to label %_36.5 unwind label %_112.landingpad
_36.5:
  ret ptr %_49
_35.0:
  %_38 = phi ptr [%_58, %_110.0], [%_56, %_108.0], [%_54, %_104.0], [%_52, %_102.0], [%_50, %_96.0], [%_48, %_94.0], [%_46, %_92.0], [%_44, %_88.0], [%_42, %_86.0], [%_40, %_84.0]
  %_117 = icmp eq ptr %_38, null
  br i1 %_117, label %_114.0, label %_115.0
_114.0:
  br label %_116.0
_115.0:
  %_118 = load ptr, ptr %_38
  %_119 = getelementptr { ptr, i32, i32, ptr }, { ptr, i32, i32, ptr }* %_118, i32 0, i32 1
  %_120 = load i32, ptr %_119
  %_121 = icmp sle i32 417, %_120
  %_122 = icmp sle i32 %_120, 474
  %_123 = and i1 %_121, %_122
  br label %_116.0
_116.0:
  %_61 = phi i1 [%_123, %_115.0], [false, %_114.0]
  br i1 %_61, label %_62.0, label %_63.0
_62.0:
  %_127 = icmp eq ptr %_38, null
  br i1 %_127, label %_125.0, label %_124.0
_124.0:
  %_128 = load ptr, ptr %_38
  %_129 = getelementptr { ptr, i32, i32, ptr }, { ptr, i32, i32, ptr }* %_128, i32 0, i32 1
  %_130 = load i32, ptr %_129
  %_131 = icmp sle i32 417, %_130
  %_132 = icmp sle i32 %_130, 474
  %_133 = and i1 %_131, %_132
  br i1 %_133, label %_125.0, label %_126.0
_125.0:
  %_134 = getelementptr { { ptr }, ptr, ptr, ptr, i64 }, { { ptr }, ptr, ptr, ptr, i64 }* %_1, i32 0, i32 4
  call void @"_SM35scala.scalanative.runtime.LazyVals$D7setFlagR_iiuEO"(ptr nonnull dereferenceable(8) @"_SM35scala.scalanative.runtime.LazyVals$G8instance", ptr %_134, i32 0, i32 1)
  %_137 = icmp ne ptr %_38, null
  br i1 %_137, label %_136.0, label %_79.0
_136.0:
  call ptr @"scalanative_throw"(ptr dereferenceable_or_null(40) %_38)
  unreachable
_63.0:
  %_140 = icmp ne ptr %_38, null
  br i1 %_140, label %_139.0, label %_79.0
_139.0:
  call ptr @"scalanative_throw"(ptr dereferenceable_or_null(8) %_38)
  unreachable
_28.0:
  br label %_29.0
_29.0:
  br label %_23.0
_22.0:
  %_142 = getelementptr { { ptr }, ptr, ptr, ptr, i64 }, { { ptr }, ptr, ptr, ptr, i64 }* %_1, i32 0, i32 4
  call void @"_SM35scala.scalanative.runtime.LazyVals$D17wait4NotificationR_jiuEO"(ptr nonnull dereferenceable(8) @"_SM35scala.scalanative.runtime.LazyVals$G8instance", ptr %_142, i64 %_9, i32 1)
  br label %_23.0
_23.0:
  br label %_15.0
_15.0:
  br label %_3.0
_5.0:
  ret ptr zeroinitializer
_79.0:
  call ptr @"_SM34scala.scalanative.runtime.package$D16throwNullPointernEO"(ptr null)
  unreachable
_126.0:
  %_145 = phi ptr [%_38, %_124.0]
  %_146 = phi ptr [@"_SM19java.lang.ThrowableG4type", %_124.0]
  %_147 = load ptr, ptr %_145
  call ptr @"_SM34scala.scalanative.runtime.package$D14throwClassCastR_R_nEO"(ptr null, ptr %_147, ptr %_146)
  unreachable
_84.0:
  %_40 = phi ptr [%_85, %_85.landingpad.succ]
  br label %_35.0
_86.0:
  %_42 = phi ptr [%_87, %_87.landingpad.succ]
  br label %_35.0
_88.0:
  %_44 = phi ptr [%_90, %_90.landingpad.succ]
  br label %_35.0
_92.0:
  %_46 = phi ptr [%_93, %_93.landingpad.succ]
  br label %_35.0
_94.0:
  %_48 = phi ptr [%_95, %_95.landingpad.succ]
  br label %_35.0
_96.0:
  %_50 = phi ptr [%_98, %_98.landingpad.succ], [%_100, %_100.landingpad.succ]
  br label %_35.0
_102.0:
  %_52 = phi ptr [%_103, %_103.landingpad.succ]
  br label %_35.0
_104.0:
  %_54 = phi ptr [%_105, %_105.landingpad.succ], [%_107, %_107.landingpad.succ]
  br label %_35.0
_108.0:
  %_56 = phi ptr [%_109, %_109.landingpad.succ]
  br label %_35.0
_110.0:
  %_58 = phi ptr [%_112, %_112.landingpad.succ]
  br label %_35.0
_85.landingpad:
  %_182 = landingpad { ptr, i32 } catch ptr @_ZTIN11scalanative16ExceptionWrapperE
  %_183 = extractvalue { ptr, i32 } %_182, 0
  %_184 = extractvalue { ptr, i32 } %_182, 1
  %_185 = call i32 @llvm.eh.typeid.for(ptr @_ZTIN11scalanative16ExceptionWrapperE)
  %_186 = icmp eq i32 %_184, %_185
  br i1 %_186, label %_85.landingpad.succ, label %_85.landingpad.fail
_85.landingpad.succ:
  %_187 = call ptr @__cxa_begin_catch(ptr %_183)
  %_189 = getelementptr ptr, ptr %_187, i32 1
  %_85 = load ptr, ptr %_189
  call void @__cxa_end_catch()br label %_84.0
_85.landingpad.fail:
  resume { ptr, i32 } %_182
_87.landingpad:
  %_190 = landingpad { ptr, i32 } catch ptr @_ZTIN11scalanative16ExceptionWrapperE
  %_191 = extractvalue { ptr, i32 } %_190, 0
  %_192 = extractvalue { ptr, i32 } %_190, 1
  %_193 = call i32 @llvm.eh.typeid.for(ptr @_ZTIN11scalanative16ExceptionWrapperE)
  %_194 = icmp eq i32 %_192, %_193
  br i1 %_194, label %_87.landingpad.succ, label %_87.landingpad.fail
_87.landingpad.succ:
  %_195 = call ptr @__cxa_begin_catch(ptr %_191)
  %_197 = getelementptr ptr, ptr %_195, i32 1
  %_87 = load ptr, ptr %_197
  call void @__cxa_end_catch()br label %_86.0
_87.landingpad.fail:
  resume { ptr, i32 } %_190
_90.landingpad:
  %_198 = landingpad { ptr, i32 } catch ptr @_ZTIN11scalanative16ExceptionWrapperE
  %_199 = extractvalue { ptr, i32 } %_198, 0
  %_200 = extractvalue { ptr, i32 } %_198, 1
  %_201 = call i32 @llvm.eh.typeid.for(ptr @_ZTIN11scalanative16ExceptionWrapperE)
  %_202 = icmp eq i32 %_200, %_201
  br i1 %_202, label %_90.landingpad.succ, label %_90.landingpad.fail
_90.landingpad.succ:
  %_203 = call ptr @__cxa_begin_catch(ptr %_199)
  %_205 = getelementptr ptr, ptr %_203, i32 1
  %_90 = load ptr, ptr %_205
  call void @__cxa_end_catch()br label %_88.0
_90.landingpad.fail:
  resume { ptr, i32 } %_198
_93.landingpad:
  %_206 = landingpad { ptr, i32 } catch ptr @_ZTIN11scalanative16ExceptionWrapperE
  %_207 = extractvalue { ptr, i32 } %_206, 0
  %_208 = extractvalue { ptr, i32 } %_206, 1
  %_209 = call i32 @llvm.eh.typeid.for(ptr @_ZTIN11scalanative16ExceptionWrapperE)
  %_210 = icmp eq i32 %_208, %_209
  br i1 %_210, label %_93.landingpad.succ, label %_93.landingpad.fail
_93.landingpad.succ:
  %_211 = call ptr @__cxa_begin_catch(ptr %_207)
  %_213 = getelementptr ptr, ptr %_211, i32 1
  %_93 = load ptr, ptr %_213
  call void @__cxa_end_catch()br label %_92.0
_93.landingpad.fail:
  resume { ptr, i32 } %_206
_95.landingpad:
  %_214 = landingpad { ptr, i32 } catch ptr @_ZTIN11scalanative16ExceptionWrapperE
  %_215 = extractvalue { ptr, i32 } %_214, 0
  %_216 = extractvalue { ptr, i32 } %_214, 1
  %_217 = call i32 @llvm.eh.typeid.for(ptr @_ZTIN11scalanative16ExceptionWrapperE)
  %_218 = icmp eq i32 %_216, %_217
  br i1 %_218, label %_95.landingpad.succ, label %_95.landingpad.fail
_95.landingpad.succ:
  %_219 = call ptr @__cxa_begin_catch(ptr %_215)
  %_221 = getelementptr ptr, ptr %_219, i32 1
  %_95 = load ptr, ptr %_221
  call void @__cxa_end_catch()br label %_94.0
_95.landingpad.fail:
  resume { ptr, i32 } %_214
_98.landingpad:
  %_222 = landingpad { ptr, i32 } catch ptr @_ZTIN11scalanative16ExceptionWrapperE
  %_223 = extractvalue { ptr, i32 } %_222, 0
  %_224 = extractvalue { ptr, i32 } %_222, 1
  %_225 = call i32 @llvm.eh.typeid.for(ptr @_ZTIN11scalanative16ExceptionWrapperE)
  %_226 = icmp eq i32 %_224, %_225
  br i1 %_226, label %_98.landingpad.succ, label %_98.landingpad.fail
_98.landingpad.succ:
  %_227 = call ptr @__cxa_begin_catch(ptr %_223)
  %_229 = getelementptr ptr, ptr %_227, i32 1
  %_98 = load ptr, ptr %_229
  call void @__cxa_end_catch()br label %_96.0
_98.landingpad.fail:
  resume { ptr, i32 } %_222
_100.landingpad:
  %_230 = landingpad { ptr, i32 } catch ptr @_ZTIN11scalanative16ExceptionWrapperE
  %_231 = extractvalue { ptr, i32 } %_230, 0
  %_232 = extractvalue { ptr, i32 } %_230, 1
  %_233 = call i32 @llvm.eh.typeid.for(ptr @_ZTIN11scalanative16ExceptionWrapperE)
  %_234 = icmp eq i32 %_232, %_233
  br i1 %_234, label %_100.landingpad.succ, label %_100.landingpad.fail
_100.landingpad.succ:
  %_235 = call ptr @__cxa_begin_catch(ptr %_231)
  %_237 = getelementptr ptr, ptr %_235, i32 1
  %_100 = load ptr, ptr %_237
  call void @__cxa_end_catch()br label %_96.0
_100.landingpad.fail:
  resume { ptr, i32 } %_230
_103.landingpad:
  %_238 = landingpad { ptr, i32 } catch ptr @_ZTIN11scalanative16ExceptionWrapperE
  %_239 = extractvalue { ptr, i32 } %_238, 0
  %_240 = extractvalue { ptr, i32 } %_238, 1
  %_241 = call i32 @llvm.eh.typeid.for(ptr @_ZTIN11scalanative16ExceptionWrapperE)
  %_242 = icmp eq i32 %_240, %_241
  br i1 %_242, label %_103.landingpad.succ, label %_103.landingpad.fail
_103.landingpad.succ:
  %_243 = call ptr @__cxa_begin_catch(ptr %_239)
  %_245 = getelementptr ptr, ptr %_243, i32 1
  %_103 = load ptr, ptr %_245
  call void @__cxa_end_catch()br label %_102.0
_103.landingpad.fail:
  resume { ptr, i32 } %_238
_105.landingpad:
  %_246 = landingpad { ptr, i32 } catch ptr @_ZTIN11scalanative16ExceptionWrapperE
  %_247 = extractvalue { ptr, i32 } %_246, 0
  %_248 = extractvalue { ptr, i32 } %_246, 1
  %_249 = call i32 @llvm.eh.typeid.for(ptr @_ZTIN11scalanative16ExceptionWrapperE)
  %_250 = icmp eq i32 %_248, %_249
  br i1 %_250, label %_105.landingpad.succ, label %_105.landingpad.fail
_105.landingpad.succ:
  %_251 = call ptr @__cxa_begin_catch(ptr %_247)
  %_253 = getelementptr ptr, ptr %_251, i32 1
  %_105 = load ptr, ptr %_253
  call void @__cxa_end_catch()br label %_104.0
_105.landingpad.fail:
  resume { ptr, i32 } %_246
_107.landingpad:
  %_254 = landingpad { ptr, i32 } catch ptr @_ZTIN11scalanative16ExceptionWrapperE
  %_255 = extractvalue { ptr, i32 } %_254, 0
  %_256 = extractvalue { ptr, i32 } %_254, 1
  %_257 = call i32 @llvm.eh.typeid.for(ptr @_ZTIN11scalanative16ExceptionWrapperE)
  %_258 = icmp eq i32 %_256, %_257
  br i1 %_258, label %_107.landingpad.succ, label %_107.landingpad.fail
_107.landingpad.succ:
  %_259 = call ptr @__cxa_begin_catch(ptr %_255)
  %_261 = getelementptr ptr, ptr %_259, i32 1
  %_107 = load ptr, ptr %_261
  call void @__cxa_end_catch()br label %_104.0
_107.landingpad.fail:
  resume { ptr, i32 } %_254
_109.landingpad:
  %_262 = landingpad { ptr, i32 } catch ptr @_ZTIN11scalanative16ExceptionWrapperE
  %_263 = extractvalue { ptr, i32 } %_262, 0
  %_264 = extractvalue { ptr, i32 } %_262, 1
  %_265 = call i32 @llvm.eh.typeid.for(ptr @_ZTIN11scalanative16ExceptionWrapperE)
  %_266 = icmp eq i32 %_264, %_265
  br i1 %_266, label %_109.landingpad.succ, label %_109.landingpad.fail
_109.landingpad.succ:
  %_267 = call ptr @__cxa_begin_catch(ptr %_263)
  %_269 = getelementptr ptr, ptr %_267, i32 1
  %_109 = load ptr, ptr %_269
  call void @__cxa_end_catch()br label %_108.0
_109.landingpad.fail:
  resume { ptr, i32 } %_262
_112.landingpad:
  %_270 = landingpad { ptr, i32 } catch ptr @_ZTIN11scalanative16ExceptionWrapperE
  %_271 = extractvalue { ptr, i32 } %_270, 0
  %_272 = extractvalue { ptr, i32 } %_270, 1
  %_273 = call i32 @llvm.eh.typeid.for(ptr @_ZTIN11scalanative16ExceptionWrapperE)
  %_274 = icmp eq i32 %_272, %_273
  br i1 %_274, label %_112.landingpad.succ, label %_112.landingpad.fail
_112.landingpad.succ:
  %_275 = call ptr @__cxa_begin_catch(ptr %_271)
  %_277 = getelementptr ptr, ptr %_275, i32 1
  %_112 = load ptr, ptr %_277
  call void @__cxa_end_catch()br label %_110.0
_112.landingpad.fail:
  resume { ptr, i32 } %_270
}

define dereferenceable_or_null(40) ptr @"_SM24java.nio.charset.CharsetD14defaultCharsetL24java.nio.charset.CharsetEo"() inlinehint personality ptr @__gxx_personality_v0 {
_1000000.0:
  %_1000002 = call dereferenceable_or_null(40) ptr @"_SM25java.nio.charset.Charset$D14defaultCharsetL24java.nio.charset.CharsetEO"(ptr nonnull dereferenceable(8) @"_SM25java.nio.charset.Charset$G8instance")
  ret ptr %_1000002
}

define dereferenceable_or_null(56) ptr @"_SM24java.nio.charset.CharsetD24cachedDecoder$$anonfun$1L31java.nio.charset.CharsetDecoderEPT24java.nio.charset.Charset"(ptr %_1) personality ptr @__gxx_personality_v0 {
_2000000.0:
  %_4000004 = icmp ne ptr %_1, null
  br i1 %_4000004, label %_4000002.0, label %_4000003.0
_4000002.0:
  %_2000001 = call dereferenceable_or_null(56) ptr @"_SM17niocharset.UTF_8$D10newDecoderL31java.nio.charset.CharsetDecoderEO"(ptr dereferenceable_or_null(40) %_1)
  %_2000002 = call dereferenceable_or_null(32) ptr @"_SM35java.nio.charset.CodingErrorAction$G4load"()
  %_4000005 = getelementptr { { ptr }, ptr, ptr, ptr }, { { ptr }, ptr, ptr, ptr }* %_2000002, i32 0, i32 3
  %_3000001 = load ptr, ptr %_4000005, !dereferenceable_or_null !{i64 16}
  %_2000003 = call dereferenceable_or_null(56) ptr @"_SM31java.nio.charset.CharsetDecoderD16onMalformedInputL34java.nio.charset.CodingErrorActionL31java.nio.charset.CharsetDecoderEO"(ptr dereferenceable_or_null(56) %_2000001, ptr dereferenceable_or_null(16) %_3000001)
  %_4000006 = getelementptr { { ptr }, ptr, ptr, ptr }, { { ptr }, ptr, ptr, ptr }* %_2000002, i32 0, i32 3
  %_4000001 = load ptr, ptr %_4000006, !dereferenceable_or_null !{i64 16}
  %_2000004 = call dereferenceable_or_null(56) ptr @"_SM31java.nio.charset.CharsetDecoderD21onUnmappableCharacterL34java.nio.charset.CodingErrorActionL31java.nio.charset.CharsetDecoderEO"(ptr dereferenceable_or_null(56) %_2000003, ptr dereferenceable_or_null(16) %_4000001)
  ret ptr %_2000004
_4000003.0:
  call ptr @"_SM34scala.scalanative.runtime.package$D16throwNullPointernEO"(ptr null)
  unreachable
}

define dereferenceable_or_null(32) ptr @"_SM24java.nio.charset.CharsetD4nameL16java.lang.StringEO"(ptr %_1) personality ptr @__gxx_personality_v0 {
_2000000.0:
  %_2000004 = icmp ne ptr %_1, null
  br i1 %_2000004, label %_2000002.0, label %_2000003.0
_2000002.0:
  %_2000005 = getelementptr { { ptr }, ptr, ptr, ptr, i64 }, { { ptr }, ptr, ptr, ptr, i64 }* %_1, i32 0, i32 2
  %_2000001 = load ptr, ptr %_2000005, !dereferenceable_or_null !{i64 32}
  ret ptr %_2000001
_2000003.0:
  call ptr @"_SM34scala.scalanative.runtime.package$D16throwNullPointernEO"(ptr null)
  unreachable
}

define dereferenceable_or_null(48) ptr @"_SM24java.nio.charset.CharsetD6decodeL19java.nio.ByteBufferL19java.nio.CharBufferEO"(ptr %_1, ptr %_2) personality ptr @__gxx_personality_v0 {
_3000000.0:
  %_3000007 = icmp ne ptr %_1, null
  br i1 %_3000007, label %_3000005.0, label %_3000006.0
_3000005.0:
  %_3000001 = call dereferenceable_or_null(24) ptr @"_SM24java.nio.charset.CharsetD13cachedDecoderL21java.lang.ThreadLocalEPT24java.nio.charset.Charset"(ptr dereferenceable_or_null(40) %_1)
  %_3000002 = call dereferenceable_or_null(8) ptr @"_SM21java.lang.ThreadLocalD3getL16java.lang.ObjectEO"(ptr dereferenceable_or_null(24) %_3000001)
  %_3000011 = icmp eq ptr %_3000002, null
  br i1 %_3000011, label %_3000009.0, label %_3000008.0
_3000008.0:
  %_3000012 = load ptr, ptr %_3000002
  %_3000013 = getelementptr { ptr, i32, i32, ptr }, { ptr, i32, i32, ptr }* %_3000012, i32 0, i32 1
  %_3000014 = load i32, ptr %_3000013
  %_3000015 = icmp sle i32 528, %_3000014
  %_3000016 = icmp sle i32 %_3000014, 529
  %_3000017 = and i1 %_3000015, %_3000016
  br i1 %_3000017, label %_3000009.0, label %_3000010.0
_3000009.0:
  %_3000004 = call dereferenceable_or_null(48) ptr @"_SM31java.nio.charset.CharsetDecoderD6decodeL19java.nio.ByteBufferL19java.nio.CharBufferEO"(ptr dereferenceable_or_null(56) %_3000002, ptr dereferenceable_or_null(56) %_2)
  ret ptr %_3000004
_3000006.0:
  call ptr @"_SM34scala.scalanative.runtime.package$D16throwNullPointernEO"(ptr null)
  unreachable
_3000010.0:
  %_3000019 = phi ptr [%_3000002, %_3000008.0]
  %_3000020 = phi ptr [@"_SM31java.nio.charset.CharsetDecoderG4type", %_3000008.0]
  %_3000021 = load ptr, ptr %_3000019
  call ptr @"_SM34scala.scalanative.runtime.package$D14throwClassCastR_R_nEO"(ptr null, ptr %_3000021, ptr %_3000020)
  unreachable
}

define i1 @"_SM24java.nio.charset.CharsetD6equalsL16java.lang.ObjectzEO"(ptr %_1, ptr %_2) personality ptr @__gxx_personality_v0 {
_3000000.0:
  %_11000003 = icmp ne ptr %_1, null
  br i1 %_11000003, label %_11000001.0, label %_11000002.0
_11000001.0:
  br label %_4000000.0
_4000000.0:
  %_11000007 = icmp eq ptr %_2, null
  br i1 %_11000007, label %_11000004.0, label %_11000005.0
_11000004.0:
  br label %_11000006.0
_11000005.0:
  %_11000008 = load ptr, ptr %_2
  %_11000009 = getelementptr { ptr, i32, i32, ptr }, { ptr, i32, i32, ptr }* %_11000008, i32 0, i32 1
  %_11000010 = load i32, ptr %_11000009
  %_11000011 = icmp sle i32 482, %_11000010
  %_11000012 = icmp sle i32 %_11000010, 483
  %_11000013 = and i1 %_11000011, %_11000012
  br label %_11000006.0
_11000006.0:
  %_4000002 = phi i1 [%_11000013, %_11000005.0], [false, %_11000004.0]
  br i1 %_4000002, label %_5000000.0, label %_6000000.0
_5000000.0:
  %_11000017 = icmp eq ptr %_2, null
  br i1 %_11000017, label %_11000015.0, label %_11000014.0
_11000014.0:
  %_11000018 = load ptr, ptr %_2
  %_11000019 = getelementptr { ptr, i32, i32, ptr }, { ptr, i32, i32, ptr }* %_11000018, i32 0, i32 1
  %_11000020 = load i32, ptr %_11000019
  %_11000021 = icmp sle i32 482, %_11000020
  %_11000022 = icmp sle i32 %_11000020, 483
  %_11000023 = and i1 %_11000021, %_11000022
  br i1 %_11000023, label %_11000015.0, label %_11000016.0
_11000015.0:
  %_5000002 = call dereferenceable_or_null(32) ptr @"_SM24java.nio.charset.CharsetD4nameL16java.lang.StringEO"(ptr dereferenceable_or_null(40) %_1)
  %_5000004 = icmp eq ptr %_5000002, null
  br i1 %_5000004, label %_7000000.0, label %_8000000.0
_7000000.0:
  %_7000001 = call dereferenceable_or_null(32) ptr @"_SM24java.nio.charset.CharsetD4nameL16java.lang.StringEO"(ptr dereferenceable_or_null(40) %_2)
  %_7000003 = icmp eq ptr %_7000001, null
  br label %_9000000.0
_8000000.0:
  %_8000001 = call dereferenceable_or_null(32) ptr @"_SM24java.nio.charset.CharsetD4nameL16java.lang.StringEO"(ptr dereferenceable_or_null(40) %_2)
  %_8000002 = call i1 @"_SM16java.lang.StringD6equalsL16java.lang.ObjectzEO"(ptr dereferenceable_or_null(32) %_5000002, ptr dereferenceable_or_null(32) %_8000001)
  br label %_9000000.0
_9000000.0:
  %_9000001 = phi i1 [%_8000002, %_8000000.0], [%_7000003, %_7000000.0]
  br label %_10000000.0
_6000000.0:
  br label %_11000000.0
_11000000.0:
  br label %_10000000.0
_10000000.0:
  %_10000001 = phi i1 [false, %_11000000.0], [%_9000001, %_9000000.0]
  ret i1 %_10000001
_11000002.0:
  call ptr @"_SM34scala.scalanative.runtime.package$D16throwNullPointernEO"(ptr null)
  unreachable
_11000016.0:
  %_11000025 = phi ptr [%_2, %_11000014.0]
  %_11000026 = phi ptr [@"_SM24java.nio.charset.CharsetG4type", %_11000014.0]
  %_11000027 = load ptr, ptr %_11000025
  call ptr @"_SM34scala.scalanative.runtime.package$D14throwClassCastR_R_nEO"(ptr null, ptr %_11000027, ptr %_11000026)
  unreachable
}

define i32 @"_SM24java.nio.charset.CharsetD8hashCodeiEO"(ptr %_1) personality ptr @__gxx_personality_v0 {
_2000000.0:
  %_2000005 = icmp ne ptr %_1, null
  br i1 %_2000005, label %_2000003.0, label %_2000004.0
_2000003.0:
  %_2000001 = call dereferenceable_or_null(32) ptr @"_SM24java.nio.charset.CharsetD4nameL16java.lang.StringEO"(ptr dereferenceable_or_null(40) %_1)
  %_2000002 = call i32 @"_SM21scala.runtime.StaticsD7anyHashL16java.lang.ObjectiEo"(ptr dereferenceable_or_null(32) %_2000001)
  ret i32 %_2000002
_2000004.0:
  call ptr @"_SM34scala.scalanative.runtime.package$D16throwNullPointernEO"(ptr null)
  unreachable
}

define dereferenceable_or_null(32) ptr @"_SM24java.nio.charset.CharsetD8toStringL16java.lang.StringEO"(ptr %_1) personality ptr @__gxx_personality_v0 {
_2000000.0:
  %_2000004 = icmp ne ptr %_1, null
  br i1 %_2000004, label %_2000002.0, label %_2000003.0
_2000002.0:
  %_2000001 = call dereferenceable_or_null(32) ptr @"_SM24java.nio.charset.CharsetD4nameL16java.lang.StringEO"(ptr dereferenceable_or_null(40) %_1)
  ret ptr %_2000001
_2000003.0:
  call ptr @"_SM34scala.scalanative.runtime.package$D16throwNullPointernEO"(ptr null)
  unreachable
}

define dereferenceable_or_null(40) ptr @"_SM25java.nio.charset.Charset$D14defaultCharsetL24java.nio.charset.CharsetEO"(ptr %_1) personality ptr @__gxx_personality_v0 {
_2000000.0:
  %_2000002 = call dereferenceable_or_null(40) ptr @"_SM34java.nio.charset.StandardCharsets$D5UTF_8L24java.nio.charset.CharsetEO"(ptr nonnull dereferenceable(8) @"_SM34java.nio.charset.StandardCharsets$G8instance")
  ret ptr %_2000002
}

define void @"_SM25java.nio.charset.Charset$RE"(ptr %_1) personality ptr @__gxx_personality_v0 {
_2000000.0:
  ret void
}

define dereferenceable_or_null(56) ptr @"_SM34java.nio.charset.Charset$$Lambda$1D3getL16java.lang.ObjectEO"(ptr %_1) personality ptr @__gxx_personality_v0 {
_2000000.0:
  %_2000005 = icmp ne ptr %_1, null
  br i1 %_2000005, label %_2000003.0, label %_2000004.0
_2000003.0:
  %_2000006 = getelementptr { { ptr }, ptr }, { { ptr }, ptr }* %_1, i32 0, i32 1
  %_2000001 = load ptr, ptr %_2000006, !dereferenceable_or_null !{i64 40}
  %_2000002 = call dereferenceable_or_null(56) ptr @"_SM24java.nio.charset.CharsetD24cachedDecoder$$anonfun$1L31java.nio.charset.CharsetDecoderEPT24java.nio.charset.Charset"(ptr dereferenceable_or_null(40) %_2000001)
  ret ptr %_2000002
_2000004.0:
  call ptr @"_SM34scala.scalanative.runtime.package$D16throwNullPointernEO"(ptr null)
  unreachable
}

define void @"_SM34java.nio.charset.Charset$$Lambda$1RL24java.nio.charset.CharsetE"(ptr %_1, ptr %_2) personality ptr @__gxx_personality_v0 {
_3000000.0:
  %_3000004 = icmp ne ptr %_1, null
  br i1 %_3000004, label %_3000002.0, label %_3000003.0
_3000002.0:
  %_3000006 = getelementptr { { ptr }, ptr }, { { ptr }, ptr }* %_1, i32 0, i32 1
  store ptr %_2, ptr%_3000006, align 8
  ret void
_3000003.0:
  call ptr @"_SM34scala.scalanative.runtime.package$D16throwNullPointernEO"(ptr null)
  unreachable
}

define dereferenceable_or_null(48) ptr @"_SM31java.nio.charset.CharsetDecoderD11loopFlush$1L19java.nio.CharBufferL19java.nio.CharBufferEPT31java.nio.charset.CharsetDecoder"(ptr %_1, ptr %_2) inlinehint personality ptr @__gxx_personality_v0 {
_3000000.0:
  %_28000003 = icmp ne ptr %_1, null
  br i1 %_28000003, label %_28000001.0, label %_28000002.0
_28000001.0:
  br label %_4000000.0
_4000000.0:
  %_4000001 = phi ptr [%_2, %_28000001.0], [%_10000001, %_12000000.0]
  br label %_5000000.0
_5000000.0:
  br label %_6000000.0
_6000000.0:
  %_6000001 = call dereferenceable_or_null(16) ptr @"_SM31java.nio.charset.CharsetDecoderD5flushL19java.nio.CharBufferL28java.nio.charset.CoderResultEO"(ptr dereferenceable_or_null(56) %_1, ptr dereferenceable_or_null(48) %_4000001)
  %_6000002 = call i1 @"_SM28java.nio.charset.CoderResultD11isUnderflowzEO"(ptr dereferenceable_or_null(16) %_6000001)
  br i1 %_6000002, label %_7000000.0, label %_8000000.0
_7000000.0:
  br label %_9000000.0
_8000000.0:
  %_8000001 = call i1 @"_SM28java.nio.charset.CoderResultD10isOverflowzEO"(ptr dereferenceable_or_null(16) %_6000001)
  br i1 %_8000001, label %_10000000.0, label %_11000000.0
_10000000.0:
  %_10000001 = call dereferenceable_or_null(48) ptr @"_SM31java.nio.charset.CharsetDecoderD6grow$1L19java.nio.CharBufferL19java.nio.CharBufferEpT31java.nio.charset.CharsetDecoder"(ptr dereferenceable_or_null(48) %_4000001)
  br label %_12000000.0
_9000000.0:
  ret ptr %_4000001
_12000000.0:
  br label %_4000000.0
_11000000.0:
  call void @"_SM28java.nio.charset.CoderResultD14throwExceptionuEO"(ptr dereferenceable_or_null(16) %_6000001)
  %_21000001 = call dereferenceable_or_null(32) ptr @"_SM16java.lang.StringD8toStringL16java.lang.StringEO"(ptr @"_SM7__constG2-36")
  br label %_27000000.0
_27000000.0:
  %_27000001 = call dereferenceable_or_null(40) ptr @"scalanative_GC_alloc_small"(ptr @"_SM24java.lang.AssertionErrorG4type", i64 40)
  %_28000006 = getelementptr { { ptr }, ptr, ptr, ptr, i1, i1 }, { { ptr }, ptr, ptr, ptr, i1, i1 }* %_27000001, i32 0, i32 5
  %_28000007 = zext i1 true to i8
  store i8 %_28000007, ptr%_28000006, align 1
  %_28000009 = getelementptr { { ptr }, ptr, ptr, ptr, i1, i1 }, { { ptr }, ptr, ptr, ptr, i1, i1 }* %_27000001, i32 0, i32 4
  %_28000010 = zext i1 true to i8
  store i8 %_28000010, ptr%_28000009, align 1
  %_28000012 = getelementptr { { ptr }, ptr, ptr, ptr, i1, i1 }, { { ptr }, ptr, ptr, ptr, i1, i1 }* %_27000001, i32 0, i32 3
  store ptr %_21000001, ptr%_28000012, align 8
  %_27000005 = call dereferenceable_or_null(40) ptr @"_SM19java.lang.ThrowableD16fillInStackTraceL19java.lang.ThrowableEO"(ptr nonnull dereferenceable(40) %_27000001)
  br label %_28000000.0
_28000000.0:
  call ptr @"scalanative_throw"(ptr nonnull dereferenceable(40) %_27000001)
  unreachable
_28000002.0:
  call ptr @"_SM34scala.scalanative.runtime.package$D16throwNullPointernEO"(ptr null)
  unreachable
}

define dereferenceable_or_null(32) ptr @"_SM31java.nio.charset.CharsetDecoderD11replacementL16java.lang.StringEO"(ptr %_1) personality ptr @__gxx_personality_v0 {
_2000000.0:
  %_2000004 = icmp ne ptr %_1, null
  br i1 %_2000004, label %_2000002.0, label %_2000003.0
_2000002.0:
  %_2000005 = getelementptr { { ptr }, i32, float, ptr, ptr, ptr, float, ptr }, { { ptr }, i32, float, ptr, ptr, ptr, float, ptr }* %_1, i32 0, i32 7
  %_2000001 = load ptr, ptr %_2000005, !dereferenceable_or_null !{i64 32}
  ret ptr %_2000001
_2000003.0:
  call ptr @"_SM34scala.scalanative.runtime.package$D16throwNullPointernEO"(ptr null)
  unreachable
}

define dereferenceable_or_null(48) ptr @"_SM31java.nio.charset.CharsetDecoderD12loopDecode$1L19java.nio.ByteBufferL19java.nio.CharBufferL19java.nio.CharBufferEPT31java.nio.charset.CharsetDecoder"(ptr %_1, ptr %_2, ptr %_3) inlinehint personality ptr @__gxx_personality_v0 {
_4000000.0:
  %_32000003 = icmp ne ptr %_1, null
  br i1 %_32000003, label %_32000001.0, label %_32000002.0
_32000001.0:
  br label %_5000000.0
_5000000.0:
  %_5000001 = phi ptr [%_3, %_32000001.0], [%_14000001, %_16000000.0]
  br label %_6000000.0
_6000000.0:
  br label %_7000000.0
_7000000.0:
  %_7000001 = call dereferenceable_or_null(16) ptr @"_SM31java.nio.charset.CharsetDecoderD6decodeL19java.nio.ByteBufferL19java.nio.CharBufferzL28java.nio.charset.CoderResultEO"(ptr dereferenceable_or_null(56) %_1, ptr dereferenceable_or_null(56) %_2, ptr dereferenceable_or_null(48) %_5000001, i1 true)
  %_7000002 = call i1 @"_SM28java.nio.charset.CoderResultD11isUnderflowzEO"(ptr dereferenceable_or_null(16) %_7000001)
  br i1 %_7000002, label %_8000000.0, label %_9000000.0
_8000000.0:
  %_8000001 = call i1 @"_SM15java.nio.BufferD12hasRemainingzEO"(ptr dereferenceable_or_null(56) %_2)
  %_8000004 = xor i1 %_8000001, true
  %_8000005 = xor i1 %_8000004, true
  br i1 %_8000005, label %_10000000.0, label %_11000000.0
_11000000.0:
  br label %_12000000.0
_12000000.0:
  br label %_13000000.0
_9000000.0:
  %_9000001 = call i1 @"_SM28java.nio.charset.CoderResultD10isOverflowzEO"(ptr dereferenceable_or_null(16) %_7000001)
  br i1 %_9000001, label %_14000000.0, label %_15000000.0
_14000000.0:
  %_14000001 = call dereferenceable_or_null(48) ptr @"_SM31java.nio.charset.CharsetDecoderD6grow$1L19java.nio.CharBufferL19java.nio.CharBufferEpT31java.nio.charset.CharsetDecoder"(ptr dereferenceable_or_null(48) %_5000001)
  br label %_16000000.0
_13000000.0:
  ret ptr %_5000001
_16000000.0:
  br label %_5000000.0
_10000000.0:
  call ptr @"_SM28scala.runtime.Scala3RunTime$D12assertFailednEO"(ptr nonnull dereferenceable(8) @"_SM28scala.runtime.Scala3RunTime$G8instance")
  br label %_32000005.0
_15000000.0:
  call void @"_SM28java.nio.charset.CoderResultD14throwExceptionuEO"(ptr dereferenceable_or_null(16) %_7000001)
  %_25000001 = call dereferenceable_or_null(32) ptr @"_SM16java.lang.StringD8toStringL16java.lang.StringEO"(ptr @"_SM7__constG2-36")
  br label %_31000000.0
_31000000.0:
  %_31000001 = call dereferenceable_or_null(40) ptr @"scalanative_GC_alloc_small"(ptr @"_SM24java.lang.AssertionErrorG4type", i64 40)
  %_32000009 = getelementptr { { ptr }, ptr, ptr, ptr, i1, i1 }, { { ptr }, ptr, ptr, ptr, i1, i1 }* %_31000001, i32 0, i32 5
  %_32000010 = zext i1 true to i8
  store i8 %_32000010, ptr%_32000009, align 1
  %_32000012 = getelementptr { { ptr }, ptr, ptr, ptr, i1, i1 }, { { ptr }, ptr, ptr, ptr, i1, i1 }* %_31000001, i32 0, i32 4
  %_32000013 = zext i1 true to i8
  store i8 %_32000013, ptr%_32000012, align 1
  %_32000015 = getelementptr { { ptr }, ptr, ptr, ptr, i1, i1 }, { { ptr }, ptr, ptr, ptr, i1, i1 }* %_31000001, i32 0, i32 3
  store ptr %_25000001, ptr%_32000015, align 8
  %_31000005 = call dereferenceable_or_null(40) ptr @"_SM19java.lang.ThrowableD16fillInStackTraceL19java.lang.ThrowableEO"(ptr nonnull dereferenceable(40) %_31000001)
  br label %_32000000.0
_32000000.0:
  call ptr @"scalanative_throw"(ptr nonnull dereferenceable(40) %_31000001)
  unreachable
_32000002.0:
  call ptr @"_SM34scala.scalanative.runtime.package$D16throwNullPointernEO"(ptr null)
  unreachable
_32000005.0:
  call ptr @"_SM34scala.scalanative.runtime.package$D14throwUndefinednEO"(ptr null)
  unreachable
}

define dereferenceable_or_null(56) ptr @"_SM31java.nio.charset.CharsetDecoderD16onMalformedInputL34java.nio.charset.CodingErrorActionL31java.nio.charset.CharsetDecoderEO"(ptr %_1, ptr %_2) personality ptr @__gxx_personality_v0 {
_3000000.0:
  %_16000005 = icmp ne ptr %_1, null
  br i1 %_16000005, label %_16000003.0, label %_16000004.0
_16000003.0:
  %_3000002 = icmp eq ptr %_2, null
  br i1 %_3000002, label %_4000000.0, label %_5000000.0
_5000000.0:
  br label %_16000000.0
_16000000.0:
  %_16000007 = getelementptr { { ptr }, i32, float, ptr, ptr, ptr, float, ptr }, { { ptr }, i32, float, ptr, ptr, ptr, float, ptr }* %_1, i32 0, i32 4
  store ptr %_2, ptr%_16000007, align 8
  call void @"_SM31java.nio.charset.CharsetDecoderD20implOnMalformedInputL34java.nio.charset.CodingErrorActionuEO"(ptr dereferenceable_or_null(56) %_1, ptr dereferenceable_or_null(16) %_2)
  ret ptr %_1
_4000000.0:
  br label %_14000000.0
_14000000.0:
  %_14000001 = call dereferenceable_or_null(40) ptr @"scalanative_GC_alloc_small"(ptr @"_SM34java.lang.IllegalArgumentExceptionG4type", i64 40)
  %_16000010 = getelementptr { { ptr }, ptr, ptr, ptr, i1, i1 }, { { ptr }, ptr, ptr, ptr, i1, i1 }* %_14000001, i32 0, i32 5
  %_16000011 = zext i1 true to i8
  store i8 %_16000011, ptr%_16000010, align 1
  %_16000013 = getelementptr { { ptr }, ptr, ptr, ptr, i1, i1 }, { { ptr }, ptr, ptr, ptr, i1, i1 }* %_14000001, i32 0, i32 4
  %_16000014 = zext i1 true to i8
  store i8 %_16000014, ptr%_16000013, align 1
  %_16000016 = getelementptr { { ptr }, ptr, ptr, ptr, i1, i1 }, { { ptr }, ptr, ptr, ptr, i1, i1 }* %_14000001, i32 0, i32 3
  store ptr @"_SM7__constG2-38", ptr%_16000016, align 8
  %_14000005 = call dereferenceable_or_null(40) ptr @"_SM19java.lang.ThrowableD16fillInStackTraceL19java.lang.ThrowableEO"(ptr nonnull dereferenceable(40) %_14000001)
  br label %_15000000.0
_15000000.0:
  call ptr @"scalanative_throw"(ptr nonnull dereferenceable(40) %_14000001)
  unreachable
_16000004.0:
  call ptr @"_SM34scala.scalanative.runtime.package$D16throwNullPointernEO"(ptr null)
  unreachable
}

define float @"_SM31java.nio.charset.CharsetDecoderD19averageCharsPerBytefEO"(ptr %_1) personality ptr @__gxx_personality_v0 {
_2000000.0:
  %_2000004 = icmp ne ptr %_1, null
  br i1 %_2000004, label %_2000002.0, label %_2000003.0
_2000002.0:
  %_2000005 = getelementptr { { ptr }, i32, float, ptr, ptr, ptr, float, ptr }, { { ptr }, i32, float, ptr, ptr, ptr, float, ptr }* %_1, i32 0, i32 2
  %_2000001 = load float, ptr %_2000005
  ret float %_2000001
_2000003.0:
  call ptr @"_SM34scala.scalanative.runtime.package$D16throwNullPointernEO"(ptr null)
  unreachable
}

define void @"_SM31java.nio.charset.CharsetDecoderD20implOnMalformedInputL34java.nio.charset.CodingErrorActionuEO"(ptr %_1, ptr %_2) personality ptr @__gxx_personality_v0 {
_3000000.0:
  ret void
}

define dereferenceable_or_null(16) ptr @"_SM31java.nio.charset.CharsetDecoderD20malformedInputActionL34java.nio.charset.CodingErrorActionEO"(ptr %_1) personality ptr @__gxx_personality_v0 {
_2000000.0:
  %_2000004 = icmp ne ptr %_1, null
  br i1 %_2000004, label %_2000002.0, label %_2000003.0
_2000002.0:
  %_2000005 = getelementptr { { ptr }, i32, float, ptr, ptr, ptr, float, ptr }, { { ptr }, i32, float, ptr, ptr, ptr, float, ptr }* %_1, i32 0, i32 4
  %_2000001 = load ptr, ptr %_2000005, !dereferenceable_or_null !{i64 16}
  ret ptr %_2000001
_2000003.0:
  call ptr @"_SM34scala.scalanative.runtime.package$D16throwNullPointernEO"(ptr null)
  unreachable
}

define dereferenceable_or_null(56) ptr @"_SM31java.nio.charset.CharsetDecoderD21onUnmappableCharacterL34java.nio.charset.CodingErrorActionL31java.nio.charset.CharsetDecoderEO"(ptr %_1, ptr %_2) personality ptr @__gxx_personality_v0 {
_3000000.0:
  %_16000005 = icmp ne ptr %_1, null
  br i1 %_16000005, label %_16000003.0, label %_16000004.0
_16000003.0:
  %_3000002 = icmp eq ptr %_2, null
  br i1 %_3000002, label %_4000000.0, label %_5000000.0
_5000000.0:
  br label %_16000000.0
_16000000.0:
  %_16000007 = getelementptr { { ptr }, i32, float, ptr, ptr, ptr, float, ptr }, { { ptr }, i32, float, ptr, ptr, ptr, float, ptr }* %_1, i32 0, i32 3
  store ptr %_2, ptr%_16000007, align 8
  call void @"_SM31java.nio.charset.CharsetDecoderD25implOnUnmappableCharacterL34java.nio.charset.CodingErrorActionuEO"(ptr dereferenceable_or_null(56) %_1, ptr dereferenceable_or_null(16) %_2)
  ret ptr %_1
_4000000.0:
  br label %_14000000.0
_14000000.0:
  %_14000001 = call dereferenceable_or_null(40) ptr @"scalanative_GC_alloc_small"(ptr @"_SM34java.lang.IllegalArgumentExceptionG4type", i64 40)
  %_16000010 = getelementptr { { ptr }, ptr, ptr, ptr, i1, i1 }, { { ptr }, ptr, ptr, ptr, i1, i1 }* %_14000001, i32 0, i32 5
  %_16000011 = zext i1 true to i8
  store i8 %_16000011, ptr%_16000010, align 1
  %_16000013 = getelementptr { { ptr }, ptr, ptr, ptr, i1, i1 }, { { ptr }, ptr, ptr, ptr, i1, i1 }* %_14000001, i32 0, i32 4
  %_16000014 = zext i1 true to i8
  store i8 %_16000014, ptr%_16000013, align 1
  %_16000016 = getelementptr { { ptr }, ptr, ptr, ptr, i1, i1 }, { { ptr }, ptr, ptr, ptr, i1, i1 }* %_14000001, i32 0, i32 3
  store ptr @"_SM7__constG2-38", ptr%_16000016, align 8
  %_14000005 = call dereferenceable_or_null(40) ptr @"_SM19java.lang.ThrowableD16fillInStackTraceL19java.lang.ThrowableEO"(ptr nonnull dereferenceable(40) %_14000001)
  br label %_15000000.0
_15000000.0:
  call ptr @"scalanative_throw"(ptr nonnull dereferenceable(40) %_14000001)
  unreachable
_16000004.0:
  call ptr @"_SM34scala.scalanative.runtime.package$D16throwNullPointernEO"(ptr null)
  unreachable
}

define void @"_SM31java.nio.charset.CharsetDecoderD25implOnUnmappableCharacterL34java.nio.charset.CodingErrorActionuEO"(ptr %_1, ptr %_2) personality ptr @__gxx_personality_v0 {
_3000000.0:
  ret void
}

define dereferenceable_or_null(16) ptr @"_SM31java.nio.charset.CharsetDecoderD25unmappableCharacterActionL34java.nio.charset.CodingErrorActionEO"(ptr %_1) personality ptr @__gxx_personality_v0 {
_2000000.0:
  %_2000004 = icmp ne ptr %_1, null
  br i1 %_2000004, label %_2000002.0, label %_2000003.0
_2000002.0:
  %_2000005 = getelementptr { { ptr }, i32, float, ptr, ptr, ptr, float, ptr }, { { ptr }, i32, float, ptr, ptr, ptr, float, ptr }* %_1, i32 0, i32 3
  %_2000001 = load ptr, ptr %_2000005, !dereferenceable_or_null !{i64 16}
  ret ptr %_2000001
_2000003.0:
  call ptr @"_SM34scala.scalanative.runtime.package$D16throwNullPointernEO"(ptr null)
  unreachable
}

define dereferenceable_or_null(16) ptr @"_SM31java.nio.charset.CharsetDecoderD5flushL19java.nio.CharBufferL28java.nio.charset.CoderResultEO"(ptr %_1, ptr %_2) personality ptr @__gxx_personality_v0 {
_3000000.0:
  %_25000003 = icmp ne ptr %_1, null
  br i1 %_25000003, label %_25000001.0, label %_25000002.0
_25000001.0:
  br label %_4000000.0
_4000000.0:
  %_25000004 = getelementptr { { ptr }, i32, float, ptr, ptr, ptr, float, ptr }, { { ptr }, i32, float, ptr, ptr, ptr, float, ptr }* %_1, i32 0, i32 1
  %_4000001 = load i32, ptr %_25000004
  %_4000003 = icmp eq i32 %_4000001, 3
  br i1 %_4000003, label %_5000000.0, label %_6000000.0
_5000000.0:
  %_5000001 = call dereferenceable_or_null(16) ptr @"_SM31java.nio.charset.CharsetDecoderD9implFlushL19java.nio.CharBufferL28java.nio.charset.CoderResultEO"(ptr dereferenceable_or_null(56) %_1, ptr dereferenceable_or_null(48) %_2)
  %_5000002 = call i1 @"_SM28java.nio.charset.CoderResultD11isUnderflowzEO"(ptr dereferenceable_or_null(16) %_5000001)
  br i1 %_5000002, label %_7000000.0, label %_8000000.0
_7000000.0:
  %_25000006 = getelementptr { { ptr }, i32, float, ptr, ptr, ptr, float, ptr }, { { ptr }, i32, float, ptr, ptr, ptr, float, ptr }* %_1, i32 0, i32 1
  store i32 4, ptr%_25000006, align 4
  br label %_9000000.0
_8000000.0:
  br label %_9000000.0
_9000000.0:
  br label %_10000000.0
_6000000.0:
  br label %_11000000.0
_11000000.0:
  %_11000002 = icmp eq i32 %_4000001, 4
  br i1 %_11000002, label %_12000000.0, label %_13000000.0
_12000000.0:
  %_12000001 = call dereferenceable_or_null(104) ptr @"_SM29java.nio.charset.CoderResult$G4load"()
  %_25000007 = getelementptr { { ptr }, ptr, ptr, ptr, ptr, ptr, ptr, ptr, ptr, ptr, ptr, ptr, ptr }, { { ptr }, ptr, ptr, ptr, ptr, ptr, ptr, ptr, ptr, ptr, ptr, ptr, ptr }* %_12000001, i32 0, i32 12
  %_14000001 = load ptr, ptr %_25000007, !dereferenceable_or_null !{i64 16}
  br label %_10000000.0
_13000000.0:
  br label %_15000000.0
_10000000.0:
  %_10000001 = phi ptr [%_14000001, %_12000000.0], [%_5000001, %_9000000.0]
  ret ptr %_10000001
_15000000.0:
  br label %_24000000.0
_24000000.0:
  %_24000001 = call dereferenceable_or_null(40) ptr @"scalanative_GC_alloc_small"(ptr @"_SM31java.lang.IllegalStateExceptionG4type", i64 40)
  %_25000009 = getelementptr { { ptr }, ptr, ptr, ptr, i1, i1 }, { { ptr }, ptr, ptr, ptr, i1, i1 }* %_24000001, i32 0, i32 5
  %_25000010 = zext i1 true to i8
  store i8 %_25000010, ptr%_25000009, align 1
  %_25000012 = getelementptr { { ptr }, ptr, ptr, ptr, i1, i1 }, { { ptr }, ptr, ptr, ptr, i1, i1 }* %_24000001, i32 0, i32 4
  %_25000013 = zext i1 true to i8
  store i8 %_25000013, ptr%_25000012, align 1
  %_24000004 = call dereferenceable_or_null(40) ptr @"_SM19java.lang.ThrowableD16fillInStackTraceL19java.lang.ThrowableEO"(ptr nonnull dereferenceable(40) %_24000001)
  br label %_25000000.0
_25000000.0:
  call ptr @"scalanative_throw"(ptr nonnull dereferenceable(40) %_24000001)
  unreachable
_25000002.0:
  call ptr @"_SM34scala.scalanative.runtime.package$D16throwNullPointernEO"(ptr null)
  unreachable
}

define dereferenceable_or_null(56) ptr @"_SM31java.nio.charset.CharsetDecoderD5resetL31java.nio.charset.CharsetDecoderEO"(ptr %_1) personality ptr @__gxx_personality_v0 {
_2000000.0:
  %_2000005 = icmp ne ptr %_1, null
  br i1 %_2000005, label %_2000003.0, label %_2000004.0
_2000003.0:
  %_2000007 = getelementptr { { ptr }, i32, float, ptr, ptr, ptr, float, ptr }, { { ptr }, i32, float, ptr, ptr, ptr, float, ptr }* %_1, i32 0, i32 1
  store i32 1, ptr%_2000007, align 4
  call void @"_SM31java.nio.charset.CharsetDecoderD9implResetuEO"(ptr dereferenceable_or_null(56) %_1)
  ret ptr %_1
_2000004.0:
  call ptr @"_SM34scala.scalanative.runtime.package$D16throwNullPointernEO"(ptr null)
  unreachable
}

define dereferenceable_or_null(48) ptr @"_SM31java.nio.charset.CharsetDecoderD6decodeL19java.nio.ByteBufferL19java.nio.CharBufferEO"(ptr %_1, ptr %_2) personality ptr @__gxx_personality_v0 {
_3000000.0:
  %_3000019 = icmp ne ptr %_1, null
  br i1 %_3000019, label %_3000017.0, label %_3000018.0
_3000017.0:
  %_3000001 = call dereferenceable_or_null(56) ptr @"_SM31java.nio.charset.CharsetDecoderD5resetL31java.nio.charset.CharsetDecoderEO"(ptr dereferenceable_or_null(56) %_1)
  %_3000002 = call i32 @"_SM15java.nio.BufferD9remainingiEO"(ptr dereferenceable_or_null(56) %_2)
  %_3000004 = call float @"_SM31java.nio.charset.CharsetDecoderD19averageCharsPerBytefEO"(ptr dereferenceable_or_null(56) %_1)
  %_3000009 = sitofp i32 %_3000002 to double
  %_3000010 = fpext float %_3000004 to double
  %_3000011 = fmul double %_3000009, %_3000010
  %_3000027 = fcmp une double %_3000011, %_3000011
  br i1 %_3000027, label %_3000020.0, label %_3000021.0
_3000020.0:
  br label %_3000026.0
_3000021.0:
  %_3000028 = fcmp ole double %_3000011, 0xc1e0000000000000
  br i1 %_3000028, label %_3000022.0, label %_3000023.0
_3000022.0:
  br label %_3000026.0
_3000023.0:
  %_3000029 = fcmp oge double %_3000011, 0x41dfffffffc00000
  br i1 %_3000029, label %_3000024.0, label %_3000025.0
_3000024.0:
  br label %_3000026.0
_3000025.0:
  %_3000030 = fptosi double %_3000011 to i32
  br label %_3000026.0
_3000026.0:
  %_3000012 = phi i32 [%_3000030, %_3000025.0], [2147483647, %_3000024.0], [-2147483648, %_3000022.0], [zeroinitializer, %_3000020.0]
  %_3000013 = call dereferenceable_or_null(48) ptr @"_SM20java.nio.CharBuffer$D8allocateiL19java.nio.CharBufferEO"(ptr nonnull dereferenceable(8) @"_SM20java.nio.CharBuffer$G8instance", i32 %_3000012)
  %_3000014 = call dereferenceable_or_null(48) ptr @"_SM31java.nio.charset.CharsetDecoderD12loopDecode$1L19java.nio.ByteBufferL19java.nio.CharBufferL19java.nio.CharBufferEPT31java.nio.charset.CharsetDecoder"(ptr dereferenceable_or_null(56) %_1, ptr dereferenceable_or_null(56) %_2, ptr dereferenceable_or_null(48) %_3000013)
  %_3000015 = call dereferenceable_or_null(48) ptr @"_SM31java.nio.charset.CharsetDecoderD11loopFlush$1L19java.nio.CharBufferL19java.nio.CharBufferEPT31java.nio.charset.CharsetDecoder"(ptr dereferenceable_or_null(56) %_1, ptr dereferenceable_or_null(48) %_3000014)
  %_3000016 = call dereferenceable_or_null(48) ptr @"_SM19java.nio.CharBufferD4flipL19java.nio.CharBufferEO"(ptr dereferenceable_or_null(48) %_3000015)
  ret ptr %_3000015
_3000018.0:
  call ptr @"_SM34scala.scalanative.runtime.package$D16throwNullPointernEO"(ptr null)
  unreachable
}

define dereferenceable_or_null(16) ptr @"_SM31java.nio.charset.CharsetDecoderD6decodeL19java.nio.ByteBufferL19java.nio.CharBufferzL28java.nio.charset.CoderResultEO"(ptr %_1, ptr %_2, ptr %_3, i1 %_4) personality ptr @__gxx_personality_v0 {
_5000000.0:
  %_27000006 = icmp ne ptr %_1, null
  br i1 %_27000006, label %_27000004.0, label %_27000005.0
_27000004.0:
  %_27000007 = getelementptr { { ptr }, i32, float, ptr, ptr, ptr, float, ptr }, { { ptr }, i32, float, ptr, ptr, ptr, float, ptr }* %_1, i32 0, i32 1
  %_5000001 = load i32, ptr %_27000007
  %_5000003 = icmp eq i32 %_5000001, 4
  br i1 %_5000003, label %_6000000.0, label %_7000000.0
_6000000.0:
  br label %_8000000.0
_7000000.0:
  %_7000002 = xor i1 %_4, true
  br i1 %_7000002, label %_9000000.0, label %_10000000.0
_9000000.0:
  %_27000008 = getelementptr { { ptr }, i32, float, ptr, ptr, ptr, float, ptr }, { { ptr }, i32, float, ptr, ptr, ptr, float, ptr }* %_1, i32 0, i32 1
  %_9000001 = load i32, ptr %_27000008
  %_9000003 = icmp eq i32 %_9000001, 3
  br label %_11000000.0
_10000000.0:
  br label %_11000000.0
_11000000.0:
  %_11000001 = phi i1 [false, %_10000000.0], [%_9000003, %_9000000.0]
  br label %_8000000.0
_8000000.0:
  %_8000001 = phi i1 [%_11000001, %_11000000.0], [true, %_6000000.0]
  br i1 %_8000001, label %_12000000.0, label %_13000000.0
_13000000.0:
  br label %_24000000.0
_24000000.0:
  br i1 %_4, label %_25000000.0, label %_26000000.0
_25000000.0:
  br label %_27000000.0
_26000000.0:
  br label %_27000000.0
_27000000.0:
  %_27000001 = phi i32 [2, %_26000000.0], [3, %_25000000.0]
  %_27000010 = getelementptr { { ptr }, i32, float, ptr, ptr, ptr, float, ptr }, { { ptr }, i32, float, ptr, ptr, ptr, float, ptr }* %_1, i32 0, i32 1
  store i32 %_27000001, ptr%_27000010, align 4
  %_27000003 = call dereferenceable_or_null(16) ptr @"_SM31java.nio.charset.CharsetDecoderD6loop$1L19java.nio.ByteBufferL19java.nio.CharBufferzL28java.nio.charset.CoderResultEPT31java.nio.charset.CharsetDecoder"(ptr dereferenceable_or_null(56) %_1, ptr dereferenceable_or_null(56) %_2, ptr dereferenceable_or_null(48) %_3, i1 %_4)
  ret ptr %_27000003
_12000000.0:
  br label %_22000000.0
_22000000.0:
  %_22000001 = call dereferenceable_or_null(40) ptr @"scalanative_GC_alloc_small"(ptr @"_SM31java.lang.IllegalStateExceptionG4type", i64 40)
  %_27000012 = getelementptr { { ptr }, ptr, ptr, ptr, i1, i1 }, { { ptr }, ptr, ptr, ptr, i1, i1 }* %_22000001, i32 0, i32 5
  %_27000013 = zext i1 true to i8
  store i8 %_27000013, ptr%_27000012, align 1
  %_27000015 = getelementptr { { ptr }, ptr, ptr, ptr, i1, i1 }, { { ptr }, ptr, ptr, ptr, i1, i1 }* %_22000001, i32 0, i32 4
  %_27000016 = zext i1 true to i8
  store i8 %_27000016, ptr%_27000015, align 1
  %_22000004 = call dereferenceable_or_null(40) ptr @"_SM19java.lang.ThrowableD16fillInStackTraceL19java.lang.ThrowableEO"(ptr nonnull dereferenceable(40) %_22000001)
  br label %_23000000.0
_23000000.0:
  call ptr @"scalanative_throw"(ptr nonnull dereferenceable(40) %_22000001)
  unreachable
_27000005.0:
  call ptr @"_SM34scala.scalanative.runtime.package$D16throwNullPointernEO"(ptr null)
  unreachable
}

define dereferenceable_or_null(48) ptr @"_SM31java.nio.charset.CharsetDecoderD6grow$1L19java.nio.CharBufferL19java.nio.CharBufferEpT31java.nio.charset.CharsetDecoder"(ptr %_1) personality ptr @__gxx_personality_v0 {
_2000000.0:
  %_2000001 = call i32 @"_SM15java.nio.BufferD8capacityiEO"(ptr dereferenceable_or_null(48) %_1)
  %_2000003 = icmp eq i32 %_2000001, 0
  br i1 %_2000003, label %_3000000.0, label %_4000000.0
_3000000.0:
  %_3000002 = call dereferenceable_or_null(48) ptr @"_SM20java.nio.CharBuffer$D8allocateiL19java.nio.CharBufferEO"(ptr nonnull dereferenceable(8) @"_SM20java.nio.CharBuffer$G8instance", i32 1)
  br label %_5000000.0
_4000000.0:
  %_4000002 = call i32 @"_SM15java.nio.BufferD8capacityiEO"(ptr dereferenceable_or_null(48) %_1)
  %_5000002 = and i32 1, 31
  %_4000004 = shl i32 %_4000002, %_5000002
  %_4000005 = call dereferenceable_or_null(48) ptr @"_SM20java.nio.CharBuffer$D8allocateiL19java.nio.CharBufferEO"(ptr nonnull dereferenceable(8) @"_SM20java.nio.CharBuffer$G8instance", i32 %_4000004)
  %_4000006 = call dereferenceable_or_null(48) ptr @"_SM19java.nio.CharBufferD4flipL19java.nio.CharBufferEO"(ptr dereferenceable_or_null(48) %_1)
  %_4000007 = call dereferenceable_or_null(48) ptr @"_SM19java.nio.CharBufferD3putL19java.nio.CharBufferL19java.nio.CharBufferEO"(ptr dereferenceable_or_null(48) %_4000005, ptr dereferenceable_or_null(48) %_1)
  br label %_5000000.0
_5000000.0:
  %_5000001 = phi ptr [%_4000005, %_4000000.0], [%_3000002, %_3000000.0]
  ret ptr %_5000001
}

define dereferenceable_or_null(16) ptr @"_SM31java.nio.charset.CharsetDecoderD6loop$1L19java.nio.ByteBufferL19java.nio.CharBufferzL28java.nio.charset.CoderResultEPT31java.nio.charset.CharsetDecoder"(ptr %_4, ptr %_1, ptr %_2, i1 %_3) inlinehint personality ptr @__gxx_personality_v0 {
_5.0:
  br label %_6.0
_6.0:
  br i1 true, label %_7.0, label %_8.0
_7.0:
  br label %_9.0
_9.0:
  br label %_13.0
_13.0:
  %_175 = icmp ne ptr %_4, null
  br i1 %_175, label %_172.0, label %_173.0
_172.0:
  %_20 = invoke dereferenceable_or_null(16) ptr @"_SM24niocharset.UTF_8$DecoderD10decodeLoopL19java.nio.ByteBufferL19java.nio.CharBufferL28java.nio.charset.CoderResultEO"(ptr dereferenceable_or_null(56) %_4, ptr dereferenceable_or_null(56) %_1, ptr dereferenceable_or_null(48) %_2) to label %_172.1 unwind label %_178.landingpad
_172.1:
  br label %_14.0
_12.0:
  %_15 = phi ptr [%_19, %_177.0], [%_17, %_171.0]
  %_182 = icmp eq ptr %_15, null
  br i1 %_182, label %_179.0, label %_180.0
_179.0:
  br label %_181.0
_180.0:
  %_183 = load ptr, ptr %_15
  %_184 = icmp eq ptr %_183, @"_SM32java.nio.BufferOverflowExceptionG4type"
  br label %_181.0
_181.0:
  %_21 = phi i1 [%_184, %_180.0], [false, %_179.0]
  br i1 %_21, label %_22.0, label %_23.0
_22.0:
  %_188 = icmp eq ptr %_15, null
  br i1 %_188, label %_186.0, label %_185.0
_185.0:
  %_189 = load ptr, ptr %_15
  %_190 = icmp eq ptr %_189, @"_SM32java.nio.BufferOverflowExceptionG4type"
  br i1 %_190, label %_186.0, label %_187.0
_186.0:
  %_27 = call dereferenceable_or_null(40) ptr @"scalanative_GC_alloc_small"(ptr @"_SM38java.nio.charset.CoderMalfunctionErrorG4type", i64 40)
  call void @"_SM38java.nio.charset.CoderMalfunctionErrorRL19java.lang.ExceptionE"(ptr nonnull dereferenceable(40) %_27, ptr dereferenceable_or_null(40) %_15)
  call ptr @"scalanative_throw"(ptr nonnull dereferenceable(40) %_27)
  unreachable
_23.0:
  %_196 = icmp eq ptr %_15, null
  br i1 %_196, label %_193.0, label %_194.0
_193.0:
  br label %_195.0
_194.0:
  %_197 = load ptr, ptr %_15
  %_198 = icmp eq ptr %_197, @"_SM33java.nio.BufferUnderflowExceptionG4type"
  br label %_195.0
_195.0:
  %_31 = phi i1 [%_198, %_194.0], [false, %_193.0]
  br i1 %_31, label %_32.0, label %_33.0
_32.0:
  %_201 = icmp eq ptr %_15, null
  br i1 %_201, label %_200.0, label %_199.0
_199.0:
  %_202 = load ptr, ptr %_15
  %_203 = icmp eq ptr %_202, @"_SM33java.nio.BufferUnderflowExceptionG4type"
  br i1 %_203, label %_200.0, label %_187.0
_200.0:
  %_37 = call dereferenceable_or_null(40) ptr @"scalanative_GC_alloc_small"(ptr @"_SM38java.nio.charset.CoderMalfunctionErrorG4type", i64 40)
  call void @"_SM38java.nio.charset.CoderMalfunctionErrorRL19java.lang.ExceptionE"(ptr nonnull dereferenceable(40) %_37, ptr dereferenceable_or_null(40) %_15)
  call ptr @"scalanative_throw"(ptr nonnull dereferenceable(40) %_37)
  unreachable
_33.0:
  %_208 = icmp ne ptr %_15, null
  br i1 %_208, label %_206.0, label %_207.0
_206.0:
  call ptr @"scalanative_throw"(ptr dereferenceable_or_null(8) %_15)
  unreachable
_14.0:
  %_16 = phi ptr [%_20, %_172.1]
  %_211 = icmp ne ptr %_16, null
  br i1 %_211, label %_210.0, label %_207.0
_210.0:
  %_47 = call i1 @"_SM28java.nio.charset.CoderResultD11isUnderflowzEO"(ptr dereferenceable_or_null(16) %_16)
  br i1 %_47, label %_42.0, label %_43.0
_42.0:
  %_213 = icmp ne ptr %_1, null
  br i1 %_213, label %_212.0, label %_207.0
_212.0:
  %_49 = call i32 @"_SM15java.nio.BufferD9remainingiEO"(ptr dereferenceable_or_null(56) %_1)
  br i1 %_3, label %_54.0, label %_55.0
_54.0:
  %_58 = icmp sgt i32 %_49, 0
  br label %_56.0
_55.0:
  br label %_56.0
_56.0:
  %_57 = phi i1 [false, %_55.0], [%_58, %_54.0]
  br i1 %_57, label %_50.0, label %_51.0
_50.0:
  %_59 = call dereferenceable_or_null(104) ptr @"_SM29java.nio.charset.CoderResult$G4load"()
  %_61 = call dereferenceable_or_null(16) ptr @"_SM29java.nio.charset.CoderResult$D18malformedForLengthiL28java.nio.charset.CoderResultEO"(ptr nonnull dereferenceable(104) %_59, i32 %_49)
  br label %_52.0
_51.0:
  br label %_52.0
_52.0:
  %_53 = phi ptr [%_16, %_51.0], [%_61, %_50.0]
  br label %_44.0
_43.0:
  br label %_44.0
_44.0:
  %_45 = phi ptr [%_16, %_43.0], [%_53, %_52.0]
  %_215 = icmp ne ptr %_45, null
  br i1 %_215, label %_214.0, label %_207.0
_214.0:
  %_71 = call i1 @"_SM28java.nio.charset.CoderResultD11isUnderflowzEO"(ptr dereferenceable_or_null(16) %_45)
  br i1 %_71, label %_66.0, label %_67.0
_66.0:
  br label %_68.0
_67.0:
  %_73 = call i1 @"_SM28java.nio.charset.CoderResultD10isOverflowzEO"(ptr dereferenceable_or_null(16) %_45)
  br label %_68.0
_68.0:
  %_69 = phi i1 [%_73, %_67.0], [true, %_66.0]
  br i1 %_69, label %_62.0, label %_63.0
_62.0:
  br label %_64.0
_63.0:
  %_79 = call i1 @"_SM28java.nio.charset.CoderResultD12isUnmappablezEO"(ptr dereferenceable_or_null(16) %_45)
  br i1 %_79, label %_74.0, label %_75.0
_74.0:
  %_81 = call dereferenceable_or_null(16) ptr @"_SM31java.nio.charset.CharsetDecoderD25unmappableCharacterActionL34java.nio.charset.CodingErrorActionEO"(ptr dereferenceable_or_null(56) %_4)
  br label %_76.0
_75.0:
  %_83 = call dereferenceable_or_null(16) ptr @"_SM31java.nio.charset.CharsetDecoderD20malformedInputActionL34java.nio.charset.CodingErrorActionEO"(ptr dereferenceable_or_null(56) %_4)
  br label %_76.0
_76.0:
  %_77 = phi ptr [%_83, %_75.0], [%_81, %_74.0]
  br label %_84.0
_84.0:
  %_95 = call dereferenceable_or_null(32) ptr @"_SM35java.nio.charset.CodingErrorAction$G4load"()
  %_97 = call dereferenceable_or_null(16) ptr @"_SM35java.nio.charset.CodingErrorAction$D7REPLACEL34java.nio.charset.CodingErrorActionEO"(ptr nonnull dereferenceable(32) %_95)
  %_98 = icmp eq ptr %_97, null
  br i1 %_98, label %_91.0, label %_92.0
_91.0:
  %_99 = icmp eq ptr %_77, null
  br label %_93.0
_92.0:
  %_217 = icmp ne ptr %_97, null
  br i1 %_217, label %_216.0, label %_207.0
_216.0:
  %_101 = call i1 @"_SM16java.lang.ObjectD6equalsL16java.lang.ObjectzEO"(ptr dereferenceable_or_null(16) %_97, ptr dereferenceable_or_null(16) %_77)
  br label %_93.0
_93.0:
  %_94 = phi i1 [%_101, %_216.0], [%_99, %_91.0]
  br i1 %_94, label %_87.0, label %_88.0
_87.0:
  %_219 = icmp ne ptr %_2, null
  br i1 %_219, label %_218.0, label %_207.0
_218.0:
  %_107 = call i32 @"_SM15java.nio.BufferD9remainingiEO"(ptr dereferenceable_or_null(48) %_2)
  %_109 = call dereferenceable_or_null(32) ptr @"_SM31java.nio.charset.CharsetDecoderD11replacementL16java.lang.StringEO"(ptr dereferenceable_or_null(56) %_4)
  %_221 = icmp ne ptr %_109, null
  br i1 %_221, label %_220.0, label %_207.0
_220.0:
  %_111 = call i32 @"_SM16java.lang.StringD6lengthiEO"(ptr dereferenceable_or_null(32) %_109)
  %_112 = icmp slt i32 %_107, %_111
  br i1 %_112, label %_102.0, label %_103.0
_102.0:
  %_113 = call dereferenceable_or_null(104) ptr @"_SM29java.nio.charset.CoderResult$G4load"()
  %_115 = call dereferenceable_or_null(16) ptr @"_SM29java.nio.charset.CoderResult$D8OVERFLOWL28java.nio.charset.CoderResultEO"(ptr nonnull dereferenceable(104) %_113)
  br label %_104.0
_103.0:
  %_117 = call dereferenceable_or_null(32) ptr @"_SM31java.nio.charset.CharsetDecoderD11replacementL16java.lang.StringEO"(ptr dereferenceable_or_null(56) %_4)
  %_119 = call dereferenceable_or_null(48) ptr @"_SM19java.nio.CharBufferD3putL16java.lang.StringL19java.nio.CharBufferEO"(ptr dereferenceable_or_null(48) %_2, ptr dereferenceable_or_null(32) %_117)
  %_121 = call i32 @"_SM15java.nio.BufferD8positioniEO"(ptr dereferenceable_or_null(56) %_1)
  %_123 = call i32 @"_SM28java.nio.charset.CoderResultD6lengthiEO"(ptr dereferenceable_or_null(16) %_45)
  %_124 = add i32 %_121, %_123
  %_126 = call dereferenceable_or_null(56) ptr @"_SM19java.nio.ByteBufferD8positioniL19java.nio.ByteBufferEO"(ptr dereferenceable_or_null(56) %_1, i32 %_124)
  br label %_10.0
_104.0:
  %_105 = phi ptr [%_115, %_102.0]
  br label %_85.0
_88.0:
  br label %_89.0
_89.0:
  %_137 = call dereferenceable_or_null(32) ptr @"_SM35java.nio.charset.CodingErrorAction$G4load"()
  %_139 = call dereferenceable_or_null(16) ptr @"_SM35java.nio.charset.CodingErrorAction$D6REPORTL34java.nio.charset.CodingErrorActionEO"(ptr nonnull dereferenceable(32) %_137)
  %_140 = icmp eq ptr %_139, null
  br i1 %_140, label %_133.0, label %_134.0
_133.0:
  %_141 = icmp eq ptr %_77, null
  br label %_135.0
_134.0:
  %_223 = icmp ne ptr %_139, null
  br i1 %_223, label %_222.0, label %_207.0
_222.0:
  %_143 = call i1 @"_SM16java.lang.ObjectD6equalsL16java.lang.ObjectzEO"(ptr dereferenceable_or_null(16) %_139, ptr dereferenceable_or_null(16) %_77)
  br label %_135.0
_135.0:
  %_136 = phi i1 [%_143, %_222.0], [%_141, %_133.0]
  br i1 %_136, label %_129.0, label %_130.0
_129.0:
  br label %_85.0
_130.0:
  br label %_131.0
_131.0:
  %_153 = call dereferenceable_or_null(32) ptr @"_SM35java.nio.charset.CodingErrorAction$G4load"()
  %_155 = call dereferenceable_or_null(16) ptr @"_SM35java.nio.charset.CodingErrorAction$D6IGNOREL34java.nio.charset.CodingErrorActionEO"(ptr nonnull dereferenceable(32) %_153)
  %_156 = icmp eq ptr %_155, null
  br i1 %_156, label %_149.0, label %_150.0
_149.0:
  %_157 = icmp eq ptr %_77, null
  br label %_151.0
_150.0:
  %_225 = icmp ne ptr %_155, null
  br i1 %_225, label %_224.0, label %_207.0
_224.0:
  %_159 = call i1 @"_SM16java.lang.ObjectD6equalsL16java.lang.ObjectzEO"(ptr dereferenceable_or_null(16) %_155, ptr dereferenceable_or_null(16) %_77)
  br label %_151.0
_151.0:
  %_152 = phi i1 [%_159, %_224.0], [%_157, %_149.0]
  br i1 %_152, label %_145.0, label %_146.0
_145.0:
  %_161 = call i32 @"_SM15java.nio.BufferD8positioniEO"(ptr dereferenceable_or_null(56) %_1)
  %_163 = call i32 @"_SM28java.nio.charset.CoderResultD6lengthiEO"(ptr dereferenceable_or_null(16) %_45)
  %_164 = add i32 %_161, %_163
  %_166 = call dereferenceable_or_null(56) ptr @"_SM19java.nio.ByteBufferD8positioniL19java.nio.ByteBufferEO"(ptr dereferenceable_or_null(56) %_1, i32 %_164)
  br label %_10.0
_146.0:
  br label %_147.0
_147.0:
  %_169 = call dereferenceable_or_null(64) ptr @"scalanative_GC_alloc_small"(ptr @"_SM16scala.MatchErrorG4type", i64 64)
  call void @"_SM16scala.MatchErrorRL16java.lang.ObjectE"(ptr nonnull dereferenceable(64) %_169, ptr dereferenceable_or_null(16) %_77)
  call ptr @"scalanative_throw"(ptr nonnull dereferenceable(64) %_169)
  unreachable
_85.0:
  %_86 = phi ptr [%_45, %_129.0], [%_105, %_104.0]
  br label %_64.0
_64.0:
  %_65 = phi ptr [%_86, %_85.0], [%_45, %_62.0]
  ret ptr %_65
_10.0:
  br label %_6.0
_8.0:
  ret ptr zeroinitializer
_173.0:
  invoke ptr @"_SM34scala.scalanative.runtime.package$D16throwNullPointernEO"(ptr null) to label %_173.1 unwind label %_228.landingpad
_173.1:
  unreachable
_207.0:
  call ptr @"_SM34scala.scalanative.runtime.package$D16throwNullPointernEO"(ptr null)
  unreachable
_187.0:
  %_231 = phi ptr [%_15, %_199.0], [%_15, %_185.0]
  %_232 = phi ptr [@"_SM33java.nio.BufferUnderflowExceptionG4type", %_199.0], [@"_SM32java.nio.BufferOverflowExceptionG4type", %_185.0]
  %_233 = load ptr, ptr %_231
  call ptr @"_SM34scala.scalanative.runtime.package$D14throwClassCastR_R_nEO"(ptr null, ptr %_233, ptr %_232)
  unreachable
_171.0:
  %_17 = phi ptr [%_174, %_174.landingpad.succ], [%_228, %_228.landingpad.succ], [%_176, %_176.landingpad.succ]
  br label %_12.0
_177.0:
  %_19 = phi ptr [%_178, %_178.landingpad.succ]
  br label %_12.0
_174.landingpad:
  %_270 = landingpad { ptr, i32 } catch ptr @_ZTIN11scalanative16ExceptionWrapperE
  %_271 = extractvalue { ptr, i32 } %_270, 0
  %_272 = extractvalue { ptr, i32 } %_270, 1
  %_273 = call i32 @llvm.eh.typeid.for(ptr @_ZTIN11scalanative16ExceptionWrapperE)
  %_274 = icmp eq i32 %_272, %_273
  br i1 %_274, label %_174.landingpad.succ, label %_174.landingpad.fail
_174.landingpad.succ:
  %_275 = call ptr @__cxa_begin_catch(ptr %_271)
  %_277 = getelementptr ptr, ptr %_275, i32 1
  %_174 = load ptr, ptr %_277
  call void @__cxa_end_catch()br label %_171.0
_174.landingpad.fail:
  resume { ptr, i32 } %_270
_176.landingpad:
  %_278 = landingpad { ptr, i32 } catch ptr @_ZTIN11scalanative16ExceptionWrapperE
  %_279 = extractvalue { ptr, i32 } %_278, 0
  %_280 = extractvalue { ptr, i32 } %_278, 1
  %_281 = call i32 @llvm.eh.typeid.for(ptr @_ZTIN11scalanative16ExceptionWrapperE)
  %_282 = icmp eq i32 %_280, %_281
  br i1 %_282, label %_176.landingpad.succ, label %_176.landingpad.fail
_176.landingpad.succ:
  %_283 = call ptr @__cxa_begin_catch(ptr %_279)
  %_285 = getelementptr ptr, ptr %_283, i32 1
  %_176 = load ptr, ptr %_285
  call void @__cxa_end_catch()br label %_171.0
_176.landingpad.fail:
  resume { ptr, i32 } %_278
_178.landingpad:
  %_286 = landingpad { ptr, i32 } catch ptr @_ZTIN11scalanative16ExceptionWrapperE
  %_287 = extractvalue { ptr, i32 } %_286, 0
  %_288 = extractvalue { ptr, i32 } %_286, 1
  %_289 = call i32 @llvm.eh.typeid.for(ptr @_ZTIN11scalanative16ExceptionWrapperE)
  %_290 = icmp eq i32 %_288, %_289
  br i1 %_290, label %_178.landingpad.succ, label %_178.landingpad.fail
_178.landingpad.succ:
  %_291 = call ptr @__cxa_begin_catch(ptr %_287)
  %_293 = getelementptr ptr, ptr %_291, i32 1
  %_178 = load ptr, ptr %_293
  call void @__cxa_end_catch()br label %_177.0
_178.landingpad.fail:
  resume { ptr, i32 } %_286
_228.landingpad:
  %_294 = landingpad { ptr, i32 } catch ptr @_ZTIN11scalanative16ExceptionWrapperE
  %_295 = extractvalue { ptr, i32 } %_294, 0
  %_296 = extractvalue { ptr, i32 } %_294, 1
  %_297 = call i32 @llvm.eh.typeid.for(ptr @_ZTIN11scalanative16ExceptionWrapperE)
  %_298 = icmp eq i32 %_296, %_297
  br i1 %_298, label %_228.landingpad.succ, label %_228.landingpad.fail
_228.landingpad.succ:
  %_299 = call ptr @__cxa_begin_catch(ptr %_295)
  %_301 = getelementptr ptr, ptr %_299, i32 1
  %_228 = load ptr, ptr %_301
  call void @__cxa_end_catch()br label %_171.0
_228.landingpad.fail:
  resume { ptr, i32 } %_294
}

define dereferenceable_or_null(16) ptr @"_SM31java.nio.charset.CharsetDecoderD9implFlushL19java.nio.CharBufferL28java.nio.charset.CoderResultEO"(ptr %_1, ptr %_2) personality ptr @__gxx_personality_v0 {
_3000000.0:
  %_3000001 = call dereferenceable_or_null(104) ptr @"_SM29java.nio.charset.CoderResult$G4load"()
  %_4000002 = getelementptr { { ptr }, ptr, ptr, ptr, ptr, ptr, ptr, ptr, ptr, ptr, ptr, ptr, ptr }, { { ptr }, ptr, ptr, ptr, ptr, ptr, ptr, ptr, ptr, ptr, ptr, ptr, ptr }* %_3000001, i32 0, i32 12
  %_4000001 = load ptr, ptr %_4000002, !dereferenceable_or_null !{i64 16}
  ret ptr %_4000001
}

define void @"_SM31java.nio.charset.CharsetDecoderD9implResetuEO"(ptr %_1) personality ptr @__gxx_personality_v0 {
_2000000.0:
  ret void
}

define dereferenceable_or_null(16) ptr @"_SM31java.nio.charset.CharsetEncoderD11replacementLAb_EO"(ptr %_1) personality ptr @__gxx_personality_v0 {
_2000000.0:
  %_3000004 = icmp ne ptr %_1, null
  br i1 %_3000004, label %_3000002.0, label %_3000003.0
_3000002.0:
  %_3000005 = getelementptr { { ptr }, i32, ptr, ptr, ptr, float, float, ptr }, { { ptr }, i32, ptr, ptr, ptr, float, float, ptr }* %_1, i32 0, i32 7
  %_3000001 = load ptr, ptr %_3000005, !dereferenceable_or_null !{i64 16}
  ret ptr %_3000001
_3000003.0:
  call ptr @"_SM34scala.scalanative.runtime.package$D16throwNullPointernEO"(ptr null)
  unreachable
}

define dereferenceable_or_null(56) ptr @"_SM31java.nio.charset.CharsetEncoderD16onMalformedInputL34java.nio.charset.CodingErrorActionL31java.nio.charset.CharsetEncoderEO"(ptr %_1, ptr %_2) personality ptr @__gxx_personality_v0 {
_3000000.0:
  %_16000005 = icmp ne ptr %_1, null
  br i1 %_16000005, label %_16000003.0, label %_16000004.0
_16000003.0:
  %_3000002 = icmp eq ptr %_2, null
  br i1 %_3000002, label %_4000000.0, label %_5000000.0
_5000000.0:
  br label %_16000000.0
_16000000.0:
  %_16000007 = getelementptr { { ptr }, i32, ptr, ptr, ptr, float, float, ptr }, { { ptr }, i32, ptr, ptr, ptr, float, float, ptr }* %_1, i32 0, i32 3
  store ptr %_2, ptr%_16000007, align 8
  call void @"_SM31java.nio.charset.CharsetEncoderD20implOnMalformedInputL34java.nio.charset.CodingErrorActionuEO"(ptr dereferenceable_or_null(56) %_1, ptr dereferenceable_or_null(16) %_2)
  ret ptr %_1
_4000000.0:
  br label %_14000000.0
_14000000.0:
  %_14000001 = call dereferenceable_or_null(40) ptr @"scalanative_GC_alloc_small"(ptr @"_SM34java.lang.IllegalArgumentExceptionG4type", i64 40)
  %_16000010 = getelementptr { { ptr }, ptr, ptr, ptr, i1, i1 }, { { ptr }, ptr, ptr, ptr, i1, i1 }* %_14000001, i32 0, i32 5
  %_16000011 = zext i1 true to i8
  store i8 %_16000011, ptr%_16000010, align 1
  %_16000013 = getelementptr { { ptr }, ptr, ptr, ptr, i1, i1 }, { { ptr }, ptr, ptr, ptr, i1, i1 }* %_14000001, i32 0, i32 4
  %_16000014 = zext i1 true to i8
  store i8 %_16000014, ptr%_16000013, align 1
  %_16000016 = getelementptr { { ptr }, ptr, ptr, ptr, i1, i1 }, { { ptr }, ptr, ptr, ptr, i1, i1 }* %_14000001, i32 0, i32 3
  store ptr @"_SM7__constG2-38", ptr%_16000016, align 8
  %_14000005 = call dereferenceable_or_null(40) ptr @"_SM19java.lang.ThrowableD16fillInStackTraceL19java.lang.ThrowableEO"(ptr nonnull dereferenceable(40) %_14000001)
  br label %_15000000.0
_15000000.0:
  call ptr @"scalanative_throw"(ptr nonnull dereferenceable(40) %_14000001)
  unreachable
_16000004.0:
  call ptr @"_SM34scala.scalanative.runtime.package$D16throwNullPointernEO"(ptr null)
  unreachable
}

define void @"_SM31java.nio.charset.CharsetEncoderD20implOnMalformedInputL34java.nio.charset.CodingErrorActionuEO"(ptr %_1, ptr %_2) personality ptr @__gxx_personality_v0 {
_3000000.0:
  ret void
}

define dereferenceable_or_null(16) ptr @"_SM31java.nio.charset.CharsetEncoderD20malformedInputActionL34java.nio.charset.CodingErrorActionEO"(ptr %_1) personality ptr @__gxx_personality_v0 {
_2000000.0:
  %_2000004 = icmp ne ptr %_1, null
  br i1 %_2000004, label %_2000002.0, label %_2000003.0
_2000002.0:
  %_2000005 = getelementptr { { ptr }, i32, ptr, ptr, ptr, float, float, ptr }, { { ptr }, i32, ptr, ptr, ptr, float, float, ptr }* %_1, i32 0, i32 3
  %_2000001 = load ptr, ptr %_2000005, !dereferenceable_or_null !{i64 16}
  ret ptr %_2000001
_2000003.0:
  call ptr @"_SM34scala.scalanative.runtime.package$D16throwNullPointernEO"(ptr null)
  unreachable
}

define dereferenceable_or_null(56) ptr @"_SM31java.nio.charset.CharsetEncoderD21onUnmappableCharacterL34java.nio.charset.CodingErrorActionL31java.nio.charset.CharsetEncoderEO"(ptr %_1, ptr %_2) personality ptr @__gxx_personality_v0 {
_3000000.0:
  %_16000005 = icmp ne ptr %_1, null
  br i1 %_16000005, label %_16000003.0, label %_16000004.0
_16000003.0:
  %_3000002 = icmp eq ptr %_2, null
  br i1 %_3000002, label %_4000000.0, label %_5000000.0
_5000000.0:
  br label %_16000000.0
_16000000.0:
  %_16000007 = getelementptr { { ptr }, i32, ptr, ptr, ptr, float, float, ptr }, { { ptr }, i32, ptr, ptr, ptr, float, float, ptr }* %_1, i32 0, i32 2
  store ptr %_2, ptr%_16000007, align 8
  call void @"_SM31java.nio.charset.CharsetEncoderD25implOnUnmappableCharacterL34java.nio.charset.CodingErrorActionuEO"(ptr dereferenceable_or_null(56) %_1, ptr dereferenceable_or_null(16) %_2)
  ret ptr %_1
_4000000.0:
  br label %_14000000.0
_14000000.0:
  %_14000001 = call dereferenceable_or_null(40) ptr @"scalanative_GC_alloc_small"(ptr @"_SM34java.lang.IllegalArgumentExceptionG4type", i64 40)
  %_16000010 = getelementptr { { ptr }, ptr, ptr, ptr, i1, i1 }, { { ptr }, ptr, ptr, ptr, i1, i1 }* %_14000001, i32 0, i32 5
  %_16000011 = zext i1 true to i8
  store i8 %_16000011, ptr%_16000010, align 1
  %_16000013 = getelementptr { { ptr }, ptr, ptr, ptr, i1, i1 }, { { ptr }, ptr, ptr, ptr, i1, i1 }* %_14000001, i32 0, i32 4
  %_16000014 = zext i1 true to i8
  store i8 %_16000014, ptr%_16000013, align 1
  %_16000016 = getelementptr { { ptr }, ptr, ptr, ptr, i1, i1 }, { { ptr }, ptr, ptr, ptr, i1, i1 }* %_14000001, i32 0, i32 3
  store ptr @"_SM7__constG2-38", ptr%_16000016, align 8
  %_14000005 = call dereferenceable_or_null(40) ptr @"_SM19java.lang.ThrowableD16fillInStackTraceL19java.lang.ThrowableEO"(ptr nonnull dereferenceable(40) %_14000001)
  br label %_15000000.0
_15000000.0:
  call ptr @"scalanative_throw"(ptr nonnull dereferenceable(40) %_14000001)
  unreachable
_16000004.0:
  call ptr @"_SM34scala.scalanative.runtime.package$D16throwNullPointernEO"(ptr null)
  unreachable
}

define void @"_SM31java.nio.charset.CharsetEncoderD25implOnUnmappableCharacterL34java.nio.charset.CodingErrorActionuEO"(ptr %_1, ptr %_2) personality ptr @__gxx_personality_v0 {
_3000000.0:
  ret void
}

define dereferenceable_or_null(16) ptr @"_SM31java.nio.charset.CharsetEncoderD25unmappableCharacterActionL34java.nio.charset.CodingErrorActionEO"(ptr %_1) personality ptr @__gxx_personality_v0 {
_2000000.0:
  %_2000004 = icmp ne ptr %_1, null
  br i1 %_2000004, label %_2000002.0, label %_2000003.0
_2000002.0:
  %_2000005 = getelementptr { { ptr }, i32, ptr, ptr, ptr, float, float, ptr }, { { ptr }, i32, ptr, ptr, ptr, float, float, ptr }* %_1, i32 0, i32 2
  %_2000001 = load ptr, ptr %_2000005, !dereferenceable_or_null !{i64 16}
  ret ptr %_2000001
_2000003.0:
  call ptr @"_SM34scala.scalanative.runtime.package$D16throwNullPointernEO"(ptr null)
  unreachable
}

define dereferenceable_or_null(16) ptr @"_SM31java.nio.charset.CharsetEncoderD6encodeL19java.nio.CharBufferL19java.nio.ByteBufferzL28java.nio.charset.CoderResultEO"(ptr %_1, ptr %_2, ptr %_3, i1 %_4) personality ptr @__gxx_personality_v0 {
_5000000.0:
  %_27000006 = icmp ne ptr %_1, null
  br i1 %_27000006, label %_27000004.0, label %_27000005.0
_27000004.0:
  %_27000007 = getelementptr { { ptr }, i32, ptr, ptr, ptr, float, float, ptr }, { { ptr }, i32, ptr, ptr, ptr, float, float, ptr }* %_1, i32 0, i32 1
  %_5000001 = load i32, ptr %_27000007
  %_5000003 = icmp eq i32 %_5000001, 3
  br i1 %_5000003, label %_6000000.0, label %_7000000.0
_6000000.0:
  br label %_8000000.0
_7000000.0:
  %_7000002 = xor i1 %_4, true
  br i1 %_7000002, label %_9000000.0, label %_10000000.0
_9000000.0:
  %_27000008 = getelementptr { { ptr }, i32, ptr, ptr, ptr, float, float, ptr }, { { ptr }, i32, ptr, ptr, ptr, float, float, ptr }* %_1, i32 0, i32 1
  %_9000001 = load i32, ptr %_27000008
  %_9000003 = icmp eq i32 %_9000001, 2
  br label %_11000000.0
_10000000.0:
  br label %_11000000.0
_11000000.0:
  %_11000001 = phi i1 [false, %_10000000.0], [%_9000003, %_9000000.0]
  br label %_8000000.0
_8000000.0:
  %_8000001 = phi i1 [%_11000001, %_11000000.0], [true, %_6000000.0]
  br i1 %_8000001, label %_12000000.0, label %_13000000.0
_13000000.0:
  br label %_24000000.0
_24000000.0:
  br i1 %_4, label %_25000000.0, label %_26000000.0
_25000000.0:
  br label %_27000000.0
_26000000.0:
  br label %_27000000.0
_27000000.0:
  %_27000001 = phi i32 [1, %_26000000.0], [2, %_25000000.0]
  %_27000010 = getelementptr { { ptr }, i32, ptr, ptr, ptr, float, float, ptr }, { { ptr }, i32, ptr, ptr, ptr, float, float, ptr }* %_1, i32 0, i32 1
  store i32 %_27000001, ptr%_27000010, align 4
  %_27000003 = call dereferenceable_or_null(16) ptr @"_SM31java.nio.charset.CharsetEncoderD6loop$2L19java.nio.CharBufferL19java.nio.ByteBufferzL28java.nio.charset.CoderResultEPT31java.nio.charset.CharsetEncoder"(ptr dereferenceable_or_null(56) %_1, ptr dereferenceable_or_null(48) %_2, ptr dereferenceable_or_null(56) %_3, i1 %_4)
  ret ptr %_27000003
_12000000.0:
  br label %_22000000.0
_22000000.0:
  %_22000001 = call dereferenceable_or_null(40) ptr @"scalanative_GC_alloc_small"(ptr @"_SM31java.lang.IllegalStateExceptionG4type", i64 40)
  %_27000012 = getelementptr { { ptr }, ptr, ptr, ptr, i1, i1 }, { { ptr }, ptr, ptr, ptr, i1, i1 }* %_22000001, i32 0, i32 5
  %_27000013 = zext i1 true to i8
  store i8 %_27000013, ptr%_27000012, align 1
  %_27000015 = getelementptr { { ptr }, ptr, ptr, ptr, i1, i1 }, { { ptr }, ptr, ptr, ptr, i1, i1 }* %_22000001, i32 0, i32 4
  %_27000016 = zext i1 true to i8
  store i8 %_27000016, ptr%_27000015, align 1
  %_22000004 = call dereferenceable_or_null(40) ptr @"_SM19java.lang.ThrowableD16fillInStackTraceL19java.lang.ThrowableEO"(ptr nonnull dereferenceable(40) %_22000001)
  br label %_23000000.0
_23000000.0:
  call ptr @"scalanative_throw"(ptr nonnull dereferenceable(40) %_22000001)
  unreachable
_27000005.0:
  call ptr @"_SM34scala.scalanative.runtime.package$D16throwNullPointernEO"(ptr null)
  unreachable
}

define dereferenceable_or_null(16) ptr @"_SM31java.nio.charset.CharsetEncoderD6loop$2L19java.nio.CharBufferL19java.nio.ByteBufferzL28java.nio.charset.CoderResultEPT31java.nio.charset.CharsetEncoder"(ptr %_4, ptr %_1, ptr %_2, i1 %_3) inlinehint personality ptr @__gxx_personality_v0 {
_5.0:
  br label %_6.0
_6.0:
  br i1 true, label %_7.0, label %_8.0
_7.0:
  br label %_9.0
_9.0:
  br label %_13.0
_13.0:
  %_174 = icmp ne ptr %_4, null
  br i1 %_174, label %_171.0, label %_172.0
_171.0:
  %_20 = invoke dereferenceable_or_null(16) ptr @"_SM24niocharset.UTF_8$EncoderD10encodeLoopL19java.nio.CharBufferL19java.nio.ByteBufferL28java.nio.charset.CoderResultEO"(ptr dereferenceable_or_null(56) %_4, ptr dereferenceable_or_null(48) %_1, ptr dereferenceable_or_null(56) %_2) to label %_171.1 unwind label %_177.landingpad
_171.1:
  br label %_14.0
_12.0:
  %_15 = phi ptr [%_19, %_176.0], [%_17, %_170.0]
  %_181 = icmp eq ptr %_15, null
  br i1 %_181, label %_178.0, label %_179.0
_178.0:
  br label %_180.0
_179.0:
  %_182 = load ptr, ptr %_15
  %_183 = icmp eq ptr %_182, @"_SM32java.nio.BufferOverflowExceptionG4type"
  br label %_180.0
_180.0:
  %_21 = phi i1 [%_183, %_179.0], [false, %_178.0]
  br i1 %_21, label %_22.0, label %_23.0
_22.0:
  %_187 = icmp eq ptr %_15, null
  br i1 %_187, label %_185.0, label %_184.0
_184.0:
  %_188 = load ptr, ptr %_15
  %_189 = icmp eq ptr %_188, @"_SM32java.nio.BufferOverflowExceptionG4type"
  br i1 %_189, label %_185.0, label %_186.0
_185.0:
  %_27 = call dereferenceable_or_null(40) ptr @"scalanative_GC_alloc_small"(ptr @"_SM38java.nio.charset.CoderMalfunctionErrorG4type", i64 40)
  call void @"_SM38java.nio.charset.CoderMalfunctionErrorRL19java.lang.ExceptionE"(ptr nonnull dereferenceable(40) %_27, ptr dereferenceable_or_null(40) %_15)
  call ptr @"scalanative_throw"(ptr nonnull dereferenceable(40) %_27)
  unreachable
_23.0:
  %_195 = icmp eq ptr %_15, null
  br i1 %_195, label %_192.0, label %_193.0
_192.0:
  br label %_194.0
_193.0:
  %_196 = load ptr, ptr %_15
  %_197 = icmp eq ptr %_196, @"_SM33java.nio.BufferUnderflowExceptionG4type"
  br label %_194.0
_194.0:
  %_31 = phi i1 [%_197, %_193.0], [false, %_192.0]
  br i1 %_31, label %_32.0, label %_33.0
_32.0:
  %_200 = icmp eq ptr %_15, null
  br i1 %_200, label %_199.0, label %_198.0
_198.0:
  %_201 = load ptr, ptr %_15
  %_202 = icmp eq ptr %_201, @"_SM33java.nio.BufferUnderflowExceptionG4type"
  br i1 %_202, label %_199.0, label %_186.0
_199.0:
  %_37 = call dereferenceable_or_null(40) ptr @"scalanative_GC_alloc_small"(ptr @"_SM38java.nio.charset.CoderMalfunctionErrorG4type", i64 40)
  call void @"_SM38java.nio.charset.CoderMalfunctionErrorRL19java.lang.ExceptionE"(ptr nonnull dereferenceable(40) %_37, ptr dereferenceable_or_null(40) %_15)
  call ptr @"scalanative_throw"(ptr nonnull dereferenceable(40) %_37)
  unreachable
_33.0:
  %_207 = icmp ne ptr %_15, null
  br i1 %_207, label %_205.0, label %_206.0
_205.0:
  call ptr @"scalanative_throw"(ptr dereferenceable_or_null(8) %_15)
  unreachable
_14.0:
  %_16 = phi ptr [%_20, %_171.1]
  %_210 = icmp ne ptr %_16, null
  br i1 %_210, label %_209.0, label %_206.0
_209.0:
  %_47 = call i1 @"_SM28java.nio.charset.CoderResultD11isUnderflowzEO"(ptr dereferenceable_or_null(16) %_16)
  br i1 %_47, label %_42.0, label %_43.0
_42.0:
  %_212 = icmp ne ptr %_1, null
  br i1 %_212, label %_211.0, label %_206.0
_211.0:
  %_49 = call i32 @"_SM15java.nio.BufferD9remainingiEO"(ptr dereferenceable_or_null(48) %_1)
  br i1 %_3, label %_54.0, label %_55.0
_54.0:
  %_58 = icmp sgt i32 %_49, 0
  br label %_56.0
_55.0:
  br label %_56.0
_56.0:
  %_57 = phi i1 [false, %_55.0], [%_58, %_54.0]
  br i1 %_57, label %_50.0, label %_51.0
_50.0:
  %_59 = call dereferenceable_or_null(104) ptr @"_SM29java.nio.charset.CoderResult$G4load"()
  %_61 = call dereferenceable_or_null(16) ptr @"_SM29java.nio.charset.CoderResult$D18malformedForLengthiL28java.nio.charset.CoderResultEO"(ptr nonnull dereferenceable(104) %_59, i32 %_49)
  br label %_52.0
_51.0:
  br label %_52.0
_52.0:
  %_53 = phi ptr [%_16, %_51.0], [%_61, %_50.0]
  br label %_44.0
_43.0:
  br label %_44.0
_44.0:
  %_45 = phi ptr [%_16, %_43.0], [%_53, %_52.0]
  %_214 = icmp ne ptr %_45, null
  br i1 %_214, label %_213.0, label %_206.0
_213.0:
  %_71 = call i1 @"_SM28java.nio.charset.CoderResultD11isUnderflowzEO"(ptr dereferenceable_or_null(16) %_45)
  br i1 %_71, label %_66.0, label %_67.0
_66.0:
  br label %_68.0
_67.0:
  %_73 = call i1 @"_SM28java.nio.charset.CoderResultD10isOverflowzEO"(ptr dereferenceable_or_null(16) %_45)
  br label %_68.0
_68.0:
  %_69 = phi i1 [%_73, %_67.0], [true, %_66.0]
  br i1 %_69, label %_62.0, label %_63.0
_62.0:
  br label %_64.0
_63.0:
  %_79 = call i1 @"_SM28java.nio.charset.CoderResultD12isUnmappablezEO"(ptr dereferenceable_or_null(16) %_45)
  br i1 %_79, label %_74.0, label %_75.0
_74.0:
  %_81 = call dereferenceable_or_null(16) ptr @"_SM31java.nio.charset.CharsetEncoderD25unmappableCharacterActionL34java.nio.charset.CodingErrorActionEO"(ptr dereferenceable_or_null(56) %_4)
  br label %_76.0
_75.0:
  %_83 = call dereferenceable_or_null(16) ptr @"_SM31java.nio.charset.CharsetEncoderD20malformedInputActionL34java.nio.charset.CodingErrorActionEO"(ptr dereferenceable_or_null(56) %_4)
  br label %_76.0
_76.0:
  %_77 = phi ptr [%_83, %_75.0], [%_81, %_74.0]
  br label %_84.0
_84.0:
  %_95 = call dereferenceable_or_null(32) ptr @"_SM35java.nio.charset.CodingErrorAction$G4load"()
  %_97 = call dereferenceable_or_null(16) ptr @"_SM35java.nio.charset.CodingErrorAction$D7REPLACEL34java.nio.charset.CodingErrorActionEO"(ptr nonnull dereferenceable(32) %_95)
  %_98 = icmp eq ptr %_97, null
  br i1 %_98, label %_91.0, label %_92.0
_91.0:
  %_99 = icmp eq ptr %_77, null
  br label %_93.0
_92.0:
  %_216 = icmp ne ptr %_97, null
  br i1 %_216, label %_215.0, label %_206.0
_215.0:
  %_101 = call i1 @"_SM16java.lang.ObjectD6equalsL16java.lang.ObjectzEO"(ptr dereferenceable_or_null(16) %_97, ptr dereferenceable_or_null(16) %_77)
  br label %_93.0
_93.0:
  %_94 = phi i1 [%_101, %_215.0], [%_99, %_91.0]
  br i1 %_94, label %_87.0, label %_88.0
_87.0:
  %_218 = icmp ne ptr %_2, null
  br i1 %_218, label %_217.0, label %_206.0
_217.0:
  %_107 = call i32 @"_SM15java.nio.BufferD9remainingiEO"(ptr dereferenceable_or_null(56) %_2)
  %_109 = call dereferenceable_or_null(16) ptr @"_SM31java.nio.charset.CharsetEncoderD11replacementLAb_EO"(ptr dereferenceable_or_null(56) %_4)
  %_220 = icmp ne ptr %_109, null
  br i1 %_220, label %_219.0, label %_206.0
_219.0:
  %_221 = getelementptr { ptr, i32, i32 }, { ptr, i32, i32 }* %_109, i32 0, i32 1
  %_110 = load i32, ptr %_221
  %_111 = icmp slt i32 %_107, %_110
  br i1 %_111, label %_102.0, label %_103.0
_102.0:
  %_112 = call dereferenceable_or_null(104) ptr @"_SM29java.nio.charset.CoderResult$G4load"()
  %_114 = call dereferenceable_or_null(16) ptr @"_SM29java.nio.charset.CoderResult$D8OVERFLOWL28java.nio.charset.CoderResultEO"(ptr nonnull dereferenceable(104) %_112)
  br label %_104.0
_103.0:
  %_116 = call dereferenceable_or_null(16) ptr @"_SM31java.nio.charset.CharsetEncoderD11replacementLAb_EO"(ptr dereferenceable_or_null(56) %_4)
  %_118 = call dereferenceable_or_null(56) ptr @"_SM19java.nio.ByteBufferD3putLAb_L19java.nio.ByteBufferEO"(ptr dereferenceable_or_null(56) %_2, ptr dereferenceable_or_null(16) %_116)
  %_120 = call i32 @"_SM15java.nio.BufferD8positioniEO"(ptr dereferenceable_or_null(48) %_1)
  %_122 = call i32 @"_SM28java.nio.charset.CoderResultD6lengthiEO"(ptr dereferenceable_or_null(16) %_45)
  %_123 = add i32 %_120, %_122
  %_125 = call dereferenceable_or_null(48) ptr @"_SM19java.nio.CharBufferD8positioniL19java.nio.CharBufferEO"(ptr dereferenceable_or_null(48) %_1, i32 %_123)
  br label %_10.0
_104.0:
  %_105 = phi ptr [%_114, %_102.0]
  br label %_85.0
_88.0:
  br label %_89.0
_89.0:
  %_136 = call dereferenceable_or_null(32) ptr @"_SM35java.nio.charset.CodingErrorAction$G4load"()
  %_138 = call dereferenceable_or_null(16) ptr @"_SM35java.nio.charset.CodingErrorAction$D6REPORTL34java.nio.charset.CodingErrorActionEO"(ptr nonnull dereferenceable(32) %_136)
  %_139 = icmp eq ptr %_138, null
  br i1 %_139, label %_132.0, label %_133.0
_132.0:
  %_140 = icmp eq ptr %_77, null
  br label %_134.0
_133.0:
  %_223 = icmp ne ptr %_138, null
  br i1 %_223, label %_222.0, label %_206.0
_222.0:
  %_142 = call i1 @"_SM16java.lang.ObjectD6equalsL16java.lang.ObjectzEO"(ptr dereferenceable_or_null(16) %_138, ptr dereferenceable_or_null(16) %_77)
  br label %_134.0
_134.0:
  %_135 = phi i1 [%_142, %_222.0], [%_140, %_132.0]
  br i1 %_135, label %_128.0, label %_129.0
_128.0:
  br label %_85.0
_129.0:
  br label %_130.0
_130.0:
  %_152 = call dereferenceable_or_null(32) ptr @"_SM35java.nio.charset.CodingErrorAction$G4load"()
  %_154 = call dereferenceable_or_null(16) ptr @"_SM35java.nio.charset.CodingErrorAction$D6IGNOREL34java.nio.charset.CodingErrorActionEO"(ptr nonnull dereferenceable(32) %_152)
  %_155 = icmp eq ptr %_154, null
  br i1 %_155, label %_148.0, label %_149.0
_148.0:
  %_156 = icmp eq ptr %_77, null
  br label %_150.0
_149.0:
  %_225 = icmp ne ptr %_154, null
  br i1 %_225, label %_224.0, label %_206.0
_224.0:
  %_158 = call i1 @"_SM16java.lang.ObjectD6equalsL16java.lang.ObjectzEO"(ptr dereferenceable_or_null(16) %_154, ptr dereferenceable_or_null(16) %_77)
  br label %_150.0
_150.0:
  %_151 = phi i1 [%_158, %_224.0], [%_156, %_148.0]
  br i1 %_151, label %_144.0, label %_145.0
_144.0:
  %_160 = call i32 @"_SM15java.nio.BufferD8positioniEO"(ptr dereferenceable_or_null(48) %_1)
  %_162 = call i32 @"_SM28java.nio.charset.CoderResultD6lengthiEO"(ptr dereferenceable_or_null(16) %_45)
  %_163 = add i32 %_160, %_162
  %_165 = call dereferenceable_or_null(48) ptr @"_SM19java.nio.CharBufferD8positioniL19java.nio.CharBufferEO"(ptr dereferenceable_or_null(48) %_1, i32 %_163)
  br label %_10.0
_145.0:
  br label %_146.0
_146.0:
  %_168 = call dereferenceable_or_null(64) ptr @"scalanative_GC_alloc_small"(ptr @"_SM16scala.MatchErrorG4type", i64 64)
  call void @"_SM16scala.MatchErrorRL16java.lang.ObjectE"(ptr nonnull dereferenceable(64) %_168, ptr dereferenceable_or_null(16) %_77)
  call ptr @"scalanative_throw"(ptr nonnull dereferenceable(64) %_168)
  unreachable
_85.0:
  %_86 = phi ptr [%_45, %_128.0], [%_105, %_104.0]
  br label %_64.0
_64.0:
  %_65 = phi ptr [%_86, %_85.0], [%_45, %_62.0]
  ret ptr %_65
_10.0:
  br label %_6.0
_8.0:
  ret ptr zeroinitializer
_172.0:
  invoke ptr @"_SM34scala.scalanative.runtime.package$D16throwNullPointernEO"(ptr null) to label %_172.1 unwind label %_228.landingpad
_172.1:
  unreachable
_206.0:
  call ptr @"_SM34scala.scalanative.runtime.package$D16throwNullPointernEO"(ptr null)
  unreachable
_186.0:
  %_231 = phi ptr [%_15, %_198.0], [%_15, %_184.0]
  %_232 = phi ptr [@"_SM33java.nio.BufferUnderflowExceptionG4type", %_198.0], [@"_SM32java.nio.BufferOverflowExceptionG4type", %_184.0]
  %_233 = load ptr, ptr %_231
  call ptr @"_SM34scala.scalanative.runtime.package$D14throwClassCastR_R_nEO"(ptr null, ptr %_233, ptr %_232)
  unreachable
_170.0:
  %_17 = phi ptr [%_173, %_173.landingpad.succ], [%_228, %_228.landingpad.succ], [%_175, %_175.landingpad.succ]
  br label %_12.0
_176.0:
  %_19 = phi ptr [%_177, %_177.landingpad.succ]
  br label %_12.0
_173.landingpad:
  %_272 = landingpad { ptr, i32 } catch ptr @_ZTIN11scalanative16ExceptionWrapperE
  %_273 = extractvalue { ptr, i32 } %_272, 0
  %_274 = extractvalue { ptr, i32 } %_272, 1
  %_275 = call i32 @llvm.eh.typeid.for(ptr @_ZTIN11scalanative16ExceptionWrapperE)
  %_276 = icmp eq i32 %_274, %_275
  br i1 %_276, label %_173.landingpad.succ, label %_173.landingpad.fail
_173.landingpad.succ:
  %_277 = call ptr @__cxa_begin_catch(ptr %_273)
  %_279 = getelementptr ptr, ptr %_277, i32 1
  %_173 = load ptr, ptr %_279
  call void @__cxa_end_catch()br label %_170.0
_173.landingpad.fail:
  resume { ptr, i32 } %_272
_175.landingpad:
  %_280 = landingpad { ptr, i32 } catch ptr @_ZTIN11scalanative16ExceptionWrapperE
  %_281 = extractvalue { ptr, i32 } %_280, 0
  %_282 = extractvalue { ptr, i32 } %_280, 1
  %_283 = call i32 @llvm.eh.typeid.for(ptr @_ZTIN11scalanative16ExceptionWrapperE)
  %_284 = icmp eq i32 %_282, %_283
  br i1 %_284, label %_175.landingpad.succ, label %_175.landingpad.fail
_175.landingpad.succ:
  %_285 = call ptr @__cxa_begin_catch(ptr %_281)
  %_287 = getelementptr ptr, ptr %_285, i32 1
  %_175 = load ptr, ptr %_287
  call void @__cxa_end_catch()br label %_170.0
_175.landingpad.fail:
  resume { ptr, i32 } %_280
_177.landingpad:
  %_288 = landingpad { ptr, i32 } catch ptr @_ZTIN11scalanative16ExceptionWrapperE
  %_289 = extractvalue { ptr, i32 } %_288, 0
  %_290 = extractvalue { ptr, i32 } %_288, 1
  %_291 = call i32 @llvm.eh.typeid.for(ptr @_ZTIN11scalanative16ExceptionWrapperE)
  %_292 = icmp eq i32 %_290, %_291
  br i1 %_292, label %_177.landingpad.succ, label %_177.landingpad.fail
_177.landingpad.succ:
  %_293 = call ptr @__cxa_begin_catch(ptr %_289)
  %_295 = getelementptr ptr, ptr %_293, i32 1
  %_177 = load ptr, ptr %_295
  call void @__cxa_end_catch()br label %_176.0
_177.landingpad.fail:
  resume { ptr, i32 } %_288
_228.landingpad:
  %_296 = landingpad { ptr, i32 } catch ptr @_ZTIN11scalanative16ExceptionWrapperE
  %_297 = extractvalue { ptr, i32 } %_296, 0
  %_298 = extractvalue { ptr, i32 } %_296, 1
  %_299 = call i32 @llvm.eh.typeid.for(ptr @_ZTIN11scalanative16ExceptionWrapperE)
  %_300 = icmp eq i32 %_298, %_299
  br i1 %_300, label %_228.landingpad.succ, label %_228.landingpad.fail
_228.landingpad.succ:
  %_301 = call ptr @__cxa_begin_catch(ptr %_297)
  %_303 = getelementptr ptr, ptr %_301, i32 1
  %_228 = load ptr, ptr %_303
  call void @__cxa_end_catch()br label %_170.0
_228.landingpad.fail:
  resume { ptr, i32 } %_296
}

define void @"_SM38java.nio.charset.CoderMalfunctionErrorRL19java.lang.ExceptionE"(ptr %_1, ptr %_2) personality ptr @__gxx_personality_v0 {
_3000000.0:
  %_13000003 = icmp ne ptr %_1, null
  br i1 %_13000003, label %_13000001.0, label %_13000002.0
_13000001.0:
  %_4000002 = icmp eq ptr %_2, null
  br i1 %_4000002, label %_5000000.0, label %_6000000.0
_5000000.0:
  br label %_7000000.0
_6000000.0:
  %_6000001 = call dereferenceable_or_null(32) ptr @"_SM19java.lang.ThrowableD8toStringL16java.lang.StringEO"(ptr dereferenceable_or_null(40) %_2)
  br label %_7000000.0
_7000000.0:
  %_7000001 = phi ptr [%_6000001, %_6000000.0], [null, %_5000000.0]
  %_13000005 = getelementptr { { ptr }, ptr, ptr, ptr, i1, i1 }, { { ptr }, ptr, ptr, ptr, i1, i1 }* %_1, i32 0, i32 3
  store ptr %_7000001, ptr%_13000005, align 8
  %_13000007 = getelementptr { { ptr }, ptr, ptr, ptr, i1, i1 }, { { ptr }, ptr, ptr, ptr, i1, i1 }* %_1, i32 0, i32 1
  store ptr %_2, ptr%_13000007, align 8
  %_13000009 = getelementptr { { ptr }, ptr, ptr, ptr, i1, i1 }, { { ptr }, ptr, ptr, ptr, i1, i1 }* %_1, i32 0, i32 4
  %_13000010 = zext i1 true to i8
  store i8 %_13000010, ptr%_13000009, align 1
  %_13000012 = getelementptr { { ptr }, ptr, ptr, ptr, i1, i1 }, { { ptr }, ptr, ptr, ptr, i1, i1 }* %_1, i32 0, i32 5
  %_13000013 = zext i1 true to i8
  store i8 %_13000013, ptr%_13000012, align 1
  br label %_12000000.0
_12000000.0:
  %_12000001 = call dereferenceable_or_null(40) ptr @"_SM19java.lang.ThrowableD16fillInStackTraceL19java.lang.ThrowableEO"(ptr dereferenceable_or_null(40) %_1)
  br label %_13000000.0
_13000000.0:
  ret void
_13000002.0:
  call ptr @"_SM34scala.scalanative.runtime.package$D16throwNullPointernEO"(ptr null)
  unreachable
}

define i1 @"_SM28java.nio.charset.CoderResultD10isOverflowzEO"(ptr %_1) inlinehint personality ptr @__gxx_personality_v0 {
_2000000.0:
  %_2000006 = icmp ne ptr %_1, null
  br i1 %_2000006, label %_2000004.0, label %_2000005.0
_2000004.0:
  %_2000007 = getelementptr { { ptr }, i32, i32 }, { { ptr }, i32, i32 }* %_1, i32 0, i32 2
  %_2000001 = load i32, ptr %_2000007
  %_2000003 = icmp eq i32 %_2000001, 1
  ret i1 %_2000003
_2000005.0:
  call ptr @"_SM34scala.scalanative.runtime.package$D16throwNullPointernEO"(ptr null)
  unreachable
}

define i1 @"_SM28java.nio.charset.CoderResultD11isUnderflowzEO"(ptr %_1) inlinehint personality ptr @__gxx_personality_v0 {
_2000000.0:
  %_2000006 = icmp ne ptr %_1, null
  br i1 %_2000006, label %_2000004.0, label %_2000005.0
_2000004.0:
  %_2000007 = getelementptr { { ptr }, i32, i32 }, { { ptr }, i32, i32 }* %_1, i32 0, i32 2
  %_2000001 = load i32, ptr %_2000007
  %_2000003 = icmp eq i32 %_2000001, 0
  ret i1 %_2000003
_2000005.0:
  call ptr @"_SM34scala.scalanative.runtime.package$D16throwNullPointernEO"(ptr null)
  unreachable
}

define i1 @"_SM28java.nio.charset.CoderResultD12isUnmappablezEO"(ptr %_1) inlinehint personality ptr @__gxx_personality_v0 {
_2000000.0:
  %_2000006 = icmp ne ptr %_1, null
  br i1 %_2000006, label %_2000004.0, label %_2000005.0
_2000004.0:
  %_2000007 = getelementptr { { ptr }, i32, i32 }, { { ptr }, i32, i32 }* %_1, i32 0, i32 2
  %_2000001 = load i32, ptr %_2000007
  %_2000003 = icmp eq i32 %_2000001, 3
  ret i1 %_2000003
_2000005.0:
  call ptr @"_SM34scala.scalanative.runtime.package$D16throwNullPointernEO"(ptr null)
  unreachable
}

define ptr @"_SM28java.nio.charset.CoderResultD14throwExceptionuEO"(ptr %_1) personality ptr @__gxx_personality_v0 {
_2000000.0:
  %_60000003 = icmp ne ptr %_1, null
  br i1 %_60000003, label %_60000001.0, label %_60000002.0
_60000001.0:
  br label %_3000000.0
_3000000.0:
  %_60000004 = getelementptr { { ptr }, i32, i32 }, { { ptr }, i32, i32 }* %_1, i32 0, i32 2
  %_3000001 = load i32, ptr %_60000004
  switch i32 %_3000001, label %_4000000.0 [
    i32 1, label %_5000000.0
    i32 0, label %_6000000.0
    i32 2, label %_7000000.0
    i32 3, label %_8000000.0
  ]
_4000000.0:
  br label %_17000000.0
_17000000.0:
  %_17000001 = call dereferenceable_or_null(64) ptr @"scalanative_GC_alloc_small"(ptr @"_SM16scala.MatchErrorG4type", i64 64)
  %_60000006 = getelementptr { { ptr }, ptr, ptr, ptr, i1, i1 }, { { ptr }, ptr, ptr, ptr, i1, i1 }* %_17000001, i32 0, i32 5
  %_60000007 = zext i1 true to i8
  store i8 %_60000007, ptr%_60000006, align 1
  %_60000009 = getelementptr { { ptr }, ptr, ptr, ptr, i1, i1 }, { { ptr }, ptr, ptr, ptr, i1, i1 }* %_17000001, i32 0, i32 4
  %_60000010 = zext i1 true to i8
  store i8 %_60000010, ptr%_60000009, align 1
  %_17000004 = call dereferenceable_or_null(16) ptr @"_SM27scala.runtime.BoxesRunTime$D12boxToIntegeriL17java.lang.IntegerEO"(ptr null, i32 %_3000001)
  %_60000012 = getelementptr { { ptr }, ptr, ptr, ptr, i1, i1, ptr, ptr, i1 }, { { ptr }, ptr, ptr, ptr, i1, i1, ptr, ptr, i1 }* %_17000001, i32 0, i32 6
  store ptr %_17000004, ptr%_60000012, align 8
  %_17000006 = call dereferenceable_or_null(40) ptr @"_SM19java.lang.ThrowableD16fillInStackTraceL19java.lang.ThrowableEO"(ptr nonnull dereferenceable(64) %_17000001)
  br label %_18000000.0
_18000000.0:
  call ptr @"scalanative_throw"(ptr nonnull dereferenceable(64) %_17000001)
  unreachable
_5000000.0:
  br label %_28000000.0
_28000000.0:
  %_28000001 = call dereferenceable_or_null(40) ptr @"scalanative_GC_alloc_small"(ptr @"_SM32java.nio.BufferOverflowExceptionG4type", i64 40)
  %_60000015 = getelementptr { { ptr }, ptr, ptr, ptr, i1, i1 }, { { ptr }, ptr, ptr, ptr, i1, i1 }* %_28000001, i32 0, i32 5
  %_60000016 = zext i1 true to i8
  store i8 %_60000016, ptr%_60000015, align 1
  %_60000018 = getelementptr { { ptr }, ptr, ptr, ptr, i1, i1 }, { { ptr }, ptr, ptr, ptr, i1, i1 }* %_28000001, i32 0, i32 4
  %_60000019 = zext i1 true to i8
  store i8 %_60000019, ptr%_60000018, align 1
  %_28000004 = call dereferenceable_or_null(40) ptr @"_SM19java.lang.ThrowableD16fillInStackTraceL19java.lang.ThrowableEO"(ptr nonnull dereferenceable(40) %_28000001)
  br label %_29000000.0
_29000000.0:
  call ptr @"scalanative_throw"(ptr nonnull dereferenceable(40) %_28000001)
  unreachable
_6000000.0:
  br label %_39000000.0
_39000000.0:
  %_39000001 = call dereferenceable_or_null(40) ptr @"scalanative_GC_alloc_small"(ptr @"_SM33java.nio.BufferUnderflowExceptionG4type", i64 40)
  %_60000022 = getelementptr { { ptr }, ptr, ptr, ptr, i1, i1 }, { { ptr }, ptr, ptr, ptr, i1, i1 }* %_39000001, i32 0, i32 5
  %_60000023 = zext i1 true to i8
  store i8 %_60000023, ptr%_60000022, align 1
  %_60000025 = getelementptr { { ptr }, ptr, ptr, ptr, i1, i1 }, { { ptr }, ptr, ptr, ptr, i1, i1 }* %_39000001, i32 0, i32 4
  %_60000026 = zext i1 true to i8
  store i8 %_60000026, ptr%_60000025, align 1
  %_39000004 = call dereferenceable_or_null(40) ptr @"_SM19java.lang.ThrowableD16fillInStackTraceL19java.lang.ThrowableEO"(ptr nonnull dereferenceable(40) %_39000001)
  br label %_40000000.0
_40000000.0:
  call ptr @"scalanative_throw"(ptr nonnull dereferenceable(40) %_39000001)
  unreachable
_7000000.0:
  %_60000028 = getelementptr { { ptr }, i32, i32 }, { { ptr }, i32, i32 }* %_1, i32 0, i32 1
  %_7000002 = load i32, ptr %_60000028
  br label %_49000000.0
_49000000.0:
  %_49000001 = call dereferenceable_or_null(40) ptr @"scalanative_GC_alloc_small"(ptr @"_SM40java.nio.charset.MalformedInputExceptionG4type", i64 40)
  %_60000030 = getelementptr { { ptr }, ptr, ptr, ptr, i1, i1 }, { { ptr }, ptr, ptr, ptr, i1, i1 }* %_49000001, i32 0, i32 5
  %_60000031 = zext i1 true to i8
  store i8 %_60000031, ptr%_60000030, align 1
  %_60000033 = getelementptr { { ptr }, ptr, ptr, ptr, i1, i1 }, { { ptr }, ptr, ptr, ptr, i1, i1 }* %_49000001, i32 0, i32 4
  %_60000034 = zext i1 true to i8
  store i8 %_60000034, ptr%_60000033, align 1
  %_60000036 = getelementptr { { ptr }, ptr, ptr, ptr, i1, i1, i32 }, { { ptr }, ptr, ptr, ptr, i1, i1, i32 }* %_49000001, i32 0, i32 6
  store i32 %_7000002, ptr%_60000036, align 4
  %_49000005 = call dereferenceable_or_null(40) ptr @"_SM19java.lang.ThrowableD16fillInStackTraceL19java.lang.ThrowableEO"(ptr nonnull dereferenceable(40) %_49000001)
  br label %_50000000.0
_50000000.0:
  call ptr @"scalanative_throw"(ptr nonnull dereferenceable(40) %_49000001)
  unreachable
_8000000.0:
  %_60000038 = getelementptr { { ptr }, i32, i32 }, { { ptr }, i32, i32 }* %_1, i32 0, i32 1
  %_8000002 = load i32, ptr %_60000038
  br label %_59000000.0
_59000000.0:
  %_59000001 = call dereferenceable_or_null(40) ptr @"scalanative_GC_alloc_small"(ptr @"_SM45java.nio.charset.UnmappableCharacterExceptionG4type", i64 40)
  %_60000040 = getelementptr { { ptr }, ptr, ptr, ptr, i1, i1 }, { { ptr }, ptr, ptr, ptr, i1, i1 }* %_59000001, i32 0, i32 5
  %_60000041 = zext i1 true to i8
  store i8 %_60000041, ptr%_60000040, align 1
  %_60000043 = getelementptr { { ptr }, ptr, ptr, ptr, i1, i1 }, { { ptr }, ptr, ptr, ptr, i1, i1 }* %_59000001, i32 0, i32 4
  %_60000044 = zext i1 true to i8
  store i8 %_60000044, ptr%_60000043, align 1
  %_60000046 = getelementptr { { ptr }, ptr, ptr, ptr, i1, i1, i32 }, { { ptr }, ptr, ptr, ptr, i1, i1, i32 }* %_59000001, i32 0, i32 6
  store i32 %_8000002, ptr%_60000046, align 4
  %_59000005 = call dereferenceable_or_null(40) ptr @"_SM19java.lang.ThrowableD16fillInStackTraceL19java.lang.ThrowableEO"(ptr nonnull dereferenceable(40) %_59000001)
  br label %_60000000.0
_60000000.0:
  call ptr @"scalanative_throw"(ptr nonnull dereferenceable(40) %_59000001)
  unreachable
_60000002.0:
  call ptr @"_SM34scala.scalanative.runtime.package$D16throwNullPointernEO"(ptr null)
  unreachable
}

define i32 @"_SM28java.nio.charset.CoderResultD6lengthiEO"(ptr %_1) inlinehint personality ptr @__gxx_personality_v0 {
_2000000.0:
  %_15000003 = icmp ne ptr %_1, null
  br i1 %_15000003, label %_15000001.0, label %_15000002.0
_15000001.0:
  %_15000004 = getelementptr { { ptr }, i32, i32 }, { { ptr }, i32, i32 }* %_1, i32 0, i32 1
  %_2000001 = load i32, ptr %_15000004
  %_2000003 = icmp slt i32 %_2000001, 0
  br i1 %_2000003, label %_3000000.0, label %_4000000.0
_4000000.0:
  br label %_15000000.0
_15000000.0:
  ret i32 %_2000001
_3000000.0:
  br label %_13000000.0
_13000000.0:
  %_13000001 = call dereferenceable_or_null(40) ptr @"scalanative_GC_alloc_small"(ptr @"_SM39java.lang.UnsupportedOperationExceptionG4type", i64 40)
  %_15000006 = getelementptr { { ptr }, ptr, ptr, ptr, i1, i1 }, { { ptr }, ptr, ptr, ptr, i1, i1 }* %_13000001, i32 0, i32 5
  %_15000007 = zext i1 true to i8
  store i8 %_15000007, ptr%_15000006, align 1
  %_15000009 = getelementptr { { ptr }, ptr, ptr, ptr, i1, i1 }, { { ptr }, ptr, ptr, ptr, i1, i1 }* %_13000001, i32 0, i32 4
  %_15000010 = zext i1 true to i8
  store i8 %_15000010, ptr%_15000009, align 1
  %_13000004 = call dereferenceable_or_null(40) ptr @"_SM19java.lang.ThrowableD16fillInStackTraceL19java.lang.ThrowableEO"(ptr nonnull dereferenceable(40) %_13000001)
  br label %_14000000.0
_14000000.0:
  call ptr @"scalanative_throw"(ptr nonnull dereferenceable(40) %_13000001)
  unreachable
_15000002.0:
  call ptr @"_SM34scala.scalanative.runtime.package$D16throwNullPointernEO"(ptr null)
  unreachable
}

define dereferenceable_or_null(16) ptr @"_SM29java.nio.charset.CoderResult$D18malformedForLengthiL28java.nio.charset.CoderResultEO"(ptr %_1, i32 %_2) inlinehint personality ptr @__gxx_personality_v0 {
_3000000.0:
  %_10000004 = icmp ne ptr %_1, null
  br i1 %_10000004, label %_10000002.0, label %_10000003.0
_10000002.0:
  br label %_4000000.0
_4000000.0:
  switch i32 %_2, label %_5000000.0 [
    i32 1, label %_6000000.0
    i32 2, label %_7000000.0
    i32 3, label %_8000000.0
    i32 4, label %_9000000.0
  ]
_5000000.0:
  %_5000001 = call dereferenceable_or_null(16) ptr @"_SM29java.nio.charset.CoderResult$D22malformedForLengthImpliL28java.nio.charset.CoderResultEPT29java.nio.charset.CoderResult$"(ptr dereferenceable_or_null(104) %_1, i32 %_2)
  br label %_10000000.0
_6000000.0:
  %_6000001 = call dereferenceable_or_null(104) ptr @"_SM29java.nio.charset.CoderResult$G4load"()
  %_10000005 = getelementptr { { ptr }, ptr, ptr, ptr, ptr, ptr, ptr, ptr, ptr, ptr, ptr, ptr, ptr }, { { ptr }, ptr, ptr, ptr, ptr, ptr, ptr, ptr, ptr, ptr, ptr, ptr, ptr }* %_6000001, i32 0, i32 5
  %_6000002 = load ptr, ptr %_10000005, !dereferenceable_or_null !{i64 16}
  br label %_10000000.0
_7000000.0:
  %_7000001 = call dereferenceable_or_null(104) ptr @"_SM29java.nio.charset.CoderResult$G4load"()
  %_10000006 = getelementptr { { ptr }, ptr, ptr, ptr, ptr, ptr, ptr, ptr, ptr, ptr, ptr, ptr, ptr }, { { ptr }, ptr, ptr, ptr, ptr, ptr, ptr, ptr, ptr, ptr, ptr, ptr, ptr }* %_7000001, i32 0, i32 4
  %_7000002 = load ptr, ptr %_10000006, !dereferenceable_or_null !{i64 16}
  br label %_10000000.0
_8000000.0:
  %_8000001 = call dereferenceable_or_null(104) ptr @"_SM29java.nio.charset.CoderResult$G4load"()
  %_10000007 = getelementptr { { ptr }, ptr, ptr, ptr, ptr, ptr, ptr, ptr, ptr, ptr, ptr, ptr, ptr }, { { ptr }, ptr, ptr, ptr, ptr, ptr, ptr, ptr, ptr, ptr, ptr, ptr, ptr }* %_8000001, i32 0, i32 3
  %_8000002 = load ptr, ptr %_10000007, !dereferenceable_or_null !{i64 16}
  br label %_10000000.0
_9000000.0:
  %_9000001 = call dereferenceable_or_null(104) ptr @"_SM29java.nio.charset.CoderResult$G4load"()
  %_10000008 = getelementptr { { ptr }, ptr, ptr, ptr, ptr, ptr, ptr, ptr, ptr, ptr, ptr, ptr, ptr }, { { ptr }, ptr, ptr, ptr, ptr, ptr, ptr, ptr, ptr, ptr, ptr, ptr, ptr }* %_9000001, i32 0, i32 2
  %_9000002 = load ptr, ptr %_10000008, !dereferenceable_or_null !{i64 16}
  br label %_10000000.0
_10000000.0:
  %_10000001 = phi ptr [%_9000002, %_9000000.0], [%_8000002, %_8000000.0], [%_7000002, %_7000000.0], [%_6000002, %_6000000.0], [%_5000001, %_5000000.0]
  ret ptr %_10000001
_10000003.0:
  call ptr @"_SM34scala.scalanative.runtime.package$D16throwNullPointernEO"(ptr null)
  unreachable
}

define dereferenceable_or_null(16) ptr @"_SM29java.nio.charset.CoderResult$D22malformedForLengthImpliL28java.nio.charset.CoderResultEPT29java.nio.charset.CoderResult$"(ptr %_1, i32 %_2) personality ptr @__gxx_personality_v0 {
_3000000.0:
  %_3000013 = icmp ne ptr %_1, null
  br i1 %_3000013, label %_3000011.0, label %_3000012.0
_3000011.0:
  %_3000001 = call dereferenceable_or_null(104) ptr @"_SM29java.nio.charset.CoderResult$G4load"()
  %_3000014 = getelementptr { { ptr }, ptr, ptr, ptr, ptr, ptr, ptr, ptr, ptr, ptr, ptr, ptr, ptr }, { { ptr }, ptr, ptr, ptr, ptr, ptr, ptr, ptr, ptr, ptr, ptr, ptr, ptr }* %_3000001, i32 0, i32 6
  %_3000002 = load ptr, ptr %_3000014, !dereferenceable_or_null !{i64 8}
  %_3000005 = call dereferenceable_or_null(16) ptr @"_SM27scala.runtime.BoxesRunTime$D12boxToIntegeriL17java.lang.IntegerEO"(ptr null, i32 %_2)
  %_3000006 = call dereferenceable_or_null(24) ptr @"scalanative_GC_alloc_small"(ptr @"_SM39java.nio.charset.CoderResult$$$Lambda$1G4type", i64 24)
  %_3000016 = getelementptr { { ptr }, ptr, i32 }, { { ptr }, ptr, i32 }* %_3000006, i32 0, i32 2
  store i32 %_2, ptr%_3000016, align 4
  %_3000018 = getelementptr { { ptr }, ptr, i32 }, { { ptr }, ptr, i32 }* %_3000006, i32 0, i32 1
  store ptr %_1, ptr%_3000018, align 8
  %_3000009 = call dereferenceable_or_null(8) ptr @"_SM32scala.collection.mutable.HashMapD15getOrElseUpdateL16java.lang.ObjectL15scala.Function0L16java.lang.ObjectEO"(ptr dereferenceable_or_null(8) %_3000002, ptr nonnull dereferenceable(16) %_3000005, ptr nonnull dereferenceable(24) %_3000006)
  %_3000022 = icmp eq ptr %_3000009, null
  br i1 %_3000022, label %_3000020.0, label %_3000019.0
_3000019.0:
  %_3000023 = load ptr, ptr %_3000009
  %_3000024 = icmp eq ptr %_3000023, @"_SM28java.nio.charset.CoderResultG4type"
  br i1 %_3000024, label %_3000020.0, label %_3000021.0
_3000020.0:
  ret ptr %_3000009
_3000012.0:
  call ptr @"_SM34scala.scalanative.runtime.package$D16throwNullPointernEO"(ptr null)
  unreachable
_3000021.0:
  %_3000026 = phi ptr [%_3000009, %_3000019.0]
  %_3000027 = phi ptr [@"_SM28java.nio.charset.CoderResultG4type", %_3000019.0]
  %_3000028 = load ptr, ptr %_3000026
  call ptr @"_SM34scala.scalanative.runtime.package$D14throwClassCastR_R_nEO"(ptr null, ptr %_3000028, ptr %_3000027)
  unreachable
}

define nonnull dereferenceable(16) ptr @"_SM29java.nio.charset.CoderResult$D33malformedForLengthImpl$$anonfun$1iL28java.nio.charset.CoderResultEPT29java.nio.charset.CoderResult$"(ptr %_1, i32 %_2) personality ptr @__gxx_personality_v0 {
_3000000.0:
  %_3000002 = call dereferenceable_or_null(16) ptr @"scalanative_GC_alloc_small"(ptr @"_SM28java.nio.charset.CoderResultG4type", i64 16)
  %_3000006 = getelementptr { { ptr }, i32, i32 }, { { ptr }, i32, i32 }* %_3000002, i32 0, i32 1
  store i32 %_2, ptr%_3000006, align 4
  %_3000008 = getelementptr { { ptr }, i32, i32 }, { { ptr }, i32, i32 }* %_3000002, i32 0, i32 2
  store i32 2, ptr%_3000008, align 4
  ret ptr %_3000002
}

define dereferenceable_or_null(16) ptr @"_SM29java.nio.charset.CoderResult$D8OVERFLOWL28java.nio.charset.CoderResultEO"(ptr %_1) alwaysinline personality ptr @__gxx_personality_v0 {
_2000000.0:
  %_2000001 = call dereferenceable_or_null(104) ptr @"_SM29java.nio.charset.CoderResult$G4load"()
  %_2000003 = getelementptr { { ptr }, ptr, ptr, ptr, ptr, ptr, ptr, ptr, ptr, ptr, ptr, ptr, ptr }, { { ptr }, ptr, ptr, ptr, ptr, ptr, ptr, ptr, ptr, ptr, ptr, ptr, ptr }* %_2000001, i32 0, i32 1
  %_2000002 = load ptr, ptr %_2000003, !dereferenceable_or_null !{i64 16}
  ret ptr %_2000002
}

define dereferenceable_or_null(104) ptr @"_SM29java.nio.charset.CoderResult$G4load"() noinline personality ptr @__gxx_personality_v0 {
_1.0:
  %_4 = getelementptr ptr, ptr @"__modules", i32 123
  %_5 = load ptr, ptr %_4, !dereferenceable_or_null !{i64 104}
  %_6 = icmp ne ptr %_5, null
  br i1 %_6, label %_2.0, label %_3.0
_2.0:
  ret ptr %_5
_3.0:
  %_7 = call dereferenceable_or_null(104) ptr @"scalanative_GC_alloc_small"(ptr @"_SM29java.nio.charset.CoderResult$G4type", i64 104)
  store ptr %_7, ptr%_4, align 8
  call void @"_SM29java.nio.charset.CoderResult$RE"(ptr dereferenceable_or_null(104) %_7)
  ret ptr %_7
}

define void @"_SM29java.nio.charset.CoderResult$RE"(ptr %_1) personality ptr @__gxx_personality_v0 {
_2000000.0:
  %_2000001 = call dereferenceable_or_null(104) ptr @"_SM29java.nio.charset.CoderResult$G4load"()
  %_2000003 = call dereferenceable_or_null(16) ptr @"scalanative_GC_alloc_small"(ptr @"_SM28java.nio.charset.CoderResultG4type", i64 16)
  %_2000059 = getelementptr { { ptr }, i32, i32 }, { { ptr }, i32, i32 }* %_2000003, i32 0, i32 1
  store i32 -1, ptr%_2000059, align 4
  %_2000061 = getelementptr { { ptr }, i32, i32 }, { { ptr }, i32, i32 }* %_2000003, i32 0, i32 2
  store i32 1, ptr%_2000061, align 4
  %_2000063 = getelementptr { { ptr }, ptr, ptr, ptr, ptr, ptr, ptr, ptr, ptr, ptr, ptr, ptr, ptr }, { { ptr }, ptr, ptr, ptr, ptr, ptr, ptr, ptr, ptr, ptr, ptr, ptr, ptr }* %_2000001, i32 0, i32 1
  store ptr %_2000003, ptr%_2000063, align 8
  %_2000008 = call dereferenceable_or_null(16) ptr @"scalanative_GC_alloc_small"(ptr @"_SM28java.nio.charset.CoderResultG4type", i64 16)
  %_2000065 = getelementptr { { ptr }, i32, i32 }, { { ptr }, i32, i32 }* %_2000008, i32 0, i32 1
  store i32 -1, ptr%_2000065, align 4
  %_2000067 = getelementptr { { ptr }, ptr, ptr, ptr, ptr, ptr, ptr, ptr, ptr, ptr, ptr, ptr, ptr }, { { ptr }, ptr, ptr, ptr, ptr, ptr, ptr, ptr, ptr, ptr, ptr, ptr, ptr }* %_2000001, i32 0, i32 12
  store ptr %_2000008, ptr%_2000067, align 8
  %_2000012 = call dereferenceable_or_null(16) ptr @"scalanative_GC_alloc_small"(ptr @"_SM28java.nio.charset.CoderResultG4type", i64 16)
  %_2000069 = getelementptr { { ptr }, i32, i32 }, { { ptr }, i32, i32 }* %_2000012, i32 0, i32 1
  store i32 1, ptr%_2000069, align 4
  %_2000071 = getelementptr { { ptr }, i32, i32 }, { { ptr }, i32, i32 }* %_2000012, i32 0, i32 2
  store i32 2, ptr%_2000071, align 4
  %_2000073 = getelementptr { { ptr }, ptr, ptr, ptr, ptr, ptr, ptr, ptr, ptr, ptr, ptr, ptr, ptr }, { { ptr }, ptr, ptr, ptr, ptr, ptr, ptr, ptr, ptr, ptr, ptr, ptr, ptr }* %_2000001, i32 0, i32 5
  store ptr %_2000012, ptr%_2000073, align 8
  %_2000017 = call dereferenceable_or_null(16) ptr @"scalanative_GC_alloc_small"(ptr @"_SM28java.nio.charset.CoderResultG4type", i64 16)
  %_2000075 = getelementptr { { ptr }, i32, i32 }, { { ptr }, i32, i32 }* %_2000017, i32 0, i32 1
  store i32 2, ptr%_2000075, align 4
  %_2000077 = getelementptr { { ptr }, i32, i32 }, { { ptr }, i32, i32 }* %_2000017, i32 0, i32 2
  store i32 2, ptr%_2000077, align 4
  %_2000079 = getelementptr { { ptr }, ptr, ptr, ptr, ptr, ptr, ptr, ptr, ptr, ptr, ptr, ptr, ptr }, { { ptr }, ptr, ptr, ptr, ptr, ptr, ptr, ptr, ptr, ptr, ptr, ptr, ptr }* %_2000001, i32 0, i32 4
  store ptr %_2000017, ptr%_2000079, align 8
  %_2000022 = call dereferenceable_or_null(16) ptr @"scalanative_GC_alloc_small"(ptr @"_SM28java.nio.charset.CoderResultG4type", i64 16)
  %_2000081 = getelementptr { { ptr }, i32, i32 }, { { ptr }, i32, i32 }* %_2000022, i32 0, i32 1
  store i32 3, ptr%_2000081, align 4
  %_2000083 = getelementptr { { ptr }, i32, i32 }, { { ptr }, i32, i32 }* %_2000022, i32 0, i32 2
  store i32 2, ptr%_2000083, align 4
  %_2000085 = getelementptr { { ptr }, ptr, ptr, ptr, ptr, ptr, ptr, ptr, ptr, ptr, ptr, ptr, ptr }, { { ptr }, ptr, ptr, ptr, ptr, ptr, ptr, ptr, ptr, ptr, ptr, ptr, ptr }* %_2000001, i32 0, i32 3
  store ptr %_2000022, ptr%_2000085, align 8
  %_2000027 = call dereferenceable_or_null(16) ptr @"scalanative_GC_alloc_small"(ptr @"_SM28java.nio.charset.CoderResultG4type", i64 16)
  %_2000087 = getelementptr { { ptr }, i32, i32 }, { { ptr }, i32, i32 }* %_2000027, i32 0, i32 1
  store i32 4, ptr%_2000087, align 4
  %_2000089 = getelementptr { { ptr }, i32, i32 }, { { ptr }, i32, i32 }* %_2000027, i32 0, i32 2
  store i32 2, ptr%_2000089, align 4
  %_2000091 = getelementptr { { ptr }, ptr, ptr, ptr, ptr, ptr, ptr, ptr, ptr, ptr, ptr, ptr, ptr }, { { ptr }, ptr, ptr, ptr, ptr, ptr, ptr, ptr, ptr, ptr, ptr, ptr, ptr }* %_2000001, i32 0, i32 2
  store ptr %_2000027, ptr%_2000091, align 8
  %_2000031 = call dereferenceable_or_null(16) ptr @"_SM29scala.collection.mutable.Map$G4load"()
  %_2000032 = call dereferenceable_or_null(8) ptr @"_SM36scala.collection.MapFactory$DelegateD5emptyL16java.lang.ObjectEO"(ptr nonnull dereferenceable(16) %_2000031)
  %_2000095 = icmp eq ptr %_2000032, null
  br i1 %_2000095, label %_2000093.0, label %_2000092.0
_2000092.0:
  %_2000096 = load ptr, ptr %_2000032
  %_2000097 = getelementptr { ptr, i32, i32, ptr }, { ptr, i32, i32, ptr }* %_2000096, i32 0, i32 1
  %_2000098 = load i32, ptr %_2000097
  %_2000099 = call i1 @"__check_class_has_trait"(i32 %_2000098, i32 52)
  br i1 %_2000099, label %_2000093.0, label %_2000094.0
_2000093.0:
  %_2000101 = getelementptr { { ptr }, ptr, ptr, ptr, ptr, ptr, ptr, ptr, ptr, ptr, ptr, ptr, ptr }, { { ptr }, ptr, ptr, ptr, ptr, ptr, ptr, ptr, ptr, ptr, ptr, ptr, ptr }* %_2000001, i32 0, i32 6
  store ptr %_2000032, ptr%_2000101, align 8
  %_2000036 = call dereferenceable_or_null(16) ptr @"scalanative_GC_alloc_small"(ptr @"_SM28java.nio.charset.CoderResultG4type", i64 16)
  %_2000103 = getelementptr { { ptr }, i32, i32 }, { { ptr }, i32, i32 }* %_2000036, i32 0, i32 1
  store i32 1, ptr%_2000103, align 4
  %_2000105 = getelementptr { { ptr }, i32, i32 }, { { ptr }, i32, i32 }* %_2000036, i32 0, i32 2
  store i32 3, ptr%_2000105, align 4
  %_2000107 = getelementptr { { ptr }, ptr, ptr, ptr, ptr, ptr, ptr, ptr, ptr, ptr, ptr, ptr, ptr }, { { ptr }, ptr, ptr, ptr, ptr, ptr, ptr, ptr, ptr, ptr, ptr, ptr, ptr }* %_2000001, i32 0, i32 11
  store ptr %_2000036, ptr%_2000107, align 8
  %_2000041 = call dereferenceable_or_null(16) ptr @"scalanative_GC_alloc_small"(ptr @"_SM28java.nio.charset.CoderResultG4type", i64 16)
  %_2000109 = getelementptr { { ptr }, i32, i32 }, { { ptr }, i32, i32 }* %_2000041, i32 0, i32 1
  store i32 2, ptr%_2000109, align 4
  %_2000111 = getelementptr { { ptr }, i32, i32 }, { { ptr }, i32, i32 }* %_2000041, i32 0, i32 2
  store i32 3, ptr%_2000111, align 4
  %_2000113 = getelementptr { { ptr }, ptr, ptr, ptr, ptr, ptr, ptr, ptr, ptr, ptr, ptr, ptr, ptr }, { { ptr }, ptr, ptr, ptr, ptr, ptr, ptr, ptr, ptr, ptr, ptr, ptr, ptr }* %_2000001, i32 0, i32 10
  store ptr %_2000041, ptr%_2000113, align 8
  %_2000046 = call dereferenceable_or_null(16) ptr @"scalanative_GC_alloc_small"(ptr @"_SM28java.nio.charset.CoderResultG4type", i64 16)
  %_2000115 = getelementptr { { ptr }, i32, i32 }, { { ptr }, i32, i32 }* %_2000046, i32 0, i32 1
  store i32 3, ptr%_2000115, align 4
  %_2000117 = getelementptr { { ptr }, i32, i32 }, { { ptr }, i32, i32 }* %_2000046, i32 0, i32 2
  store i32 3, ptr%_2000117, align 4
  %_2000119 = getelementptr { { ptr }, ptr, ptr, ptr, ptr, ptr, ptr, ptr, ptr, ptr, ptr, ptr, ptr }, { { ptr }, ptr, ptr, ptr, ptr, ptr, ptr, ptr, ptr, ptr, ptr, ptr, ptr }* %_2000001, i32 0, i32 9
  store ptr %_2000046, ptr%_2000119, align 8
  %_2000051 = call dereferenceable_or_null(16) ptr @"scalanative_GC_alloc_small"(ptr @"_SM28java.nio.charset.CoderResultG4type", i64 16)
  %_2000121 = getelementptr { { ptr }, i32, i32 }, { { ptr }, i32, i32 }* %_2000051, i32 0, i32 1
  store i32 4, ptr%_2000121, align 4
  %_2000123 = getelementptr { { ptr }, i32, i32 }, { { ptr }, i32, i32 }* %_2000051, i32 0, i32 2
  store i32 3, ptr%_2000123, align 4
  %_2000125 = getelementptr { { ptr }, ptr, ptr, ptr, ptr, ptr, ptr, ptr, ptr, ptr, ptr, ptr, ptr }, { { ptr }, ptr, ptr, ptr, ptr, ptr, ptr, ptr, ptr, ptr, ptr, ptr, ptr }* %_2000001, i32 0, i32 8
  store ptr %_2000051, ptr%_2000125, align 8
  %_2000055 = call dereferenceable_or_null(8) ptr @"_SM36scala.collection.MapFactory$DelegateD5emptyL16java.lang.ObjectEO"(ptr nonnull dereferenceable(16) %_2000031)
  %_2000128 = icmp eq ptr %_2000055, null
  br i1 %_2000128, label %_2000127.0, label %_2000126.0
_2000126.0:
  %_2000129 = load ptr, ptr %_2000055
  %_2000130 = getelementptr { ptr, i32, i32, ptr }, { ptr, i32, i32, ptr }* %_2000129, i32 0, i32 1
  %_2000131 = load i32, ptr %_2000130
  %_2000132 = call i1 @"__check_class_has_trait"(i32 %_2000131, i32 52)
  br i1 %_2000132, label %_2000127.0, label %_2000094.0
_2000127.0:
  %_2000134 = getelementptr { { ptr }, ptr, ptr, ptr, ptr, ptr, ptr, ptr, ptr, ptr, ptr, ptr, ptr }, { { ptr }, ptr, ptr, ptr, ptr, ptr, ptr, ptr, ptr, ptr, ptr, ptr, ptr }* %_2000001, i32 0, i32 7
  store ptr %_2000055, ptr%_2000134, align 8
  ret void
_2000094.0:
  %_2000135 = phi ptr [%_2000032, %_2000092.0], [%_2000055, %_2000126.0]
  %_2000136 = phi ptr [@"_SM28scala.collection.mutable.MapG4type", %_2000092.0], [@"_SM28scala.collection.mutable.MapG4type", %_2000126.0]
  %_2000137 = load ptr, ptr %_2000135
  call ptr @"_SM34scala.scalanative.runtime.package$D14throwClassCastR_R_nEO"(ptr null, ptr %_2000137, ptr %_2000136)
  unreachable
}

define dereferenceable_or_null(16) ptr @"_SM39java.nio.charset.CoderResult$$$Lambda$1D5applyL16java.lang.ObjectEO"(ptr %_1) personality ptr @__gxx_personality_v0 {
_2000000.0:
  %_2000006 = icmp ne ptr %_1, null
  br i1 %_2000006, label %_2000004.0, label %_2000005.0
_2000004.0:
  %_2000007 = getelementptr { { ptr }, ptr, i32 }, { { ptr }, ptr, i32 }* %_1, i32 0, i32 1
  %_2000001 = load ptr, ptr %_2000007, !dereferenceable_or_null !{i64 104}
  %_2000008 = getelementptr { { ptr }, ptr, i32 }, { { ptr }, ptr, i32 }* %_1, i32 0, i32 2
  %_2000002 = load i32, ptr %_2000008
  %_2000003 = call dereferenceable_or_null(16) ptr @"_SM29java.nio.charset.CoderResult$D33malformedForLengthImpl$$anonfun$1iL28java.nio.charset.CoderResultEPT29java.nio.charset.CoderResult$"(ptr dereferenceable_or_null(104) %_2000001, i32 %_2000002)
  ret ptr %_2000003
_2000005.0:
  call ptr @"_SM34scala.scalanative.runtime.package$D16throwNullPointernEO"(ptr null)
  unreachable
}

define dereferenceable_or_null(32) ptr @"_SM34java.nio.charset.CodingErrorActionD8toStringL16java.lang.StringEO"(ptr %_1) personality ptr @__gxx_personality_v0 {
_2000000.0:
  %_2000004 = icmp ne ptr %_1, null
  br i1 %_2000004, label %_2000002.0, label %_2000003.0
_2000002.0:
  %_2000005 = getelementptr { { ptr }, ptr }, { { ptr }, ptr }* %_1, i32 0, i32 1
  %_2000001 = load ptr, ptr %_2000005, !dereferenceable_or_null !{i64 32}
  ret ptr %_2000001
_2000003.0:
  call ptr @"_SM34scala.scalanative.runtime.package$D16throwNullPointernEO"(ptr null)
  unreachable
}

define dereferenceable_or_null(16) ptr @"_SM35java.nio.charset.CodingErrorAction$D6IGNOREL34java.nio.charset.CodingErrorActionEO"(ptr %_1) alwaysinline personality ptr @__gxx_personality_v0 {
_2000000.0:
  %_2000001 = call dereferenceable_or_null(32) ptr @"_SM35java.nio.charset.CodingErrorAction$G4load"()
  %_2000003 = getelementptr { { ptr }, ptr, ptr, ptr }, { { ptr }, ptr, ptr, ptr }* %_2000001, i32 0, i32 1
  %_2000002 = load ptr, ptr %_2000003, !dereferenceable_or_null !{i64 16}
  ret ptr %_2000002
}

define dereferenceable_or_null(16) ptr @"_SM35java.nio.charset.CodingErrorAction$D6REPORTL34java.nio.charset.CodingErrorActionEO"(ptr %_1) alwaysinline personality ptr @__gxx_personality_v0 {
_2000000.0:
  %_2000001 = call dereferenceable_or_null(32) ptr @"_SM35java.nio.charset.CodingErrorAction$G4load"()
  %_2000003 = getelementptr { { ptr }, ptr, ptr, ptr }, { { ptr }, ptr, ptr, ptr }* %_2000001, i32 0, i32 2
  %_2000002 = load ptr, ptr %_2000003, !dereferenceable_or_null !{i64 16}
  ret ptr %_2000002
}

define dereferenceable_or_null(16) ptr @"_SM35java.nio.charset.CodingErrorAction$D7REPLACEL34java.nio.charset.CodingErrorActionEO"(ptr %_1) alwaysinline personality ptr @__gxx_personality_v0 {
_2000000.0:
  %_2000001 = call dereferenceable_or_null(32) ptr @"_SM35java.nio.charset.CodingErrorAction$G4load"()
  %_2000003 = getelementptr { { ptr }, ptr, ptr, ptr }, { { ptr }, ptr, ptr, ptr }* %_2000001, i32 0, i32 3
  %_2000002 = load ptr, ptr %_2000003, !dereferenceable_or_null !{i64 16}
  ret ptr %_2000002
}

define dereferenceable_or_null(32) ptr @"_SM35java.nio.charset.CodingErrorAction$G4load"() noinline personality ptr @__gxx_personality_v0 {
_1.0:
  %_4 = getelementptr ptr, ptr @"__modules", i32 24
  %_5 = load ptr, ptr %_4, !dereferenceable_or_null !{i64 32}
  %_6 = icmp ne ptr %_5, null
  br i1 %_6, label %_2.0, label %_3.0
_2.0:
  ret ptr %_5
_3.0:
  %_7 = call dereferenceable_or_null(32) ptr @"scalanative_GC_alloc_small"(ptr @"_SM35java.nio.charset.CodingErrorAction$G4type", i64 32)
  store ptr %_7, ptr%_4, align 8
  call void @"_SM35java.nio.charset.CodingErrorAction$RE"(ptr dereferenceable_or_null(32) %_7)
  ret ptr %_7
}

define void @"_SM35java.nio.charset.CodingErrorAction$RE"(ptr %_1) personality ptr @__gxx_personality_v0 {
_2000000.0:
  %_2000001 = call dereferenceable_or_null(32) ptr @"_SM35java.nio.charset.CodingErrorAction$G4load"()
  %_2000005 = call dereferenceable_or_null(16) ptr @"scalanative_GC_alloc_small"(ptr @"_SM34java.nio.charset.CodingErrorActionG4type", i64 16)
  %_2000021 = getelementptr { { ptr }, ptr }, { { ptr }, ptr }* %_2000005, i32 0, i32 1
  store ptr @"_SM7__constG2-40", ptr%_2000021, align 8
  %_2000023 = getelementptr { { ptr }, ptr, ptr, ptr }, { { ptr }, ptr, ptr, ptr }* %_2000001, i32 0, i32 1
  store ptr %_2000005, ptr%_2000023, align 8
  %_2000011 = call dereferenceable_or_null(16) ptr @"scalanative_GC_alloc_small"(ptr @"_SM34java.nio.charset.CodingErrorActionG4type", i64 16)
  %_2000025 = getelementptr { { ptr }, ptr }, { { ptr }, ptr }* %_2000011, i32 0, i32 1
  store ptr @"_SM7__constG2-42", ptr%_2000025, align 8
  %_2000027 = getelementptr { { ptr }, ptr, ptr, ptr }, { { ptr }, ptr, ptr, ptr }* %_2000001, i32 0, i32 3
  store ptr %_2000011, ptr%_2000027, align 8
  %_2000017 = call dereferenceable_or_null(16) ptr @"scalanative_GC_alloc_small"(ptr @"_SM34java.nio.charset.CodingErrorActionG4type", i64 16)
  %_2000029 = getelementptr { { ptr }, ptr }, { { ptr }, ptr }* %_2000017, i32 0, i32 1
  store ptr @"_SM7__constG2-44", ptr%_2000029, align 8
  %_2000031 = getelementptr { { ptr }, ptr, ptr, ptr }, { { ptr }, ptr, ptr, ptr }* %_2000001, i32 0, i32 2
  store ptr %_2000017, ptr%_2000031, align 8
  ret void
}

define dereferenceable_or_null(32) ptr @"_SM40java.nio.charset.MalformedInputExceptionD10getMessageL16java.lang.StringEO"(ptr %_1) personality ptr @__gxx_personality_v0 {
_2000000.0:
  %_2000013 = icmp ne ptr %_1, null
  br i1 %_2000013, label %_2000011.0, label %_2000012.0
_2000011.0:
  %_2000004 = call dereferenceable_or_null(24) ptr @"scalanative_GC_alloc_small"(ptr @"_SM23java.lang.StringBuilderG4type", i64 24)
  %_2000005 = call dereferenceable_or_null(16) ptr @"_SM36scala.scalanative.runtime.CharArray$D5allociL35scala.scalanative.runtime.CharArrayEO"(ptr @"_SM36scala.scalanative.runtime.CharArray$G8instance", i32 15)
  %_2000016 = getelementptr { { ptr }, i32, i1, ptr }, { { ptr }, i32, i1, ptr }* %_2000004, i32 0, i32 3
  store ptr %_2000005, ptr%_2000016, align 8
  %_2000007 = call dereferenceable_or_null(24) ptr @"_SM23java.lang.StringBuilderD6appendL16java.lang.StringL23java.lang.StringBuilderEO"(ptr nonnull dereferenceable(24) %_2000004, ptr @"_SM7__constG2-46")
  %_2000017 = getelementptr { { ptr }, ptr, ptr, ptr, i1, i1, i32 }, { { ptr }, ptr, ptr, ptr, i1, i1, i32 }* %_1, i32 0, i32 6
  %_2000008 = load i32, ptr %_2000017
  %_2000009 = call dereferenceable_or_null(24) ptr @"_SM23java.lang.StringBuilderD6appendiL23java.lang.StringBuilderEO"(ptr nonnull dereferenceable(24) %_2000004, i32 %_2000008)
  %_2000010 = call dereferenceable_or_null(32) ptr @"_SM23java.lang.StringBuilderD8toStringL16java.lang.StringEO"(ptr nonnull dereferenceable(24) %_2000004)
  ret ptr %_2000010
_2000012.0:
  call ptr @"_SM34scala.scalanative.runtime.package$D16throwNullPointernEO"(ptr null)
  unreachable
}

define dereferenceable_or_null(40) ptr @"_SM34java.nio.charset.StandardCharsets$D5UTF_8L24java.nio.charset.CharsetEO"(ptr %_1) personality ptr @__gxx_personality_v0 {
_2000000.0:
  %_2000002 = call dereferenceable_or_null(40) ptr @"_SM28niocharset.StandardCharsets$D5UTF_8L24java.nio.charset.CharsetEO"(ptr nonnull dereferenceable(8) @"_SM28niocharset.StandardCharsets$G8instance")
  ret ptr %_2000002
}

define void @"_SM34java.nio.charset.StandardCharsets$RE"(ptr %_1) personality ptr @__gxx_personality_v0 {
_2000000.0:
  ret void
}

define dereferenceable_or_null(32) ptr @"_SM45java.nio.charset.UnmappableCharacterExceptionD10getMessageL16java.lang.StringEO"(ptr %_1) personality ptr @__gxx_personality_v0 {
_2000000.0:
  %_2000013 = icmp ne ptr %_1, null
  br i1 %_2000013, label %_2000011.0, label %_2000012.0
_2000011.0:
  %_2000004 = call dereferenceable_or_null(24) ptr @"scalanative_GC_alloc_small"(ptr @"_SM23java.lang.StringBuilderG4type", i64 24)
  %_2000005 = call dereferenceable_or_null(16) ptr @"_SM36scala.scalanative.runtime.CharArray$D5allociL35scala.scalanative.runtime.CharArrayEO"(ptr @"_SM36scala.scalanative.runtime.CharArray$G8instance", i32 15)
  %_2000016 = getelementptr { { ptr }, i32, i1, ptr }, { { ptr }, i32, i1, ptr }* %_2000004, i32 0, i32 3
  store ptr %_2000005, ptr%_2000016, align 8
  %_2000007 = call dereferenceable_or_null(24) ptr @"_SM23java.lang.StringBuilderD6appendL16java.lang.StringL23java.lang.StringBuilderEO"(ptr nonnull dereferenceable(24) %_2000004, ptr @"_SM7__constG2-46")
  %_2000017 = getelementptr { { ptr }, ptr, ptr, ptr, i1, i1, i32 }, { { ptr }, ptr, ptr, ptr, i1, i1, i32 }* %_1, i32 0, i32 6
  %_2000008 = load i32, ptr %_2000017
  %_2000009 = call dereferenceable_or_null(24) ptr @"_SM23java.lang.StringBuilderD6appendiL23java.lang.StringBuilderEO"(ptr nonnull dereferenceable(24) %_2000004, i32 %_2000008)
  %_2000010 = call dereferenceable_or_null(32) ptr @"_SM23java.lang.StringBuilderD8toStringL16java.lang.StringEO"(ptr nonnull dereferenceable(24) %_2000004)
  ret ptr %_2000010
_2000012.0:
  call ptr @"_SM34scala.scalanative.runtime.package$D16throwNullPointernEO"(ptr null)
  unreachable
}